 PhysX3CHECKED_x86

 Timestamp is 589b9e13 (Wed Feb  8 15:39:15 2017)

 Preferred load address is 10000000

 Start         Length     Name                   Class
 0001:00000000 0001cf20H .text$di                CODE
 0001:0001cf20 00233e40H .text$mn                CODE
 0001:00250d60 0000100dH .text$yd                CODE
 0002:00000000 00000104H .CRT$XCA                DATA
 0002:00000104 0000160cH .CRT$XCU                DATA
 0002:00001710 00000104H .CRT$XCZ                DATA
 0002:00001814 00000104H .CRT$XIA                DATA
 0002:00001918 00000104H .CRT$XIZ                DATA
 0002:00001a1c 00000104H .CRT$XPA                DATA
 0002:00001b20 00000104H .CRT$XPZ                DATA
 0002:00001c24 00000104H .CRT$XTA                DATA
 0002:00001d28 00000118H .CRT$XTZ                DATA
 0002:00001e40 0002a530H .rdata                  DATA
 0002:0002c370 00000160H .rdata$r                DATA
 0002:0002c4d0 00000104H .rdata$sxdata           DATA
 0002:0002c5d4 0000019cH .rdata$zzzdbg           DATA
 0002:0002c770 00000104H .rtc$IAA                DATA
 0002:0002c874 00000104H .rtc$IZZ                DATA
 0002:0002c978 00000104H .rtc$TAA                DATA
 0002:0002ca7c 00000104H .rtc$TZZ                DATA
 0002:0002cb80 00000190H .xdata$x                DATA
 0002:0002cd10 00002682H .edata                  DATA
 0003:00000000 00003bc8H .data                   DATA
 0003:00003bc8 00000ff8H .data$r                 DATA
 0003:00004bc0 0000732cH .bss                    DATA
 0004:00000000 0000029cH .idata$5                DATA
 0004:0000029c 000000a0H .idata$2                DATA
 0004:0000033c 00000014H .idata$3                DATA
 0004:00000350 0000029cH .idata$4                DATA
 0004:000005ec 00000759H .idata$6                DATA
 0005:00000000 00000020H .didat$2                DATA
 0005:00000020 00000020H .didat$3                DATA
 0005:00000040 0000057cH .didat$4                DATA
 0005:000005bc 0000057cH .didat$5                DATA
 0005:00000b38 00005848H .didat$6                DATA
 0005:00006380 000005e6H .didat$7                DATA
 0006:00000000 0000012aH .gfids$y                DATA
 0007:00000000 00000104H .00cfg                  DATA
 0008:00000000 000001c0H .rsrc$01                DATA
 0008:000001c0 00000679H .rsrc$02                DATA

  Address         Publics by Value              Rva+Base       Lib:Object

 0000:00000000       ___guard_longjmp_table     00000000     <absolute>
 0000:00000000       ___dynamic_value_reloc_table 00000000     <absolute>
 0000:00000000       ___guard_fids_table        00000000     <absolute>
 0000:00000000       ___guard_longjmp_count     00000000     <absolute>
 0000:00000000       ___guard_fids_count        00000000     <absolute>
 0000:00000000       ___guard_iat_table         00000000     <absolute>
 0000:00000000       ___guard_iat_count         00000000     <absolute>
 0000:00000001       ___safe_se_handler_count   00000001     <absolute>
 0000:00000100       ___guard_flags             00000100     <absolute>
 0000:00000000       ___ImageBase               10000000     <linker-defined>
 0001:0001cf20       _PxSetPhysXDelayLoadHook   1001df20 f   NpWindowsDelayLoadHook.obj
 0001:0001cf30       ?delayHook@@YGP6GHXZIPAUDelayLoadInfo@@@Z 1001df30 f   NpWindowsDelayLoadHook.obj
 0001:0001cf90       ?physXCommonDliNotePreLoadLibrary@shdfnd@physx@@YGP6GHXZPBDPBVPxDelayLoadHook@2@@Z 1001df90 f i NpWindowsDelayLoadHook.obj
 0001:0001d4b0       ?createObject@NpParticleFluid@physx@@SAPAV12@AAPAEAAVPxDeserializationContext@2@@Z 1001e4b0 f   NpParticleFluid.obj
 0001:0001d500       ??0NpParticleFluid@physx@@QAE@I_N@Z 1001e500 f   NpParticleFluid.obj
 0001:0001d560       ??1NpParticleFluid@physx@@UAE@XZ 1001e560 f   NpParticleFluid.obj
 0001:0001d590       ?is@NpParticleFluid@physx@@UAEPAXW4Enum@PxActorType@2@@Z 1001e590 f   NpParticleFluid.obj
 0001:0001d5a0       ?is@NpParticleFluid@physx@@UBEPBXW4Enum@PxActorType@2@@Z 1001e5a0 f   NpParticleFluid.obj
 0001:0001d5b0       ?lockParticleFluidReadData@NpParticleFluid@physx@@UAEPAVPxParticleFluidReadData@2@V?$PxFlags@W4Enum@PxDataAccessFlag@physx@@E@2@@Z 1001e5b0 f   NpParticleFluid.obj
 0001:0001d5d0       ?lockParticleFluidReadData@NpParticleFluid@physx@@UAEPAVPxParticleFluidReadData@2@XZ 1001e5d0 f   NpParticleFluid.obj
 0001:0001d5e0       ?getStiffness@NpParticleFluid@physx@@UBEMXZ 1001e5e0 f   NpParticleFluid.obj
 0001:0001d650       ?setStiffness@NpParticleFluid@physx@@UAEXM@Z 1001e650 f   NpParticleFluid.obj
 0001:0001d6d0       ?getViscosity@NpParticleFluid@physx@@UBEMXZ 1001e6d0 f   NpParticleFluid.obj
 0001:0001d740       ?setViscosity@NpParticleFluid@physx@@UAEXM@Z 1001e740 f   NpParticleFluid.obj
 0001:0001d7c0       ?getRestParticleDistance@NpParticleFluid@physx@@UBEMXZ 1001e7c0 f   NpParticleFluid.obj
 0001:0001d800       ?setRestParticleDistance@NpParticleFluid@physx@@UAEXM@Z 1001e800 f   NpParticleFluid.obj
 0001:0001d9d0       ??$pointerOffset@PAVActor@Scb@physx@@@shdfnd@physx@@YAPAVActor@Scb@1@PAXH@Z 1001e9d0 f i NpParticleFluid.obj
 0001:0001d9e0       ??$pointerOffset@PBVActor@Scb@physx@@@shdfnd@physx@@YAPBVActor@Scb@1@PBXH@Z 1001e9e0 f i NpParticleFluid.obj
 0001:0001d9f0       ??0?$NpActorTemplate@VPxParticleFluid@physx@@@physx@@QAE@GV?$PxFlags@W4Enum@PxBaseFlag@physx@@G@1@PBDPAX@Z 1001e9f0 f i NpParticleFluid.obj
 0001:0001da50       ??0?$NpParticleBaseTemplate@VPxParticleFluid@physx@@VNpParticleFluid@2@@physx@@QAE@GV?$PxFlags@W4Enum@PxBaseFlag@physx@@G@1@ABW4Enum@PxActorType@1@I_N@Z 1001ea50 f i NpParticleFluid.obj
 0001:0001dac0       ??0?$NpParticleBaseTemplate@VPxParticleFluid@physx@@VNpParticleFluid@2@@physx@@QAE@V?$PxFlags@W4Enum@PxBaseFlag@physx@@G@1@@Z 1001eac0 f i NpParticleFluid.obj
 0001:0001db60       ??0NpParticleFluidReadData@physx@@QAE@XZ 1001eb60 f i NpParticleFluid.obj
 0001:0001dbb0       ??0PxParticleFluidReadData@physx@@QAE@XZ 1001ebb0 f i NpParticleFluid.obj
 0001:0001dc40       ??0PxVec3@physx@@QAE@XZ    1001ec40 f i NpParticleFluid.obj
 0001:0001dc50       ??1?$NpActorTemplate@VPxParticleFluid@physx@@@physx@@UAE@XZ 1001ec50 f i NpParticleFluid.obj
 0001:0001dc80       ??1?$NpParticleBaseTemplate@VPxParticleFluid@physx@@VNpParticleFluid@2@@physx@@UAE@XZ 1001ec80 f i NpParticleFluid.obj
 0001:0001dcc0       ??1NpParticleFluidReadData@physx@@UAE@XZ 1001ecc0 f i NpParticleFluid.obj
 0001:0001dcd0       ??1PxActor@physx@@MAE@XZ   1001ecd0 f i NpParticleFluid.obj
 0001:0001dce0       ??1PxBase@physx@@MAE@XZ    1001ece0 f i NpParticleFluid.obj
 0001:0001dcf0       ??1PxLockedData@physx@@UAE@XZ 1001ecf0 f i NpParticleFluid.obj
 0001:0001dd00       ??1PxParticleBase@physx@@MAE@XZ 1001ed00 f i NpParticleFluid.obj
 0001:0001dd10       ??1PxParticleFluid@physx@@MAE@XZ 1001ed10 f i NpParticleFluid.obj
 0001:0001dd20       ??1PxParticleFluidReadData@physx@@UAE@XZ 1001ed20 f i NpParticleFluid.obj
 0001:0001dd30       ??1PxParticleReadData@physx@@UAE@XZ 1001ed30 f i NpParticleFluid.obj
 0001:0001dd40       ??_G?$NpActorTemplate@VPxParticleFluid@physx@@@physx@@UAEPAXI@Z 1001ed40 f i NpParticleFluid.obj
 0001:0001dd40       ??_E?$NpActorTemplate@VPxParticleFluid@physx@@@physx@@UAEPAXI@Z 1001ed40 f i NpParticleFluid.obj
 0001:0001ddb0       ??_G?$NpParticleBaseTemplate@VPxParticleFluid@physx@@VNpParticleFluid@2@@physx@@UAEPAXI@Z 1001edb0 f i NpParticleFluid.obj
 0001:0001ddb0       ??_E?$NpParticleBaseTemplate@VPxParticleFluid@physx@@VNpParticleFluid@2@@physx@@UAEPAXI@Z 1001edb0 f i NpParticleFluid.obj
 0001:0001de30       ??_ENpParticleFluid@physx@@UAEPAXI@Z 1001ee30 f i NpParticleFluid.obj
 0001:0001de30       ??_GNpParticleFluid@physx@@UAEPAXI@Z 1001ee30 f i NpParticleFluid.obj
 0001:0001deb0       ??_ENpParticleFluidReadData@physx@@UAEPAXI@Z 1001eeb0 f i NpParticleFluid.obj
 0001:0001deb0       ??_GNpParticleFluidReadData@physx@@UAEPAXI@Z 1001eeb0 f i NpParticleFluid.obj
 0001:0001df00       ??_GPxActor@physx@@MAEPAXI@Z 1001ef00 f i NpParticleFluid.obj
 0001:0001df00       ??_EPxActor@physx@@MAEPAXI@Z 1001ef00 f i NpParticleFluid.obj
 0001:0001df30       ??_EPxBase@physx@@MAEPAXI@Z 1001ef30 f i NpParticleFluid.obj
 0001:0001df30       ??_GPxBase@physx@@MAEPAXI@Z 1001ef30 f i NpParticleFluid.obj
 0001:0001df60       ??_GPxLockedData@physx@@UAEPAXI@Z 1001ef60 f i NpParticleFluid.obj
 0001:0001df60       ??_EPxLockedData@physx@@UAEPAXI@Z 1001ef60 f i NpParticleFluid.obj
 0001:0001df90       ??_GPxParticleBase@physx@@MAEPAXI@Z 1001ef90 f i NpParticleFluid.obj
 0001:0001df90       ??_EPxParticleBase@physx@@MAEPAXI@Z 1001ef90 f i NpParticleFluid.obj
 0001:0001dfc0       ??_GPxParticleFluid@physx@@MAEPAXI@Z 1001efc0 f i NpParticleFluid.obj
 0001:0001dfc0       ??_EPxParticleFluid@physx@@MAEPAXI@Z 1001efc0 f i NpParticleFluid.obj
 0001:0001dff0       ??_GPxParticleFluidReadData@physx@@UAEPAXI@Z 1001eff0 f i NpParticleFluid.obj
 0001:0001dff0       ??_EPxParticleFluidReadData@physx@@UAEPAXI@Z 1001eff0 f i NpParticleFluid.obj
 0001:0001e020       ??_GPxParticleReadData@physx@@UAEPAXI@Z 1001f020 f i NpParticleFluid.obj
 0001:0001e020       ??_EPxParticleReadData@physx@@UAEPAXI@Z 1001f020 f i NpParticleFluid.obj
 0001:0001e050       ??_H@YGXPAXIIP6EPAX0@Z@Z   1001f050 f i NpParticleFluid.obj
 0001:0001e080       ?__empty_global_delete@@YAXPAX@Z 1001f080 f i NpParticleFluid.obj
 0001:0001e090       ?__empty_global_delete@@YAXPAXI@Z 1001f090 f i NpParticleFluid.obj
 0001:0001e090       ?__global_delete@@YAXPAXI@Z 1001f090 f i NpParticleFluid.obj
 0001:0001e090       ?__global_array_delete@@YAXPAXI@Z 1001f090 f i NpParticleFluid.obj
 0001:0001e0a0       ?addForces@?$NpParticleBaseTemplate@VPxParticleFluid@physx@@VNpParticleFluid@2@@physx@@UAEXIABV?$PxStrideIterator@$$CBI@2@ABV?$PxStrideIterator@$$CBVPxVec3@physx@@@2@W4Enum@PxForceMode@2@@Z 1001f0a0 f i NpParticleFluid.obj
 0001:0001e230       ?checkAllocatedIndices@?$NpParticleBaseTemplate@VPxParticleFluid@physx@@VNpParticleFluid@2@@physx@@AAE_NIABV?$PxStrideIterator@$$CBI@2@@Z 1001f230 f i NpParticleFluid.obj
 0001:0001e370       ?checkFreeIndices@?$NpParticleBaseTemplate@VPxParticleFluid@physx@@VNpParticleFluid@2@@physx@@AAE_NIABV?$PxStrideIterator@$$CBI@2@@Z 1001f370 f i NpParticleFluid.obj
 0001:0001e710       ?createParticles@?$NpParticleBaseTemplate@VPxParticleFluid@physx@@VNpParticleFluid@2@@physx@@UAE_NABVPxParticleCreationData@2@@Z 1001f710 f i NpParticleFluid.obj
 0001:0001eb40       ?exportExtraData@?$NpActorTemplate@VPxParticleFluid@physx@@@physx@@UAEXAAVPxSerializationContext@2@@Z 1001fb40 f i NpParticleFluid.obj
 0001:0001eb50       ?exportExtraData@NpParticleFluid@physx@@UAEXAAVPxSerializationContext@2@@Z 1001fb50 f i NpParticleFluid.obj
 0001:0001eb60       ?extend@?$BitMapBase@VAllocator@shdfnd@physx@@@Cm@physx@@IAEXI@Z 1001fb60 f i NpParticleFluid.obj
 0001:0001ec20       ?getActorFlags@?$NpActorTemplate@VPxParticleFluid@physx@@@physx@@UBE?AV?$PxFlags@W4Enum@PxActorFlag@physx@@G@2@XZ 1001fc20 f i NpParticleFluid.obj
 0001:0001eca0       ?getAggregate@?$NpActorTemplate@VPxParticleFluid@physx@@@physx@@UBEPAVPxAggregate@2@XZ 1001fca0 f i NpParticleFluid.obj
 0001:0001ecb0       ?getClientBehaviorFlags@?$NpActorTemplate@VPxParticleFluid@physx@@@physx@@UBE?AV?$PxFlags@W4Enum@PxActorClientBehaviorFlag@physx@@E@2@XZ 1001fcb0 f i NpParticleFluid.obj
 0001:0001ed30       ?getConcreteTypeName@PxBase@physx@@UBEPBDXZ 1001fd30 f i NpParticleFluid.obj
 0001:0001ed40       ?getConcreteTypeName@PxParticleFluid@physx@@UBEPBDXZ 1001fd40 f i NpParticleFluid.obj
 0001:0001ed50       ?getContactOffset@?$NpParticleBaseTemplate@VPxParticleFluid@physx@@VNpParticleFluid@2@@physx@@UBEMXZ 1001fd50 f i NpParticleFluid.obj
 0001:0001eda0       ?getDamping@?$NpParticleBaseTemplate@VPxParticleFluid@physx@@VNpParticleFluid@2@@physx@@UBEMXZ 1001fda0 f i NpParticleFluid.obj
 0001:0001ee20       ?getDataAccessFlags@NpParticleFluidReadData@physx@@UAE?AV?$PxFlags@W4Enum@PxDataAccessFlag@physx@@E@2@XZ 1001fe20 f i NpParticleFluid.obj
 0001:0001ee40       ?getDominanceGroup@?$NpActorTemplate@VPxParticleFluid@physx@@@physx@@UBEEXZ 1001fe40 f i NpParticleFluid.obj
 0001:0001eed0       ?getDynamicFriction@?$NpParticleBaseTemplate@VPxParticleFluid@physx@@VNpParticleFluid@2@@physx@@UBEMXZ 1001fed0 f i NpParticleFluid.obj
 0001:0001ef50       ?getExternalAcceleration@?$NpParticleBaseTemplate@VPxParticleFluid@physx@@VNpParticleFluid@2@@physx@@UBE?AVPxVec3@2@XZ 1001ff50 f i NpParticleFluid.obj
 0001:0001efd0       ?getFlags@ParticleSystem@Scb@physx@@QBE?AV?$PxFlags@W4Enum@PxParticleBaseFlag@physx@@G@3@XZ 1001ffd0 f i NpParticleFluid.obj
 0001:0001f020       ?getGridSize@?$NpParticleBaseTemplate@VPxParticleFluid@physx@@VNpParticleFluid@2@@physx@@UBEMXZ 10020020 f i NpParticleFluid.obj
 0001:0001f070       ?getMaxMotionDistance@?$NpParticleBaseTemplate@VPxParticleFluid@physx@@VNpParticleFluid@2@@physx@@UBEMXZ 10020070 f i NpParticleFluid.obj
 0001:0001f0c0       ?getMaxParticles@?$NpParticleBaseTemplate@VPxParticleFluid@physx@@VNpParticleFluid@2@@physx@@UBEIXZ 100200c0 f i NpParticleFluid.obj
 0001:0001f110       ?getName@?$NpActorTemplate@VPxParticleFluid@physx@@@physx@@UBEPBDXZ 10020110 f i NpParticleFluid.obj
 0001:0001f150       ?getOwnerClient@?$NpActorTemplate@VPxParticleFluid@physx@@@physx@@UBEEXZ 10020150 f i NpParticleFluid.obj
 0001:0001f180       ?getParticleBaseFlags@?$NpParticleBaseTemplate@VPxParticleFluid@physx@@VNpParticleFluid@2@@physx@@UBE?AV?$PxFlags@W4Enum@PxParticleBaseFlag@physx@@G@2@XZ 10020180 f i NpParticleFluid.obj
 0001:0001f1f0       ?getParticleMass@?$NpParticleBaseTemplate@VPxParticleFluid@physx@@VNpParticleFluid@2@@physx@@UBEMXZ 100201f0 f i NpParticleFluid.obj
 0001:0001f270       ?getParticleReadDataFlags@?$NpParticleBaseTemplate@VPxParticleFluid@physx@@VNpParticleFluid@2@@physx@@UBE?AV?$PxFlags@W4Enum@PxParticleReadDataFlag@physx@@G@2@XZ 10020270 f i NpParticleFluid.obj
 0001:0001f2c0       ?getProjectionPlane@?$NpParticleBaseTemplate@VPxParticleFluid@physx@@VNpParticleFluid@2@@physx@@UBEXAAVPxVec3@2@AAM@Z 100202c0 f i NpParticleFluid.obj
 0001:0001f350       ?getRestOffset@?$NpParticleBaseTemplate@VPxParticleFluid@physx@@VNpParticleFluid@2@@physx@@UBEMXZ 10020350 f i NpParticleFluid.obj
 0001:0001f3a0       ?getRestitution@?$NpParticleBaseTemplate@VPxParticleFluid@physx@@VNpParticleFluid@2@@physx@@UBEMXZ 100203a0 f i NpParticleFluid.obj
 0001:0001f420       ?getScene@?$NpActorTemplate@VPxParticleFluid@physx@@@physx@@UBEPAVPxScene@2@XZ 10020420 f i NpParticleFluid.obj
 0001:0001f430       ?getSimulationFilterData@?$NpParticleBaseTemplate@VPxParticleFluid@physx@@VNpParticleFluid@2@@physx@@UBE?AUPxFilterData@2@XZ 10020430 f i NpParticleFluid.obj
 0001:0001f4a0       ?getStaticFriction@?$NpParticleBaseTemplate@VPxParticleFluid@physx@@VNpParticleFluid@2@@physx@@UBEMXZ 100204a0 f i NpParticleFluid.obj
 0001:0001f520       ?getType@?$NpParticleBaseTemplate@VPxParticleFluid@physx@@VNpParticleFluid@2@@physx@@UBE?AW4Enum@PxActorType@2@XZ 10020520 f i NpParticleFluid.obj
 0001:0001f530       ?getType@NpParticleFluid@physx@@UBE?AW4Enum@PxActorType@2@XZ 10020530 f i NpParticleFluid.obj
 0001:0001f540       ?getWorldBounds@?$NpParticleBaseTemplate@VPxParticleFluid@physx@@VNpParticleFluid@2@@physx@@UBE?AVPxBounds3@2@M@Z 10020540 f i NpParticleFluid.obj
 0001:0001f6f0       ?isKindOf@PxActor@physx@@MBE_NPBD@Z 100206f0 f i NpParticleFluid.obj
 0001:0001f790       ?isKindOf@PxBase@physx@@MBE_NPBD@Z 10020790 f i NpParticleFluid.obj
 0001:0001f7f0       ?isKindOf@PxParticleBase@physx@@MBE_NPBD@Z 100207f0 f i NpParticleFluid.obj
 0001:0001f860       ?isKindOf@PxParticleFluid@physx@@MBE_NPBD@Z 10020860 f i NpParticleFluid.obj
 0001:0001f910       ?isReleasable@PxBase@physx@@UBE_NXZ 10020910 f i NpParticleFluid.obj
 0001:0001f920       ?lockParticleReadData@?$NpParticleBaseTemplate@VPxParticleFluid@physx@@VNpParticleFluid@2@@physx@@UAEPAVPxParticleReadData@2@V?$PxFlags@W4Enum@PxDataAccessFlag@physx@@E@2@@Z 10020920 f i NpParticleFluid.obj
 0001:0001f980       ?lockParticleReadData@?$NpParticleBaseTemplate@VPxParticleFluid@physx@@VNpParticleFluid@2@@physx@@UAEPAVPxParticleReadData@2@XZ 10020980 f i NpParticleFluid.obj
 0001:0001f9d0       ?lockParticleReadData@ParticleSystem@Scb@physx@@QAEPAVPxParticleReadData@3@V?$PxFlags@W4Enum@PxDataAccessFlag@physx@@E@3@@Z 100209d0 f i NpParticleFluid.obj
 0001:0001fb60       ?release@?$NpActorTemplate@VPxParticleFluid@physx@@@physx@@UAEXXZ 10020b60 f i NpParticleFluid.obj
 0001:0001fb70       ?release@?$NpParticleBaseTemplate@VPxParticleFluid@physx@@VNpParticleFluid@2@@physx@@UAEXXZ 10020b70 f i NpParticleFluid.obj
 0001:0001fc10       ?releaseParticles@?$NpParticleBaseTemplate@VPxParticleFluid@physx@@VNpParticleFluid@2@@physx@@UAEXIABV?$PxStrideIterator@$$CBI@2@@Z 10020c10 f i NpParticleFluid.obj
 0001:0001fd20       ?releaseParticles@?$NpParticleBaseTemplate@VPxParticleFluid@physx@@VNpParticleFluid@2@@physx@@UAEXXZ 10020d20 f i NpParticleFluid.obj
 0001:0001fd70       ?requires@NpParticleFluid@physx@@UAEXAAVPxProcessPxBaseCallback@2@@Z 10020d70 f i NpParticleFluid.obj
 0001:0001fd80       ?resetFiltering@?$NpParticleBaseTemplate@VPxParticleFluid@physx@@VNpParticleFluid@2@@physx@@UAEXXZ 10020d80 f i NpParticleFluid.obj
 0001:0001fdd0       ?resolveReferences@?$NpActorTemplate@VPxParticleFluid@physx@@@physx@@UAEXAAVPxDeserializationContext@2@@Z 10020dd0 f i NpParticleFluid.obj
 0001:0001fde0       ?setActorFlag@?$NpActorTemplate@VPxParticleFluid@physx@@@physx@@UAEXW4Enum@PxActorFlag@2@_N@Z 10020de0 f i NpParticleFluid.obj
 0001:0001feb0       ?setActorFlags@?$NpActorTemplate@VPxParticleFluid@physx@@@physx@@UAEXV?$PxFlags@W4Enum@PxActorFlag@physx@@G@2@@Z 10020eb0 f i NpParticleFluid.obj
 0001:0001ff10       ?setActorFlags@Actor@Scb@physx@@QAEXV?$PxFlags@W4Enum@PxActorFlag@physx@@G@3@@Z 10020f10 f i NpParticleFluid.obj
 0001:00020090       ?setClientBehaviorFlags@?$NpActorTemplate@VPxParticleFluid@physx@@@physx@@UAEXV?$PxFlags@W4Enum@PxActorClientBehaviorFlag@physx@@E@2@@Z 10021090 f i NpParticleFluid.obj
 0001:000200f0       ?setClientBehaviorFlags@Actor@Scb@physx@@QAEXV?$PxFlags@W4Enum@PxActorClientBehaviorFlag@physx@@E@3@@Z 100210f0 f i NpParticleFluid.obj
 0001:000201c0       ?setContactOffset@?$NpParticleBaseTemplate@VPxParticleFluid@physx@@VNpParticleFluid@2@@physx@@UAEXM@Z 100211c0 f i NpParticleFluid.obj
 0001:000202c0       ?setContactOffset@ParticleSystem@Scb@physx@@QAEXM@Z 100212c0 f i NpParticleFluid.obj
 0001:00020350       ?setDamping@?$NpParticleBaseTemplate@VPxParticleFluid@physx@@VNpParticleFluid@2@@physx@@UAEXM@Z 10021350 f i NpParticleFluid.obj
 0001:000203f0       ?setDamping@ParticleSystem@Scb@physx@@QAEXM@Z 100213f0 f i NpParticleFluid.obj
 0001:000204c0       ?setDataAccessFlags@NpParticleFluidReadData@physx@@UAEXV?$PxFlags@W4Enum@PxDataAccessFlag@physx@@E@2@@Z 100214c0 f i NpParticleFluid.obj
 0001:000204e0       ?setDominanceGroup@?$NpActorTemplate@VPxParticleFluid@physx@@@physx@@UAEXE@Z 100214e0 f i NpParticleFluid.obj
 0001:00020540       ?setDominanceGroup@Actor@Scb@physx@@QAEXE@Z 10021540 f i NpParticleFluid.obj
 0001:00020600       ?setDynamicFriction@?$NpParticleBaseTemplate@VPxParticleFluid@physx@@VNpParticleFluid@2@@physx@@UAEXM@Z 10021600 f i NpParticleFluid.obj
 0001:000206b0       ?setDynamicFriction@ParticleSystem@Scb@physx@@QAEXM@Z 100216b0 f i NpParticleFluid.obj
 0001:00020780       ?setExternalAcceleration@?$NpParticleBaseTemplate@VPxParticleFluid@physx@@VNpParticleFluid@2@@physx@@UAEXABVPxVec3@2@@Z 10021780 f i NpParticleFluid.obj
 0001:000207d0       ?setExternalAcceleration@ParticleSystem@Scb@physx@@QAEXABVPxVec3@3@@Z 100217d0 f i NpParticleFluid.obj
 0001:000208a0       ?setFlags@ParticleSystem@Scb@physx@@QAEXV?$PxFlags@W4Enum@PxParticleBaseFlag@physx@@G@3@@Z 100218a0 f i NpParticleFluid.obj
 0001:00020970       ?setGridSize@?$NpParticleBaseTemplate@VPxParticleFluid@physx@@VNpParticleFluid@2@@physx@@UAEXM@Z 10021970 f i NpParticleFluid.obj
 0001:00020a70       ?setGridSize@ParticleSystem@Scb@physx@@QAEXM@Z 10021a70 f i NpParticleFluid.obj
 0001:00020b00       ?setMaxMotionDistance@?$NpParticleBaseTemplate@VPxParticleFluid@physx@@VNpParticleFluid@2@@physx@@UAEXM@Z 10021b00 f i NpParticleFluid.obj
 0001:00020c00       ?setMaxMotionDistance@ParticleSystem@Scb@physx@@QAEXM@Z 10021c00 f i NpParticleFluid.obj
 0001:00020c90       ?setName@?$NpActorTemplate@VPxParticleFluid@physx@@@physx@@UAEXPBD@Z 10021c90 f i NpParticleFluid.obj
 0001:00020d40       ?setOwnerClient@?$NpActorTemplate@VPxParticleFluid@physx@@@physx@@UAEXE@Z 10021d40 f i NpParticleFluid.obj
 0001:00020db0       ?setOwnerClient@Actor@Scb@physx@@QAEXE@Z 10021db0 f i NpParticleFluid.obj
 0001:00020e70       ?setParticleBaseFlag@?$NpParticleBaseTemplate@VPxParticleFluid@physx@@VNpParticleFluid@2@@physx@@UAEXW4Enum@PxParticleBaseFlag@2@_N@Z 10021e70 f i NpParticleFluid.obj
 0001:00020f70       ?setParticleMass@?$NpParticleBaseTemplate@VPxParticleFluid@physx@@VNpParticleFluid@2@@physx@@UAEXM@Z 10021f70 f i NpParticleFluid.obj
 0001:00021010       ?setParticleMass@ParticleSystem@Scb@physx@@QAEXM@Z 10022010 f i NpParticleFluid.obj
 0001:000210e0       ?setParticleReadDataFlag@?$NpParticleBaseTemplate@VPxParticleFluid@physx@@VNpParticleFluid@2@@physx@@UAEXW4Enum@PxParticleReadDataFlag@2@_N@Z 100220e0 f i NpParticleFluid.obj
 0001:00021250       ?setParticleReadDataFlags@ParticleSystem@Scb@physx@@QAEXV?$PxFlags@W4Enum@PxParticleReadDataFlag@physx@@G@3@@Z 10022250 f i NpParticleFluid.obj
 0001:000212e0       ?setPositions@?$NpParticleBaseTemplate@VPxParticleFluid@physx@@VNpParticleFluid@2@@physx@@UAEXIABV?$PxStrideIterator@$$CBI@2@ABV?$PxStrideIterator@$$CBVPxVec3@physx@@@2@@Z 100222e0 f i NpParticleFluid.obj
 0001:00021420       ?setProjectionPlane@?$NpParticleBaseTemplate@VPxParticleFluid@physx@@VNpParticleFluid@2@@physx@@UAEXABVPxVec3@2@M@Z 10022420 f i NpParticleFluid.obj
 0001:00021510       ?setProjectionPlane@ParticleSystem@Scb@physx@@QAEXABVPxPlane@3@@Z 10022510 f i NpParticleFluid.obj
 0001:000215f0       ?setRestOffset@?$NpParticleBaseTemplate@VPxParticleFluid@physx@@VNpParticleFluid@2@@physx@@UAEXM@Z 100225f0 f i NpParticleFluid.obj
 0001:00021790       ?setRestOffset@ParticleSystem@Scb@physx@@QAEXM@Z 10022790 f i NpParticleFluid.obj
 0001:00021820       ?setRestOffsets@?$NpParticleBaseTemplate@VPxParticleFluid@physx@@VNpParticleFluid@2@@physx@@UAEXIABV?$PxStrideIterator@$$CBI@2@ABV?$PxStrideIterator@$$CBM@2@@Z 10022820 f i NpParticleFluid.obj
 0001:000219f0       ?setRestParticleDistance@ParticleSystem@Scb@physx@@QAEXM@Z 100229f0 f i NpParticleFluid.obj
 0001:00021a80       ?setRestitution@?$NpParticleBaseTemplate@VPxParticleFluid@physx@@VNpParticleFluid@2@@physx@@UAEXM@Z 10022a80 f i NpParticleFluid.obj
 0001:00021b30       ?setRestitution@ParticleSystem@Scb@physx@@QAEXM@Z 10022b30 f i NpParticleFluid.obj
 0001:00021c00       ?setSimulationFilterData@?$NpParticleBaseTemplate@VPxParticleFluid@physx@@VNpParticleFluid@2@@physx@@UAEXABUPxFilterData@2@@Z 10022c00 f i NpParticleFluid.obj
 0001:00021c50       ?setSimulationFilterData@ParticleSystem@Scb@physx@@QAEXABUPxFilterData@3@@Z 10022c50 f i NpParticleFluid.obj
 0001:00021d10       ?setStaticFriction@?$NpParticleBaseTemplate@VPxParticleFluid@physx@@VNpParticleFluid@2@@physx@@UAEXM@Z 10022d10 f i NpParticleFluid.obj
 0001:00021db0       ?setStaticFriction@ParticleSystem@Scb@physx@@QAEXM@Z 10022db0 f i NpParticleFluid.obj
 0001:00021e80       ?setStiffness@ParticleSystem@Scb@physx@@QAEXM@Z 10022e80 f i NpParticleFluid.obj
 0001:00021f50       ?setVelocities@?$NpParticleBaseTemplate@VPxParticleFluid@physx@@VNpParticleFluid@2@@physx@@UAEXIABV?$PxStrideIterator@$$CBI@2@ABV?$PxStrideIterator@$$CBVPxVec3@physx@@@2@@Z 10022f50 f i NpParticleFluid.obj
 0001:00022090       ?setViscosity@ParticleSystem@Scb@physx@@QAEXM@Z 10023090 f i NpParticleFluid.obj
 0001:00022160       ?unlock@NpParticleFluidReadData@physx@@UAEXXZ 10023160 f i NpParticleFluid.obj
 0001:00022170       ?createObject@NpParticleSystem@physx@@SAPAV12@AAPAEAAVPxDeserializationContext@2@@Z 10023170 f   NpParticleSystem.obj
 0001:000221c0       ??0NpParticleSystem@physx@@QAE@I_N@Z 100231c0 f   NpParticleSystem.obj
 0001:00022220       ??1NpParticleSystem@physx@@UAE@XZ 10023220 f   NpParticleSystem.obj
 0001:00022250       ?setParticleReadDataFlag@NpParticleSystem@physx@@UAEXW4Enum@PxParticleReadDataFlag@2@_N@Z 10023250 f   NpParticleSystem.obj
 0001:00022320       ??0?$NpActorTemplate@VPxParticleSystem@physx@@@physx@@QAE@GV?$PxFlags@W4Enum@PxBaseFlag@physx@@G@1@PBDPAX@Z 10023320 f i NpParticleSystem.obj
 0001:00022380       ??0?$NpParticleBaseTemplate@VPxParticleSystem@physx@@VNpParticleSystem@2@@physx@@QAE@GV?$PxFlags@W4Enum@PxBaseFlag@physx@@G@1@ABW4Enum@PxActorType@1@I_N@Z 10023380 f i NpParticleSystem.obj
 0001:000223f0       ??0?$NpParticleBaseTemplate@VPxParticleSystem@physx@@VNpParticleSystem@2@@physx@@QAE@V?$PxFlags@W4Enum@PxBaseFlag@physx@@G@1@@Z 100233f0 f i NpParticleSystem.obj
 0001:00022490       ??1?$NpActorTemplate@VPxParticleSystem@physx@@@physx@@UAE@XZ 10023490 f i NpParticleSystem.obj
 0001:000224c0       ??1?$NpParticleBaseTemplate@VPxParticleSystem@physx@@VNpParticleSystem@2@@physx@@UAE@XZ 100234c0 f i NpParticleSystem.obj
 0001:00022500       ??1PxParticleSystem@physx@@MAE@XZ 10023500 f i NpParticleSystem.obj
 0001:00022510       ??_G?$NpActorTemplate@VPxParticleSystem@physx@@@physx@@UAEPAXI@Z 10023510 f i NpParticleSystem.obj
 0001:00022510       ??_E?$NpActorTemplate@VPxParticleSystem@physx@@@physx@@UAEPAXI@Z 10023510 f i NpParticleSystem.obj
 0001:00022580       ??_G?$NpParticleBaseTemplate@VPxParticleSystem@physx@@VNpParticleSystem@2@@physx@@UAEPAXI@Z 10023580 f i NpParticleSystem.obj
 0001:00022580       ??_E?$NpParticleBaseTemplate@VPxParticleSystem@physx@@VNpParticleSystem@2@@physx@@UAEPAXI@Z 10023580 f i NpParticleSystem.obj
 0001:00022600       ??_GNpParticleSystem@physx@@UAEPAXI@Z 10023600 f i NpParticleSystem.obj
 0001:00022600       ??_ENpParticleSystem@physx@@UAEPAXI@Z 10023600 f i NpParticleSystem.obj
 0001:00022680       ??_GPxParticleSystem@physx@@MAEPAXI@Z 10023680 f i NpParticleSystem.obj
 0001:00022680       ??_EPxParticleSystem@physx@@MAEPAXI@Z 10023680 f i NpParticleSystem.obj
 0001:000226b0       ?addForces@?$NpParticleBaseTemplate@VPxParticleSystem@physx@@VNpParticleSystem@2@@physx@@UAEXIABV?$PxStrideIterator@$$CBI@2@ABV?$PxStrideIterator@$$CBVPxVec3@physx@@@2@W4Enum@PxForceMode@2@@Z 100236b0 f i NpParticleSystem.obj
 0001:00022840       ?checkAllocatedIndices@?$NpParticleBaseTemplate@VPxParticleSystem@physx@@VNpParticleSystem@2@@physx@@AAE_NIABV?$PxStrideIterator@$$CBI@2@@Z 10023840 f i NpParticleSystem.obj
 0001:00022980       ?checkFreeIndices@?$NpParticleBaseTemplate@VPxParticleSystem@physx@@VNpParticleSystem@2@@physx@@AAE_NIABV?$PxStrideIterator@$$CBI@2@@Z 10023980 f i NpParticleSystem.obj
 0001:00022cd0       ?createParticles@?$NpParticleBaseTemplate@VPxParticleSystem@physx@@VNpParticleSystem@2@@physx@@UAE_NABVPxParticleCreationData@2@@Z 10023cd0 f i NpParticleSystem.obj
 0001:00023100       ?exportExtraData@?$NpActorTemplate@VPxParticleSystem@physx@@@physx@@UAEXAAVPxSerializationContext@2@@Z 10024100 f i NpParticleSystem.obj
 0001:00023110       ?exportExtraData@NpParticleSystem@physx@@UAEXAAVPxSerializationContext@2@@Z 10024110 f i NpParticleSystem.obj
 0001:00023120       ?getActorFlags@?$NpActorTemplate@VPxParticleSystem@physx@@@physx@@UBE?AV?$PxFlags@W4Enum@PxActorFlag@physx@@G@2@XZ 10024120 f i NpParticleSystem.obj
 0001:000231a0       ?getAggregate@?$NpActorTemplate@VPxParticleSystem@physx@@@physx@@UBEPAVPxAggregate@2@XZ 100241a0 f i NpParticleSystem.obj
 0001:000231b0       ?getClientBehaviorFlags@?$NpActorTemplate@VPxParticleSystem@physx@@@physx@@UBE?AV?$PxFlags@W4Enum@PxActorClientBehaviorFlag@physx@@E@2@XZ 100241b0 f i NpParticleSystem.obj
 0001:00023230       ?getConcreteTypeName@PxParticleSystem@physx@@UBEPBDXZ 10024230 f i NpParticleSystem.obj
 0001:00023240       ?getContactOffset@?$NpParticleBaseTemplate@VPxParticleSystem@physx@@VNpParticleSystem@2@@physx@@UBEMXZ 10024240 f i NpParticleSystem.obj
 0001:00023290       ?getDamping@?$NpParticleBaseTemplate@VPxParticleSystem@physx@@VNpParticleSystem@2@@physx@@UBEMXZ 10024290 f i NpParticleSystem.obj
 0001:00023310       ?getDominanceGroup@?$NpActorTemplate@VPxParticleSystem@physx@@@physx@@UBEEXZ 10024310 f i NpParticleSystem.obj
 0001:000233a0       ?getDynamicFriction@?$NpParticleBaseTemplate@VPxParticleSystem@physx@@VNpParticleSystem@2@@physx@@UBEMXZ 100243a0 f i NpParticleSystem.obj
 0001:00023420       ?getExternalAcceleration@?$NpParticleBaseTemplate@VPxParticleSystem@physx@@VNpParticleSystem@2@@physx@@UBE?AVPxVec3@2@XZ 10024420 f i NpParticleSystem.obj
 0001:000234a0       ?getGridSize@?$NpParticleBaseTemplate@VPxParticleSystem@physx@@VNpParticleSystem@2@@physx@@UBEMXZ 100244a0 f i NpParticleSystem.obj
 0001:000234f0       ?getMaxMotionDistance@?$NpParticleBaseTemplate@VPxParticleSystem@physx@@VNpParticleSystem@2@@physx@@UBEMXZ 100244f0 f i NpParticleSystem.obj
 0001:00023540       ?getMaxParticles@?$NpParticleBaseTemplate@VPxParticleSystem@physx@@VNpParticleSystem@2@@physx@@UBEIXZ 10024540 f i NpParticleSystem.obj
 0001:00023590       ?getName@?$NpActorTemplate@VPxParticleSystem@physx@@@physx@@UBEPBDXZ 10024590 f i NpParticleSystem.obj
 0001:000235d0       ?getOwnerClient@?$NpActorTemplate@VPxParticleSystem@physx@@@physx@@UBEEXZ 100245d0 f i NpParticleSystem.obj
 0001:00023600       ?getParticleBaseFlags@?$NpParticleBaseTemplate@VPxParticleSystem@physx@@VNpParticleSystem@2@@physx@@UBE?AV?$PxFlags@W4Enum@PxParticleBaseFlag@physx@@G@2@XZ 10024600 f i NpParticleSystem.obj
 0001:00023670       ?getParticleMass@?$NpParticleBaseTemplate@VPxParticleSystem@physx@@VNpParticleSystem@2@@physx@@UBEMXZ 10024670 f i NpParticleSystem.obj
 0001:000236f0       ?getParticleReadDataFlags@?$NpParticleBaseTemplate@VPxParticleSystem@physx@@VNpParticleSystem@2@@physx@@UBE?AV?$PxFlags@W4Enum@PxParticleReadDataFlag@physx@@G@2@XZ 100246f0 f i NpParticleSystem.obj
 0001:00023740       ?getProjectionPlane@?$NpParticleBaseTemplate@VPxParticleSystem@physx@@VNpParticleSystem@2@@physx@@UBEXAAVPxVec3@2@AAM@Z 10024740 f i NpParticleSystem.obj
 0001:000237d0       ?getRestOffset@?$NpParticleBaseTemplate@VPxParticleSystem@physx@@VNpParticleSystem@2@@physx@@UBEMXZ 100247d0 f i NpParticleSystem.obj
 0001:00023820       ?getRestitution@?$NpParticleBaseTemplate@VPxParticleSystem@physx@@VNpParticleSystem@2@@physx@@UBEMXZ 10024820 f i NpParticleSystem.obj
 0001:000238a0       ?getScene@?$NpActorTemplate@VPxParticleSystem@physx@@@physx@@UBEPAVPxScene@2@XZ 100248a0 f i NpParticleSystem.obj
 0001:000238b0       ?getSimulationFilterData@?$NpParticleBaseTemplate@VPxParticleSystem@physx@@VNpParticleSystem@2@@physx@@UBE?AUPxFilterData@2@XZ 100248b0 f i NpParticleSystem.obj
 0001:00023920       ?getStaticFriction@?$NpParticleBaseTemplate@VPxParticleSystem@physx@@VNpParticleSystem@2@@physx@@UBEMXZ 10024920 f i NpParticleSystem.obj
 0001:000239a0       ?getType@?$NpParticleBaseTemplate@VPxParticleSystem@physx@@VNpParticleSystem@2@@physx@@UBE?AW4Enum@PxActorType@2@XZ 100249a0 f i NpParticleSystem.obj
 0001:000239b0       ?getType@NpParticleSystem@physx@@UBE?AW4Enum@PxActorType@2@XZ 100249b0 f i NpParticleSystem.obj
 0001:000239c0       ?getWorldBounds@?$NpParticleBaseTemplate@VPxParticleSystem@physx@@VNpParticleSystem@2@@physx@@UBE?AVPxBounds3@2@M@Z 100249c0 f i NpParticleSystem.obj
 0001:00023b70       ?isKindOf@PxParticleSystem@physx@@MBE_NPBD@Z 10024b70 f i NpParticleSystem.obj
 0001:00023c20       ?lockParticleReadData@?$NpParticleBaseTemplate@VPxParticleSystem@physx@@VNpParticleSystem@2@@physx@@UAEPAVPxParticleReadData@2@V?$PxFlags@W4Enum@PxDataAccessFlag@physx@@E@2@@Z 10024c20 f i NpParticleSystem.obj
 0001:00023c80       ?lockParticleReadData@?$NpParticleBaseTemplate@VPxParticleSystem@physx@@VNpParticleSystem@2@@physx@@UAEPAVPxParticleReadData@2@XZ 10024c80 f i NpParticleSystem.obj
 0001:00023cd0       ?release@?$NpActorTemplate@VPxParticleSystem@physx@@@physx@@UAEXXZ 10024cd0 f i NpParticleSystem.obj
 0001:00023ce0       ?release@?$NpParticleBaseTemplate@VPxParticleSystem@physx@@VNpParticleSystem@2@@physx@@UAEXXZ 10024ce0 f i NpParticleSystem.obj
 0001:00023d80       ?releaseParticles@?$NpParticleBaseTemplate@VPxParticleSystem@physx@@VNpParticleSystem@2@@physx@@UAEXIABV?$PxStrideIterator@$$CBI@2@@Z 10024d80 f i NpParticleSystem.obj
 0001:00023e90       ?releaseParticles@?$NpParticleBaseTemplate@VPxParticleSystem@physx@@VNpParticleSystem@2@@physx@@UAEXXZ 10024e90 f i NpParticleSystem.obj
 0001:00023ee0       ?requires@NpParticleSystem@physx@@UAEXAAVPxProcessPxBaseCallback@2@@Z 10024ee0 f i NpParticleSystem.obj
 0001:00023ef0       ?resetFiltering@?$NpParticleBaseTemplate@VPxParticleSystem@physx@@VNpParticleSystem@2@@physx@@UAEXXZ 10024ef0 f i NpParticleSystem.obj
 0001:00023f40       ?resolveReferences@?$NpActorTemplate@VPxParticleSystem@physx@@@physx@@UAEXAAVPxDeserializationContext@2@@Z 10024f40 f i NpParticleSystem.obj
 0001:00023f50       ?setActorFlag@?$NpActorTemplate@VPxParticleSystem@physx@@@physx@@UAEXW4Enum@PxActorFlag@2@_N@Z 10024f50 f i NpParticleSystem.obj
 0001:00024020       ?setActorFlags@?$NpActorTemplate@VPxParticleSystem@physx@@@physx@@UAEXV?$PxFlags@W4Enum@PxActorFlag@physx@@G@2@@Z 10025020 f i NpParticleSystem.obj
 0001:00024080       ?setClientBehaviorFlags@?$NpActorTemplate@VPxParticleSystem@physx@@@physx@@UAEXV?$PxFlags@W4Enum@PxActorClientBehaviorFlag@physx@@E@2@@Z 10025080 f i NpParticleSystem.obj
 0001:000240e0       ?setContactOffset@?$NpParticleBaseTemplate@VPxParticleSystem@physx@@VNpParticleSystem@2@@physx@@UAEXM@Z 100250e0 f i NpParticleSystem.obj
 0001:000241e0       ?setDamping@?$NpParticleBaseTemplate@VPxParticleSystem@physx@@VNpParticleSystem@2@@physx@@UAEXM@Z 100251e0 f i NpParticleSystem.obj
 0001:00024280       ?setDominanceGroup@?$NpActorTemplate@VPxParticleSystem@physx@@@physx@@UAEXE@Z 10025280 f i NpParticleSystem.obj
 0001:000242e0       ?setDynamicFriction@?$NpParticleBaseTemplate@VPxParticleSystem@physx@@VNpParticleSystem@2@@physx@@UAEXM@Z 100252e0 f i NpParticleSystem.obj
 0001:00024390       ?setExternalAcceleration@?$NpParticleBaseTemplate@VPxParticleSystem@physx@@VNpParticleSystem@2@@physx@@UAEXABVPxVec3@2@@Z 10025390 f i NpParticleSystem.obj
 0001:000243e0       ?setGridSize@?$NpParticleBaseTemplate@VPxParticleSystem@physx@@VNpParticleSystem@2@@physx@@UAEXM@Z 100253e0 f i NpParticleSystem.obj
 0001:000244e0       ?setMaxMotionDistance@?$NpParticleBaseTemplate@VPxParticleSystem@physx@@VNpParticleSystem@2@@physx@@UAEXM@Z 100254e0 f i NpParticleSystem.obj
 0001:000245e0       ?setName@?$NpActorTemplate@VPxParticleSystem@physx@@@physx@@UAEXPBD@Z 100255e0 f i NpParticleSystem.obj
 0001:00024690       ?setOwnerClient@?$NpActorTemplate@VPxParticleSystem@physx@@@physx@@UAEXE@Z 10025690 f i NpParticleSystem.obj
 0001:00024700       ?setParticleBaseFlag@?$NpParticleBaseTemplate@VPxParticleSystem@physx@@VNpParticleSystem@2@@physx@@UAEXW4Enum@PxParticleBaseFlag@2@_N@Z 10025700 f i NpParticleSystem.obj
 0001:00024800       ?setParticleMass@?$NpParticleBaseTemplate@VPxParticleSystem@physx@@VNpParticleSystem@2@@physx@@UAEXM@Z 10025800 f i NpParticleSystem.obj
 0001:000248a0       ?setParticleReadDataFlag@?$NpParticleBaseTemplate@VPxParticleSystem@physx@@VNpParticleSystem@2@@physx@@UAEXW4Enum@PxParticleReadDataFlag@2@_N@Z 100258a0 f i NpParticleSystem.obj
 0001:00024a10       ?setPositions@?$NpParticleBaseTemplate@VPxParticleSystem@physx@@VNpParticleSystem@2@@physx@@UAEXIABV?$PxStrideIterator@$$CBI@2@ABV?$PxStrideIterator@$$CBVPxVec3@physx@@@2@@Z 10025a10 f i NpParticleSystem.obj
 0001:00024b50       ?setProjectionPlane@?$NpParticleBaseTemplate@VPxParticleSystem@physx@@VNpParticleSystem@2@@physx@@UAEXABVPxVec3@2@M@Z 10025b50 f i NpParticleSystem.obj
 0001:00024c40       ?setRestOffset@?$NpParticleBaseTemplate@VPxParticleSystem@physx@@VNpParticleSystem@2@@physx@@UAEXM@Z 10025c40 f i NpParticleSystem.obj
 0001:00024df0       ?setRestOffsets@?$NpParticleBaseTemplate@VPxParticleSystem@physx@@VNpParticleSystem@2@@physx@@UAEXIABV?$PxStrideIterator@$$CBI@2@ABV?$PxStrideIterator@$$CBM@2@@Z 10025df0 f i NpParticleSystem.obj
 0001:00024fc0       ?setRestitution@?$NpParticleBaseTemplate@VPxParticleSystem@physx@@VNpParticleSystem@2@@physx@@UAEXM@Z 10025fc0 f i NpParticleSystem.obj
 0001:00025070       ?setSimulationFilterData@?$NpParticleBaseTemplate@VPxParticleSystem@physx@@VNpParticleSystem@2@@physx@@UAEXABUPxFilterData@2@@Z 10026070 f i NpParticleSystem.obj
 0001:000250c0       ?setStaticFriction@?$NpParticleBaseTemplate@VPxParticleSystem@physx@@VNpParticleSystem@2@@physx@@UAEXM@Z 100260c0 f i NpParticleSystem.obj
 0001:00025160       ?setVelocities@?$NpParticleBaseTemplate@VPxParticleSystem@physx@@VNpParticleSystem@2@@physx@@UAEXIABV?$PxStrideIterator@$$CBI@2@ABV?$PxStrideIterator@$$CBVPxVec3@physx@@@2@@Z 10026160 f i NpParticleSystem.obj
 0001:000252a0       ??0Offsets@Actor@Scb@physx@@QAE@XZ 100262a0 f   ScbActor.obj
 0001:00025310       ?addActor@Aggregate@Scb@physx@@QAEXAAVActor@23@@Z 10026310 f   ScbAggregate.obj
 0001:000254a0       ?removeActor@Aggregate@Scb@physx@@QAEXAAVActor@23@_N@Z 100264a0 f   ScbAggregate.obj
 0001:00025770       ??$allocArrayBuffer@PAVActor@Scb@physx@@@Scene@Scb@physx@@AAEPAPAVActor@12@AAV?$Array@PAVActor@Scb@physx@@VNamedAllocator@shdfnd@3@@shdfnd@2@IAAI@Z 10026770 f i ScbAggregate.obj
 0001:000257b0       ?recreate@?$Array@PAVActor@Scb@physx@@VNamedAllocator@shdfnd@3@@shdfnd@physx@@IAEXI@Z 100267b0 f i ScbAggregate.obj
 0001:00025870       ?resize@?$Array@PAVActor@Scb@physx@@VNamedAllocator@shdfnd@3@@shdfnd@physx@@QAEXIABQAVActor@Scb@3@@Z 10026870 f i ScbAggregate.obj
 0001:000258d0       ?destroy@Base@Scb@physx@@QAEXXZ 100268d0 f   ScbBase.obj
 0001:00025910       ??0Cloth@Scb@physx@@QAE@ABVPxTransform@2@AAVClothFabricCore@Sc@2@PBUPxClothParticle@2@V?$PxFlags@W4Enum@PxClothFlag@physx@@G@2@@Z 10026910 f   ScbCloth.obj
 0001:00025960       ??1Cloth@Scb@physx@@QAE@XZ 10026960 f   ScbCloth.obj
 0001:00025970       ?syncState@Cloth@Scb@physx@@QAEXXZ 10026970 f   ScbCloth.obj
 0001:000259c0       ?syncState@Actor@Scb@physx@@IAEXXZ 100269c0 f i ScbCloth.obj
 0001:00025a40       ?getBinaryMetaData@Base@Scb@physx@@SAXAAVPxOutputStream@3@@Z 10026a40 f   ScbMetaData.obj
 0001:00025bb0       ?getBinaryMetaData@Shape@Scb@physx@@SAXAAVPxOutputStream@3@@Z 10026bb0 f   ScbMetaData.obj
 0001:00025c90       ?getBinaryMetaData@Actor@Scb@physx@@SAXAAVPxOutputStream@3@@Z 10026c90 f   ScbMetaData.obj
 0001:00025d30       ?getBinaryMetaData@RigidObject@Scb@physx@@SAXAAVPxOutputStream@3@@Z 10026d30 f   ScbMetaData.obj
 0001:00025dd0       ?getBinaryMetaData@Body@Scb@physx@@SAXAAVPxOutputStream@3@@Z 10026dd0 f   ScbMetaData.obj
 0001:00026050       ?getBinaryMetaData@RigidStatic@Scb@physx@@SAXAAVPxOutputStream@3@@Z 10027050 f   ScbMetaData.obj
 0001:00026130       ?getBinaryMetaData@Constraint@Scb@physx@@SAXAAVPxOutputStream@3@@Z 10027130 f   ScbMetaData.obj
 0001:000262e0       ?getBinaryMetaData@Articulation@Scb@physx@@SAXAAVPxOutputStream@3@@Z 100272e0 f   ScbMetaData.obj
 0001:00026450       ?getBinaryMetaData@ArticulationJoint@Scb@physx@@SAXAAVPxOutputStream@3@@Z 10027450 f   ScbMetaData.obj
 0001:00026530       ?getBinaryMetaData@Aggregate@Scb@physx@@SAXAAVPxOutputStream@3@@Z 10027530 f   ScbMetaData.obj
 0001:000266e0       ?getBinaryMetaData@Cloth@Scb@physx@@SAXAAVPxOutputStream@3@@Z 100276e0 f   ScbMetaData.obj
 0001:000267c0       ?getBinaryMetaData@ParticleSystem@Scb@physx@@SAXAAVPxOutputStream@3@@Z 100277c0 f   ScbMetaData.obj
 0001:00026e90       ?initialize@ForceUpdates@ParticleSystem@Scb@physx@@QAEXI@Z 10027e90 f   ScbParticleSystem.obj
 0001:00026f40       ?destroy@ForceUpdates@ParticleSystem@Scb@physx@@QAEXXZ 10027f40 f   ScbParticleSystem.obj
 0001:00026f90       ??0ParticleSystem@Scb@physx@@QAE@ABW4Enum@PxActorType@2@I_N@Z 10027f90 f   ScbParticleSystem.obj
 0001:00027020       ??1ParticleSystem@Scb@physx@@QAE@XZ 10028020 f   ScbParticleSystem.obj
 0001:00027050       ?createParticles@ParticleSystem@Scb@physx@@QAE_NABVPxParticleCreationData@3@@Z 10028050 f   ScbParticleSystem.obj
 0001:000270d0       ?releaseParticles@ParticleSystem@Scb@physx@@QAEXIABV?$PxStrideIterator@$$CBI@3@@Z 100280d0 f   ScbParticleSystem.obj
 0001:00027240       ?releaseParticles@ParticleSystem@Scb@physx@@QAEXXZ 10028240 f   ScbParticleSystem.obj
 0001:00027330       ?setPositions@ParticleSystem@Scb@physx@@QAEXIABV?$PxStrideIterator@$$CBI@3@ABV?$PxStrideIterator@$$CBVPxVec3@physx@@@3@@Z 10028330 f   ScbParticleSystem.obj
 0001:00027400       ?setVelocities@ParticleSystem@Scb@physx@@QAEXIABV?$PxStrideIterator@$$CBI@3@ABV?$PxStrideIterator@$$CBVPxVec3@physx@@@3@@Z 10028400 f   ScbParticleSystem.obj
 0001:000274d0       ?setRestOffsets@ParticleSystem@Scb@physx@@QAEXIABV?$PxStrideIterator@$$CBI@3@ABV?$PxStrideIterator@$$CBM@3@@Z 100284d0 f   ScbParticleSystem.obj
 0001:000275a0       ?addForces@ParticleSystem@Scb@physx@@QAEXIABV?$PxStrideIterator@$$CBI@3@ABV?$PxStrideIterator@$$CBVPxVec3@physx@@@3@W4Enum@PxForceMode@3@@Z 100285a0 f   ScbParticleSystem.obj
 0001:00027740       ?submitForceUpdates@ParticleSystem@Scb@physx@@QAEXM@Z 10028740 f   ScbParticleSystem.obj
 0001:00027840       ?syncState@ParticleSystem@Scb@physx@@QAEXXZ 10028840 f   ScbParticleSystem.obj
 0001:00027d00       ??0UserBufferLock@ParticleSystem@Scb@physx@@QAE@PAVNpParticleFluidReadData@3@PBD@Z 10028d00 f i ScbParticleSystem.obj
 0001:00027d80       ?add@ForceUpdates@ParticleSystem@Scb@physx@@QAEXIABVPxVec3@4@@Z 10028d80 f i ScbParticleSystem.obj
 0001:00027e60       ?clear@?$BitMapBase@VAllocator@shdfnd@physx@@@Cm@physx@@QAEXI@Z 10028e60 f i ScbParticleSystem.obj
 0001:00027ef0       ?scheduleForInsert@ObjectTracker@Scb@physx@@QAEXAAVBase@23@@Z 10028ef0 f   ScbScene.obj
 0001:00027f70       ?scheduleForRemove@ObjectTracker@Scb@physx@@QAEXAAVBase@23@@Z 10028f70 f   ScbScene.obj
 0001:00027fe0       ?scheduleForUpdate@ObjectTracker@Scb@physx@@QAEXAAVBase@23@@Z 10028fe0 f   ScbScene.obj
 0001:00028030       ?clear@ObjectTracker@Scb@physx@@QAEXXZ 10029030 f   ScbScene.obj
 0001:000280a0       ?insert@ObjectTracker@Scb@physx@@QAEXAAVBase@23@@Z 100290a0 f   ScbScene.obj
 0001:000280d0       ?remove@ObjectTracker@Scb@physx@@QAEXAAVBase@23@@Z 100290d0 f   ScbScene.obj
 0001:000280f0       ??0Scene@Scb@physx@@QAE@ABVPxSceneDesc@2@VEventProfiler@Cm@2@@Z 100290f0 f   ScbScene.obj
 0001:00028580       ?release@Scene@Scb@physx@@QAEXXZ 10029580 f   ScbScene.obj
 0001:000285e0       ?getPxScene@Scene@Scb@physx@@QAEPAVPxScene@3@XZ 100295e0 f   ScbScene.obj
 0001:000285f0       ?addRigidStatic@Scene@Scb@physx@@QAEXAAVRigidStatic@23@_N@Z 100295f0 f   ScbScene.obj
 0001:00028820       ?removeRigidStatic@Scene@Scb@physx@@QAEXAAVRigidStatic@23@_N1@Z 10029820 f   ScbScene.obj
 0001:00028a70       ?addRigidBody@Scene@Scb@physx@@QAEXAAVBody@23@_N@Z 10029a70 f   ScbScene.obj
 0001:00028dd0       ?removeRigidBody@Scene@Scb@physx@@QAEXAAVBody@23@_N1@Z 10029dd0 f   ScbScene.obj
 0001:00029110       ?addConstraint@Scene@Scb@physx@@QAEXAAVConstraint@23@@Z 1002a110 f   ScbScene.obj
 0001:00029130       ?removeConstraint@Scene@Scb@physx@@QAEXAAVConstraint@23@@Z 1002a130 f   ScbScene.obj
 0001:00029250       ?addArticulation@Scene@Scb@physx@@QAEXAAVArticulation@23@@Z 1002a250 f   ScbScene.obj
 0001:00029290       ?removeArticulation@Scene@Scb@physx@@QAEXAAVArticulation@23@@Z 1002a290 f   ScbScene.obj
 0001:00029310       ?addArticulationJoint@Scene@Scb@physx@@QAEXAAVArticulationJoint@23@@Z 1002a310 f   ScbScene.obj
 0001:00029330       ?removeArticulationJoint@Scene@Scb@physx@@QAEXAAVArticulationJoint@23@@Z 1002a330 f   ScbScene.obj
 0001:00029380       ?addAggregate@Scene@Scb@physx@@QAEXAAVAggregate@23@@Z 1002a380 f   ScbScene.obj
 0001:000293e0       ?removeAggregate@Scene@Scb@physx@@QAEXAAVAggregate@23@@Z 1002a3e0 f   ScbScene.obj
 0001:00029430       ?addParticleSystem@Scene@Scb@physx@@QAEXAAVParticleSystem@23@@Z 1002a430 f   ScbScene.obj
 0001:000294a0       ?removeParticleSystem@Scene@Scb@physx@@QAEXAAVParticleSystem@23@_N@Z 1002a4a0 f   ScbScene.obj
 0001:000295d0       ?addCloth@Scene@Scb@physx@@QAEXAAVCloth@23@@Z 1002a5d0 f   ScbScene.obj
 0001:00029720       ?removeCloth@Scene@Scb@physx@@QAEXAAVCloth@23@@Z 1002a720 f   ScbScene.obj
 0001:00029830       ?addMaterial@Scene@Scb@physx@@QAE_NAAVMaterialCore@Sc@3@@Z 1002a830 f   ScbScene.obj
 0001:00029960       ?updateMaterial@Scene@Scb@physx@@QAEXAAVMaterialCore@Sc@3@@Z 1002a960 f   ScbScene.obj
 0001:00029a90       ?removeMaterial@Scene@Scb@physx@@QAEXAAVMaterialCore@Sc@3@@Z 1002aa90 f   ScbScene.obj
 0001:00029bd0       ?updateLowLevelMaterial@Scene@Scb@physx@@QAEXPAPAVNpMaterial@3@@Z 1002abd0 f   ScbScene.obj
 0001:00029d20       ?getBroadPhaseType@Scene@Scb@physx@@QBE?AW4Enum@PxBroadPhaseType@3@XZ 1002ad20 f   ScbScene.obj
 0001:00029d30       ?getBroadPhaseCaps@Scene@Scb@physx@@QBE_NAAUPxBroadPhaseCaps@3@@Z 1002ad30 f   ScbScene.obj
 0001:00029d40       ?getNbBroadPhaseRegions@Scene@Scb@physx@@QBEIXZ 1002ad40 f   ScbScene.obj
 0001:00029d50       ?getBroadPhaseRegions@Scene@Scb@physx@@QBEIPAUPxBroadPhaseRegionInfo@3@II@Z 1002ad50 f   ScbScene.obj
 0001:00029d60       ?addBroadPhaseRegion@Scene@Scb@physx@@QAEIABUPxBroadPhaseRegion@3@_N@Z 1002ad60 f   ScbScene.obj
 0001:00029da0       ?removeBroadPhaseRegion@Scene@Scb@physx@@QAE_NI@Z 1002ada0 f   ScbScene.obj
 0001:00029de0       ?addStaticAndShapesToPvd@Scene@Scb@physx@@QAEXAAVRigidStatic@23@@Z 1002ade0 f   ScbScene.obj
 0001:00029f00       ?addBodyAndShapesToPvd@Scene@Scb@physx@@QAEXAAVBody@23@@Z 1002af00 f   ScbScene.obj
 0001:0002a020       ?addShapeToPvd@Scene@Scb@physx@@QAEXAAVShape@23@AAVPxActor@3@@Z 1002b020 f   ScbScene.obj
 0001:0002a100       ?removeShapeFromPvd@Scene@Scb@physx@@QAEXAAVShape@23@AAVPxActor@3@@Z 1002b100 f   ScbScene.obj
 0001:0002a1e0       ?addAggregateToPvd@Scene@Scb@physx@@QAEXAAVAggregate@23@@Z 1002b1e0 f   ScbScene.obj
 0001:0002a2b0       ?removeAggregateFromPvd@Scene@Scb@physx@@QAEXAAVAggregate@23@@Z 1002b2b0 f   ScbScene.obj
 0001:0002a380       ?shiftOrigin@Scene@Scb@physx@@QAEXABVPxVec3@3@@Z 1002b380 f   ScbScene.obj
 0001:0002a470       ?syncEntireScene@Scene@Scb@physx@@QAEXPAI@Z 1002b470 f   ScbScene.obj
 0001:0002abb0       ?processPendingRemove@Scene@Scb@physx@@QAEXXZ 1002bbb0 f   ScbScene.obj
 0001:0002ae90       ?bufferCreationError@Scene@Scb@physx@@SAXPBD@Z 1002be90 f   ScbScene.obj
 0001:0002aec0       ?scheduleForUpdate@Scene@Scb@physx@@QAEXAAVBase@23@@Z 1002bec0 f   ScbScene.obj
 0001:0002afa0       ?getStream@Scene@Scb@physx@@QAEPAEW4Enum@ScbType@3@@Z 1002bfa0 f   ScbScene.obj
 0001:0002b120       ?syncState@Scene@Scb@physx@@AAEXXZ 1002c120 f   ScbScene.obj
 0001:0002b2c0       ?preSimulateUpdateAppThread@Scene@Scb@physx@@QAEXM@Z 1002c2c0 f   ScbScene.obj
 0001:0002b310       ?switchRigidToNoSim@Scene@Scb@physx@@QAEXAAVRigidObject@23@_N@Z 1002c310 f   ScbScene.obj
 0001:0002b400       ?switchRigidFromNoSim@Scene@Scb@physx@@QAEXAAVRigidObject@23@_N@Z 1002c400 f   ScbScene.obj
 0001:0002b4c0       ?isUpdatingPvd@Scene@Scb@physx@@AAE_NXZ 1002c4c0 f   ScbScene.obj
 0001:0002b4d0       ?getPvd@Scene@Scb@physx@@AAEPAVSceneVisualDebugger@Pvd@3@XZ 1002c4d0 f   ScbScene.obj
 0001:0002c270       ??$add@VArticulation@Scb@physx@@$00@Scene@Scb@physx@@AAEXAAVArticulation@12@AAVObjectTracker@12@@Z 1002d270 f i ScbScene.obj
 0001:0002c300       ??$add@VArticulationJoint@Scb@physx@@$0A@@Scene@Scb@physx@@AAEXAAVArticulationJoint@12@AAVObjectTracker@12@@Z 1002d300 f i ScbScene.obj
 0001:0002c390       ??$add@VBody@Scb@physx@@$00@Scene@Scb@physx@@AAEXAAVBody@12@AAVObjectTracker@12@@Z 1002d390 f i ScbScene.obj
 0001:0002c930       ??$add@VConstraint@Scb@physx@@$00@Scene@Scb@physx@@AAEXAAVConstraint@12@AAVObjectTracker@12@@Z 1002d930 f i ScbScene.obj
 0001:0002ca10       ??$add@VParticleSystem@Scb@physx@@$00@Scene@Scb@physx@@AAEXAAVParticleSystem@12@AAVObjectTracker@12@@Z 1002da10 f i ScbScene.obj
 0001:0002ca90       ??$add@VRigidStatic@Scb@physx@@$00@Scene@Scb@physx@@AAEXAAVRigidStatic@12@AAVObjectTracker@12@@Z 1002da90 f i ScbScene.obj
 0001:0002d030       ??$addRigidNoSim@VBody@Scb@physx@@$00$00@Scene@Scb@physx@@AAEXAAVBody@12@AAVObjectTracker@12@@Z 1002e030 f i ScbScene.obj
 0001:0002d4f0       ??$addRigidNoSim@VRigidStatic@Scb@physx@@$0A@$00@Scene@Scb@physx@@AAEXAAVRigidStatic@12@AAVObjectTracker@12@@Z 1002e4f0 f i ScbScene.obj
 0001:0002d9b0       ??$copy@V?$InlineAllocator@$0BAA@VNamedAllocator@shdfnd@physx@@@shdfnd@physx@@@?$Array@PBVShapeCore@Sc@physx@@V?$InlineAllocator@$0BAA@VNamedAllocator@shdfnd@physx@@@shdfnd@3@@shdfnd@physx@@IAEXABV012@@Z 1002e9b0 f i ScbScene.obj
 0001:0002da50       ??$partition@PAX$$CBU?$Less@PAX@shdfnd@physx@@@internal@shdfnd@physx@@YAHPAPAXHHABU?$Less@PAX@12@@Z 1002ea50 f i ScbScene.obj
 0001:0002db00       ??$pointerOffset@PAVShape@Scb@physx@@@shdfnd@physx@@YAPAVShape@Scb@1@PAXH@Z 1002eb00 f i ScbScene.obj
 0001:0002db10       ??$processRemoves@VArticulation@Scb@physx@@$00$0A@$00@Scene@Scb@physx@@AAEXAAVObjectTracker@12@@Z 1002eb10 f i ScbScene.obj
 0001:0002dbd0       ??$processRemoves@VArticulationJoint@Scb@physx@@$0A@$0A@$0A@@Scene@Scb@physx@@AAEXAAVObjectTracker@12@@Z 1002ebd0 f i ScbScene.obj
 0001:0002dc40       ??$processRemoves@VBody@Scb@physx@@$00$00$00@Scene@Scb@physx@@AAEXAAVObjectTracker@12@@Z 1002ec40 f i ScbScene.obj
 0001:0002e350       ??$processRemoves@VCloth@Scb@physx@@$0A@$0A@$00@Scene@Scb@physx@@AAEXAAVObjectTracker@12@@Z 1002f350 f i ScbScene.obj
 0001:0002e3f0       ??$processRemoves@VConstraint@Scb@physx@@$00$0A@$0A@@Scene@Scb@physx@@AAEXAAVObjectTracker@12@@Z 1002f3f0 f i ScbScene.obj
 0001:0002e480       ??$processRemoves@VParticleSystem@Scb@physx@@$0A@$0A@$00@Scene@Scb@physx@@AAEXAAVObjectTracker@12@@Z 1002f480 f i ScbScene.obj
 0001:0002e520       ??$processRemoves@VRigidStatic@Scb@physx@@$0A@$00$00@Scene@Scb@physx@@AAEXAAVObjectTracker@12@@Z 1002f520 f i ScbScene.obj
 0001:0002ec10       ??$processShapeRemoves@VBody@Scb@physx@@@Scene@Scb@physx@@AAEXAAVObjectTracker@12@@Z 1002fc10 f i ScbScene.obj
 0001:0002ee10       ??$processShapeRemoves@VRigidStatic@Scb@physx@@@Scene@Scb@physx@@AAEXAAVObjectTracker@12@@Z 1002fe10 f i ScbScene.obj
 0001:0002f010       ??$processSimUpdates@VArticulation@Scb@physx@@VArticulationCore@Sc@3@$00@Scene@Scb@physx@@AAEXPBQAVArticulationCore@Sc@2@I_N@Z 10030010 f i ScbScene.obj
 0001:0002f0a0       ??$processSimUpdates@VBody@Scb@physx@@VBodyCore@Sc@3@$00@Scene@Scb@physx@@AAEXPBQAVBodyCore@Sc@2@I_N@Z 100300a0 f i ScbScene.obj
 0001:0002f120       ??$processSimUpdates@VConstraint@Scb@physx@@VConstraintCore@Sc@3@$00@Scene@Scb@physx@@AAEXPBQAVConstraintCore@Sc@2@I_N@Z 10030120 f i ScbScene.obj
 0001:0002f1b0       ??$processUserUpdates@VArticulation@Scb@physx@@$00$00@Scene@Scb@physx@@AAEXAAVObjectTracker@12@_N@Z 100301b0 f i ScbScene.obj
 0001:0002f2a0       ??$processUserUpdates@VArticulationJoint@Scb@physx@@$0A@$00@Scene@Scb@physx@@AAEXAAVObjectTracker@12@_N@Z 100302a0 f i ScbScene.obj
 0001:0002f390       ??$processUserUpdates@VBody@Scb@physx@@$00$00@Scene@Scb@physx@@AAEXAAVObjectTracker@12@_N@Z 10030390 f i ScbScene.obj
 0001:0002f990       ??$processUserUpdates@VConstraint@Scb@physx@@$00$00@Scene@Scb@physx@@AAEXAAVObjectTracker@12@_N@Z 10030990 f i ScbScene.obj
 0001:0002fad0       ??$processUserUpdates@VRigidStatic@Scb@physx@@$00$00@Scene@Scb@physx@@AAEXAAVObjectTracker@12@_N@Z 10030ad0 f i ScbScene.obj
 0001:000300d0       ??$remove@VArticulation@Scb@physx@@$00@Scene@Scb@physx@@AAEXAAVArticulation@12@AAVObjectTracker@12@_N@Z 100310d0 f i ScbScene.obj
 0001:00030150       ??$remove@VArticulationJoint@Scb@physx@@$0A@@Scene@Scb@physx@@AAEXAAVArticulationJoint@12@AAVObjectTracker@12@_N@Z 10031150 f i ScbScene.obj
 0001:000301b0       ??$remove@VBody@Scb@physx@@$00@Scene@Scb@physx@@AAEXAAVBody@12@AAVObjectTracker@12@_N@Z 100311b0 f i ScbScene.obj
 0001:00030840       ??$remove@VRigidStatic@Scb@physx@@$00@Scene@Scb@physx@@AAEXAAVRigidStatic@12@AAVObjectTracker@12@_N@Z 10031840 f i ScbScene.obj
 0001:00030e60       ??$removeRigidNoSim@VBody@Scb@physx@@$00$00@Scene@Scb@physx@@AAEXAAVBody@12@AAVObjectTracker@12@@Z 10031e60 f i ScbScene.obj
 0001:00031420       ??$removeRigidNoSim@VRigidStatic@Scb@physx@@$0A@$00@Scene@Scb@physx@@AAEXAAVRigidStatic@12@AAVObjectTracker@12@@Z 10032420 f i ScbScene.obj
 0001:000319e0       ??$smallSort@PAX$$CBU?$Less@PAX@shdfnd@physx@@@internal@shdfnd@physx@@YAXPAPAXHHABU?$Less@PAX@12@@Z 100329e0 f i ScbScene.obj
 0001:00031a80       ??$sort@PAXU?$Less@PAX@shdfnd@physx@@VNamedAllocator@23@@shdfnd@physx@@YAXPAPAXIABU?$Less@PAX@01@ABVNamedAllocator@01@I@Z 10032a80 f i ScbScene.obj
 0001:00031d10       ??0?$InlineArray@PAVShape@Scb@physx@@$03VNamedAllocator@shdfnd@3@@shdfnd@physx@@QAE@ABVNamedAllocator@12@@Z 10032d10 f i ScbScene.obj
 0001:00031dc0       ??0?$InlineArray@PBVShapeCore@Sc@physx@@$0EA@VNamedAllocator@shdfnd@3@@shdfnd@physx@@QAE@ABV012@@Z 10032dc0 f i ScbScene.obj
 0001:00031e40       ??0?$InlineArray@PBVShapeCore@Sc@physx@@$0EA@VNamedAllocator@shdfnd@3@@shdfnd@physx@@QAE@ABVNamedAllocator@12@@Z 10032e40 f i ScbScene.obj
 0001:00031f30       ??0?$InlineArray@URemovedShape@Scb@physx@@$03VNamedAllocator@shdfnd@3@@shdfnd@physx@@QAE@ABVNamedAllocator@12@@Z 10032f30 f i ScbScene.obj
 0001:00031ff0       ??0?$MutexT@V?$ReflectionAllocator@VMutexImpl@shdfnd@physx@@@shdfnd@physx@@@shdfnd@physx@@QAE@ABV?$ReflectionAllocator@VMutexImpl@shdfnd@physx@@@12@@Z 10032ff0 f i ScbScene.obj
 0001:00032080       ??0?$Range@QAVActor@Sc@physx@@@Cm@physx@@QAE@XZ 10033080 f i ScbScene.obj
 0001:000320a0       ??0AggregateBuffer@Scb@physx@@QAE@XZ 100330a0 f i ScbScene.obj
 0001:000320d0       ??0BodyBuffer@Scb@physx@@QAE@XZ 100330d0 f i ScbScene.obj
 0001:000321f0       ??0FlushPool@Cm@physx@@QAE@I@Z 100331f0 f i ScbScene.obj
 0001:000322d0       ??0PxTransform@physx@@QAE@XZ 100332d0 f i ScbScene.obj
 0001:000322e0       ??0RigidStaticBuffer@Scb@physx@@QAE@XZ 100332e0 f i ScbScene.obj
 0001:00032360       ??0SceneBuffer@Scb@physx@@QAE@XZ 10033360 f i ScbScene.obj
 0001:00032450       ??0ShapeBuffer@Scb@physx@@QAE@XZ 10033450 f i ScbScene.obj
 0001:000324a0       ??1PxBaseTask@physx@@UAE@XZ 100334a0 f i ScbScene.obj
 0001:000324b0       ??1PxLightCpuTask@physx@@UAE@XZ 100334b0 f i ScbScene.obj
 0001:000324d0       ??_GPxBaseTask@physx@@UAEPAXI@Z 100334d0 f i ScbScene.obj
 0001:000324d0       ??_EPxBaseTask@physx@@UAEPAXI@Z 100334d0 f i ScbScene.obj
 0001:00032500       ?allocate@?$Array@PBVShapeCore@Sc@physx@@V?$InlineAllocator@$0BAA@VNamedAllocator@shdfnd@physx@@@shdfnd@3@@shdfnd@physx@@IAEPAPBVShapeCore@Sc@3@I@Z 10033500 f i ScbScene.obj
 0001:00032590       ?allocateNotThreadSafe@FlushPool@Cm@physx@@QAEPAXII@Z 10033590 f i ScbScene.obj
 0001:00032690       ?clear@?$HashBase@PAVBase@Scb@physx@@PAV123@U?$Hash@PAVBase@Scb@physx@@@shdfnd@3@UGetKey@?$HashSetBase@PAVBase@Scb@physx@@U?$Hash@PAVBase@Scb@physx@@@shdfnd@3@VAllocator@53@$00@internal@53@VAllocator@53@$00@internal@shdfnd@physx@@QAEXXZ 10033690 f i ScbScene.obj
 0001:00032710       ?clearNotThreadSafe@FlushPool@Cm@physx@@QAEXI@Z 10033710 f i ScbScene.obj
 0001:00032780       ?create@?$HashBase@PAVBase@Scb@physx@@PAV123@U?$Hash@PAVBase@Scb@physx@@@shdfnd@3@UGetKey@?$HashSetBase@PAVBase@Scb@physx@@U?$Hash@PAVBase@Scb@physx@@@shdfnd@3@VAllocator@53@$00@internal@53@VAllocator@53@$00@internal@shdfnd@physx@@QAEPAPAVBase@Scb@4@ABQAV564@AA_N@Z 10033780 f i ScbScene.obj
 0001:00032900       ?createInstance@?$PvdFns@VArticulation@Scb@physx@@$00@@SAXAAVScene@Scb@physx@@PAVSceneVisualDebugger@Pvd@4@PAVArticulation@34@@Z 10033900 f i ScbScene.obj
 0001:000329f0       ?createInstance@?$PvdFns@VBody@Scb@physx@@$00@@SAXAAVScene@Scb@physx@@PAVSceneVisualDebugger@Pvd@4@PAVBody@34@@Z 100339f0 f i ScbScene.obj
 0001:00032ae0       ?createInstance@?$PvdFns@VConstraint@Scb@physx@@$00@@SAXAAVScene@Scb@physx@@PAVSceneVisualDebugger@Pvd@4@PAVConstraint@34@@Z 10033ae0 f i ScbScene.obj
 0001:00032bd0       ?createInstance@?$PvdFns@VParticleSystem@Scb@physx@@$00@@SAXAAVScene@Scb@physx@@PAVSceneVisualDebugger@Pvd@4@PAVParticleSystem@34@@Z 10033bd0 f i ScbScene.obj
 0001:00032cc0       ?createInstance@?$PvdFns@VRigidStatic@Scb@physx@@$00@@SAXAAVScene@Scb@physx@@PAVSceneVisualDebugger@Pvd@4@PAVRigidStatic@34@@Z 10033cc0 f i ScbScene.obj
 0001:00032db0       ?erase@?$HashBase@PAVBase@Scb@physx@@PAV123@U?$Hash@PAVBase@Scb@physx@@@shdfnd@3@UGetKey@?$HashSetBase@PAVBase@Scb@physx@@U?$Hash@PAVBase@Scb@physx@@@shdfnd@3@VAllocator@53@$00@internal@53@VAllocator@53@$00@internal@shdfnd@physx@@QAE_NABQAVBase@Scb@4@@Z 10033db0 f i ScbScene.obj
 0001:00032e90       ?growAndPushBack@?$Array@PAEVNamedAllocator@shdfnd@physx@@@shdfnd@physx@@IAEAAPAEABQAE@Z 10033e90 f i ScbScene.obj
 0001:00032f80       ?growAndPushBack@?$Array@PAXVNamedAllocator@shdfnd@physx@@@shdfnd@physx@@IAEAAPAXABQAX@Z 10033f80 f i ScbScene.obj
 0001:00033070       ?growAndPushBack@?$Array@V?$PxFlags@W4Enum@PxClientBehaviorFlag@physx@@E@physx@@VNamedAllocator@shdfnd@2@@shdfnd@physx@@IAEAAV?$PxFlags@W4Enum@PxClientBehaviorFlag@physx@@E@3@ABV43@@Z 10034070 f i ScbScene.obj
 0001:00033150       ?growAndPushBack@?$Array@VMaterialEvent@Scb@physx@@VNamedAllocator@shdfnd@3@@shdfnd@physx@@IAEAAVMaterialEvent@Scb@3@ABV453@@Z 10034150 f i ScbScene.obj
 0001:00033250       ?putToSleepInternal@Body@Scb@physx@@QAEXXZ 10034250 f i ScbScene.obj
 0001:00033390       ?recreate@?$Array@PAVShape@Scb@physx@@V?$InlineAllocator@$0BA@VNamedAllocator@shdfnd@physx@@@shdfnd@3@@shdfnd@physx@@IAEXI@Z 10034390 f i ScbScene.obj
 0001:00033490       ?recreate@?$Array@URemovedShape@Scb@physx@@V?$InlineAllocator@$0CA@VNamedAllocator@shdfnd@physx@@@shdfnd@3@@shdfnd@physx@@IAEXI@Z 10034490 f i ScbScene.obj
 0001:000335a0       ?recreate@?$Array@VMaterialEvent@Scb@physx@@VNamedAllocator@shdfnd@3@@shdfnd@physx@@IAEXI@Z 100345a0 f i ScbScene.obj
 0001:00033660       ?releaseInstance@?$PvdFns@VArticulation@Scb@physx@@$00@@SAXAAVScene@Scb@physx@@PAVSceneVisualDebugger@Pvd@4@PAVArticulation@34@@Z 10034660 f i ScbScene.obj
 0001:00033750       ?releaseInstance@?$PvdFns@VBody@Scb@physx@@$00@@SAXAAVScene@Scb@physx@@PAVSceneVisualDebugger@Pvd@4@PAVBody@34@@Z 10034750 f i ScbScene.obj
 0001:00033840       ?releaseInstance@?$PvdFns@VCloth@Scb@physx@@$00@@SAXAAVScene@Scb@physx@@PAVSceneVisualDebugger@Pvd@4@PAVCloth@34@@Z 10034840 f i ScbScene.obj
 0001:00033930       ?releaseInstance@?$PvdFns@VParticleSystem@Scb@physx@@$00@@SAXAAVScene@Scb@physx@@PAVSceneVisualDebugger@Pvd@4@PAVParticleSystem@34@@Z 10034930 f i ScbScene.obj
 0001:00033a20       ?releaseInstance@?$PvdFns@VRigidStatic@Scb@physx@@$00@@SAXAAVScene@Scb@physx@@PAVSceneVisualDebugger@Pvd@4@PAVRigidStatic@34@@Z 10034a20 f i ScbScene.obj
 0001:00033b10       ?replaceWithLast@?$HashBase@PAVBase@Scb@physx@@PAV123@U?$Hash@PAVBase@Scb@physx@@@shdfnd@3@UGetKey@?$HashSetBase@PAVBase@Scb@physx@@U?$Hash@PAVBase@Scb@physx@@@shdfnd@3@VAllocator@53@$00@internal@53@VAllocator@53@$00@internal@shdfnd@physx@@AAEXI@Z 10034b10 f i ScbScene.obj
 0001:00033bc0       ?reserveInternal@?$HashBase@PAVBase@Scb@physx@@PAV123@U?$Hash@PAVBase@Scb@physx@@@shdfnd@3@UGetKey@?$HashSetBase@PAVBase@Scb@physx@@U?$Hash@PAVBase@Scb@physx@@@shdfnd@3@VAllocator@53@$00@internal@53@VAllocator@53@$00@internal@shdfnd@physx@@AAEXI@Z 10034bc0 f i ScbScene.obj
 0001:00033d90       ?resize@?$Array@PAVShape@Scb@physx@@V?$InlineAllocator@$0BA@VNamedAllocator@shdfnd@physx@@@shdfnd@3@@shdfnd@physx@@QAEXIABQAVShape@Scb@3@@Z 10034d90 f i ScbScene.obj
 0001:00033df0       ?resize@?$Array@URemovedShape@Scb@physx@@V?$InlineAllocator@$0CA@VNamedAllocator@shdfnd@physx@@@shdfnd@3@@shdfnd@physx@@QAEXIABURemovedShape@Scb@3@@Z 10034df0 f i ScbScene.obj
 0001:00033e60       ?resize@?$Array@VMaterialEvent@Scb@physx@@VNamedAllocator@shdfnd@3@@shdfnd@physx@@QAEXIABVMaterialEvent@Scb@3@@Z 10034e60 f i ScbScene.obj
 0001:00033ed0       ?resize@PxsMaterialManager@physx@@QAEXI@Z 10034ed0 f i ScbScene.obj
 0001:00034000       ?setAngularVelocity@Body@Scb@physx@@QAEXABVPxVec3@3@@Z 10035000 f i ScbScene.obj
 0001:000340d0       ?setLinearVelocity@Body@Scb@physx@@QAEXABVPxVec3@3@@Z 100350d0 f i ScbScene.obj
 0001:000341a0       ?syncDominancePairs@SceneBuffer@Scb@physx@@QAEXAAVScene@Sc@3@@Z 100351a0 f i ScbScene.obj
 0001:000342d0       ?syncState@Aggregate@Scb@physx@@QAEXAAVScene@23@@Z 100352d0 f i ScbScene.obj
 0001:00034530       ?syncState@Articulation@Scb@physx@@QAEXXZ 10035530 f i ScbScene.obj
 0001:000346e0       ?syncState@ArticulationJoint@Scb@physx@@QAEXXZ 100356e0 f i ScbScene.obj
 0001:00034950       ?syncState@Body@Scb@physx@@QAEXXZ 10035950 f i ScbScene.obj
 0001:000354a0       ?syncState@Constraint@Scb@physx@@QAEXXZ 100364a0 f i ScbScene.obj
 0001:000355a0       ?syncState@RigidObject@Scb@physx@@QAEXXZ 100365a0 f i ScbScene.obj
 0001:00035870       ?syncState@RigidStatic@Scb@physx@@QAEXXZ 10036870 f i ScbScene.obj
 0001:00035940       ?updateInstance@?$PvdFns@VArticulation@Scb@physx@@$00@@SAXAAVScene@Scb@physx@@PAVSceneVisualDebugger@Pvd@4@PAVArticulation@34@@Z 10036940 f i ScbScene.obj
 0001:00035a60       ?updateInstance@?$PvdFns@VArticulationJoint@Scb@physx@@$00@@SAXAAVScene@Scb@physx@@PAVSceneVisualDebugger@Pvd@4@PAVArticulationJoint@34@@Z 10036a60 f i ScbScene.obj
 0001:00035b80       ?updateInstance@?$PvdFns@VBody@Scb@physx@@$00@@SAXAAVScene@Scb@physx@@PAVSceneVisualDebugger@Pvd@4@PAVBody@34@@Z 10036b80 f i ScbScene.obj
 0001:00035ca0       ?updateInstance@?$PvdFns@VConstraint@Scb@physx@@$00@@SAXAAVScene@Scb@physx@@PAVSceneVisualDebugger@Pvd@4@PAVConstraint@34@@Z 10036ca0 f i ScbScene.obj
 0001:00035dc0       ?updateInstance@?$PvdFns@VRigidStatic@Scb@physx@@$00@@SAXAAVScene@Scb@physx@@PAVSceneVisualDebugger@Pvd@4@PAVRigidStatic@34@@Z 10036dc0 f i ScbScene.obj
 0001:00035ee0       ?syncState@Shape@Scb@physx@@QAEXXZ 10036ee0 f   ScbShape.obj
 0001:00036060       ?setMaterialsHelper@Shape@Scb@physx@@AAE_NPBQAVPxMaterial@3@G@Z 10037060 f   ScbShape.obj
 0001:00036200       ??0NpCloth@physx@@QAE@V?$PxFlags@W4Enum@PxBaseFlag@physx@@G@1@@Z 10037200 f   NpCloth.obj
 0001:00036290       ?requires@NpCloth@physx@@UAEXAAVPxProcessPxBaseCallback@2@@Z 10037290 f   NpCloth.obj
 0001:000362b0       ?resolveReferences@NpCloth@physx@@UAEXAAVPxDeserializationContext@2@@Z 100372b0 f   NpCloth.obj
 0001:00036300       ?createObject@NpCloth@physx@@SAPAV12@AAPAEAAVPxDeserializationContext@2@@Z 10037300 f   NpCloth.obj
 0001:00036350       ??0NpCloth@physx@@QAE@ABVPxTransform@1@AAVNpClothFabric@1@PBUPxClothParticle@1@V?$PxFlags@W4Enum@PxClothFlag@physx@@G@1@@Z 10037350 f   NpCloth.obj
 0001:000363e0       ??1NpCloth@physx@@UAE@XZ   100373e0 f   NpCloth.obj
 0001:00036450       ?release@NpCloth@physx@@UAEXXZ 10037450 f   NpCloth.obj
 0001:000364b0       ?getType@NpCloth@physx@@UBE?AW4Enum@PxActorType@2@XZ 100374b0 f   NpCloth.obj
 0001:000364c0       ?getFabric@NpCloth@physx@@UBEPAVPxClothFabric@2@XZ 100374c0 f   NpCloth.obj
 0001:00036500       ?setParticles@NpCloth@physx@@UAEXPBUPxClothParticle@2@0@Z 10037500 f   NpCloth.obj
 0001:00036620       ?getNbParticles@NpCloth@physx@@UBEIXZ 10037620 f   NpCloth.obj
 0001:00036660       ?setMotionConstraints@NpCloth@physx@@UAEXPBUPxClothParticleMotionConstraint@2@@Z 10037660 f   NpCloth.obj
 0001:00036780       ?getMotionConstraints@NpCloth@physx@@UBE_NPAUPxClothParticleMotionConstraint@2@@Z 10037780 f   NpCloth.obj
 0001:00036850       ?getNbMotionConstraints@NpCloth@physx@@UBEIXZ 10037850 f   NpCloth.obj
 0001:00036890       ?setMotionConstraintConfig@NpCloth@physx@@UAEXABUPxClothMotionConstraintConfig@2@@Z 10037890 f   NpCloth.obj
 0001:00036980       ?getMotionConstraintConfig@NpCloth@physx@@UBE?AUPxClothMotionConstraintConfig@2@XZ 10037980 f   NpCloth.obj
 0001:000369c0       ?setSeparationConstraints@NpCloth@physx@@UAEXPBUPxClothParticleSeparationConstraint@2@@Z 100379c0 f   NpCloth.obj
 0001:00036ae0       ?getSeparationConstraints@NpCloth@physx@@UBE_NPAUPxClothParticleSeparationConstraint@2@@Z 10037ae0 f   NpCloth.obj
 0001:00036bb0       ?getNbSeparationConstraints@NpCloth@physx@@UBEIXZ 10037bb0 f   NpCloth.obj
 0001:00036bc0       ?clearInterpolation@NpCloth@physx@@UAEXXZ 10037bc0 f   NpCloth.obj
 0001:00036bd0       ?setParticleAccelerations@NpCloth@physx@@UAEXPBVPxVec4@2@@Z 10037bd0 f   NpCloth.obj
 0001:00036ca0       ?getParticleAccelerations@NpCloth@physx@@UBE_NPAVPxVec4@2@@Z 10037ca0 f   NpCloth.obj
 0001:00036d30       ?getNbParticleAccelerations@NpCloth@physx@@UBEIXZ 10037d30 f   NpCloth.obj
 0001:00036d40       ?addCollisionSphere@NpCloth@physx@@UAEXABUPxClothCollisionSphere@2@@Z 10037d40 f   NpCloth.obj
 0001:00036ea0       ?removeCollisionSphere@NpCloth@physx@@UAEXI@Z 10037ea0 f   NpCloth.obj
 0001:00036f30       ?setCollisionSpheres@NpCloth@physx@@UAEXPBUPxClothCollisionSphere@2@I@Z 10037f30 f   NpCloth.obj
 0001:00037030       ?getNbCollisionSpheres@NpCloth@physx@@UBEIXZ 10038030 f   NpCloth.obj
 0001:000370c0       ?getCollisionData@NpCloth@physx@@UBEXPAUPxClothCollisionSphere@2@PAIPAUPxClothCollisionPlane@2@1PAUPxClothCollisionTriangle@2@@Z 100380c0 f   NpCloth.obj
 0001:00037160       ?addCollisionCapsule@NpCloth@physx@@UAEXII@Z 10038160 f   NpCloth.obj
 0001:000372e0       ?removeCollisionCapsule@NpCloth@physx@@UAEXI@Z 100382e0 f   NpCloth.obj
 0001:000373a0       ?getNbCollisionCapsules@NpCloth@physx@@UBEIXZ 100383a0 f   NpCloth.obj
 0001:00037430       ?addCollisionTriangle@NpCloth@physx@@UAEXABUPxClothCollisionTriangle@2@@Z 10038430 f   NpCloth.obj
 0001:000374f0       ?removeCollisionTriangle@NpCloth@physx@@UAEXI@Z 100384f0 f   NpCloth.obj
 0001:000375b0       ?setCollisionTriangles@NpCloth@physx@@UAEXPBUPxClothCollisionTriangle@2@I@Z 100385b0 f   NpCloth.obj
 0001:00037670       ?getNbCollisionTriangles@NpCloth@physx@@UBEIXZ 10038670 f   NpCloth.obj
 0001:00037700       ?addCollisionPlane@NpCloth@physx@@UAEXABUPxClothCollisionPlane@2@@Z 10038700 f   NpCloth.obj
 0001:00037880       ?removeCollisionPlane@NpCloth@physx@@UAEXI@Z 10038880 f   NpCloth.obj
 0001:00037940       ?setCollisionPlanes@NpCloth@physx@@UAEXPBUPxClothCollisionPlane@2@I@Z 10038940 f   NpCloth.obj
 0001:00037a30       ?getNbCollisionPlanes@NpCloth@physx@@UBEIXZ 10038a30 f   NpCloth.obj
 0001:00037ac0       ?addCollisionConvex@NpCloth@physx@@UAEXI@Z 10038ac0 f   NpCloth.obj
 0001:00037b80       ?removeCollisionConvex@NpCloth@physx@@UAEXI@Z 10038b80 f   NpCloth.obj
 0001:00037c40       ?getNbCollisionConvexes@NpCloth@physx@@UBEIXZ 10038c40 f   NpCloth.obj
 0001:00037cd0       ?setVirtualParticles@NpCloth@physx@@UAEXIPBIIPBVPxVec3@2@@Z 10038cd0 f   NpCloth.obj
 0001:00037e50       ?getNbVirtualParticles@NpCloth@physx@@UBEIXZ 10038e50 f   NpCloth.obj
 0001:00037ee0       ?getVirtualParticles@NpCloth@physx@@UBEXPAI@Z 10038ee0 f   NpCloth.obj
 0001:00037f90       ?getNbVirtualParticleWeights@NpCloth@physx@@UBEIXZ 10038f90 f   NpCloth.obj
 0001:00038020       ?getVirtualParticleWeights@NpCloth@physx@@UBEXPAVPxVec3@2@@Z 10039020 f   NpCloth.obj
 0001:000380d0       ?setGlobalPose@NpCloth@physx@@UAEXABVPxTransform@2@@Z 100390d0 f   NpCloth.obj
 0001:00038270       ?getGlobalPose@NpCloth@physx@@UBE?AVPxTransform@2@XZ 10039270 f   NpCloth.obj
 0001:000382b0       ?setTargetPose@NpCloth@physx@@UAEXABVPxTransform@2@@Z 100392b0 f   NpCloth.obj
 0001:00038450       ?setExternalAcceleration@NpCloth@physx@@UAEXVPxVec3@2@@Z 10039450 f   NpCloth.obj
 0001:000385e0       ?getExternalAcceleration@NpCloth@physx@@UBE?AVPxVec3@2@XZ 100395e0 f   NpCloth.obj
 0001:00038620       ?setLinearInertiaScale@NpCloth@physx@@UAEXVPxVec3@2@@Z 10039620 f   NpCloth.obj
 0001:00038740       ?getLinearInertiaScale@NpCloth@physx@@UBE?AVPxVec3@2@XZ 10039740 f   NpCloth.obj
 0001:00038760       ?setAngularInertiaScale@NpCloth@physx@@UAEXVPxVec3@2@@Z 10039760 f   NpCloth.obj
 0001:00038880       ?getAngularInertiaScale@NpCloth@physx@@UBE?AVPxVec3@2@XZ 10039880 f   NpCloth.obj
 0001:000388a0       ?setCentrifugalInertiaScale@NpCloth@physx@@UAEXVPxVec3@2@@Z 100398a0 f   NpCloth.obj
 0001:000389c0       ?getCentrifugalInertiaScale@NpCloth@physx@@UBE?AVPxVec3@2@XZ 100399c0 f   NpCloth.obj
 0001:000389e0       ?setInertiaScale@NpCloth@physx@@UAEXM@Z 100399e0 f   NpCloth.obj
 0001:00038ae0       ?setDampingCoefficient@NpCloth@physx@@UAEXVPxVec3@2@@Z 10039ae0 f   NpCloth.obj
 0001:00038c00       ?getDampingCoefficient@NpCloth@physx@@UBE?AVPxVec3@2@XZ 10039c00 f   NpCloth.obj
 0001:00038c40       ?setFrictionCoefficient@NpCloth@physx@@UAEXM@Z 10039c40 f   NpCloth.obj
 0001:00038d60       ?getFrictionCoefficient@NpCloth@physx@@UBEMXZ 10039d60 f   NpCloth.obj
 0001:00038dc0       ?setLinearDragCoefficient@NpCloth@physx@@UAEXVPxVec3@2@@Z 10039dc0 f   NpCloth.obj
 0001:00038ee0       ?getLinearDragCoefficient@NpCloth@physx@@UBE?AVPxVec3@2@XZ 10039ee0 f   NpCloth.obj
 0001:00038f00       ?setAngularDragCoefficient@NpCloth@physx@@UAEXVPxVec3@2@@Z 10039f00 f   NpCloth.obj
 0001:00039020       ?getAngularDragCoefficient@NpCloth@physx@@UBE?AVPxVec3@2@XZ 1003a020 f   NpCloth.obj
 0001:00039040       ?setDragCoefficient@NpCloth@physx@@UAEXM@Z 1003a040 f   NpCloth.obj
 0001:00039090       ?setCollisionMassScale@NpCloth@physx@@UAEXM@Z 1003a090 f   NpCloth.obj
 0001:00039140       ?getCollisionMassScale@NpCloth@physx@@UBEMXZ 1003a140 f   NpCloth.obj
 0001:000391a0       ?setSelfCollisionDistance@NpCloth@physx@@UAEXM@Z 1003a1a0 f   NpCloth.obj
 0001:00039250       ?getSelfCollisionDistance@NpCloth@physx@@UBEMXZ 1003a250 f   NpCloth.obj
 0001:000392b0       ?setSelfCollisionStiffness@NpCloth@physx@@UAEXM@Z 1003a2b0 f   NpCloth.obj
 0001:00039360       ?getSelfCollisionStiffness@NpCloth@physx@@UBEMXZ 1003a360 f   NpCloth.obj
 0001:000393c0       ?setSelfCollisionIndices@NpCloth@physx@@UAEXPBII@Z 1003a3c0 f   NpCloth.obj
 0001:00039480       ?getSelfCollisionIndices@NpCloth@physx@@UBE_NPAI@Z 1003a480 f   NpCloth.obj
 0001:000394d0       ?getNbSelfCollisionIndices@NpCloth@physx@@UBEIXZ 1003a4d0 f   NpCloth.obj
 0001:000394e0       ?setRestPositions@NpCloth@physx@@UAEXPBVPxVec4@2@@Z 1003a4e0 f   NpCloth.obj
 0001:000395a0       ?getRestPositions@NpCloth@physx@@UBE_NPAVPxVec4@2@@Z 1003a5a0 f   NpCloth.obj
 0001:000395f0       ?getNbRestPositions@NpCloth@physx@@UBEIXZ 1003a5f0 f   NpCloth.obj
 0001:00039600       ?setSolverFrequency@NpCloth@physx@@UAEXM@Z 1003a600 f   NpCloth.obj
 0001:00039700       ?getSolverFrequency@NpCloth@physx@@UBEMXZ 1003a700 f   NpCloth.obj
 0001:000397a0       ?setStiffnessFrequency@NpCloth@physx@@UAEXM@Z 1003a7a0 f   NpCloth.obj
 0001:000398a0       ?getStiffnessFrequency@NpCloth@physx@@UBEMXZ 1003a8a0 f   NpCloth.obj
 0001:00039940       ?setStretchConfig@NpCloth@physx@@UAEXW4Enum@PxClothFabricPhaseType@2@ABUPxClothStretchConfig@2@@Z 1003a940 f   NpCloth.obj
 0001:00039ad0       ?getStretchConfig@NpCloth@physx@@UBE?AUPxClothStretchConfig@2@W4Enum@PxClothFabricPhaseType@2@@Z 1003aad0 f   NpCloth.obj
 0001:00039b10       ?setTetherConfig@NpCloth@physx@@UAEXABUPxClothTetherConfig@2@@Z 1003ab10 f   NpCloth.obj
 0001:00039c00       ?getTetherConfig@NpCloth@physx@@UBE?AUPxClothTetherConfig@2@XZ 1003ac00 f   NpCloth.obj
 0001:00039c40       ?setClothFlags@NpCloth@physx@@UAEXV?$PxFlags@W4Enum@PxClothFlag@physx@@G@2@@Z 1003ac40 f   NpCloth.obj
 0001:00039d30       ?setClothFlag@NpCloth@physx@@UAEXW4Enum@PxClothFlag@2@_N@Z 1003ad30 f   NpCloth.obj
 0001:00039df0       ?getClothFlags@NpCloth@physx@@UBE?AV?$PxFlags@W4Enum@PxClothFlag@physx@@G@2@XZ 1003adf0 f   NpCloth.obj
 0001:00039e90       ?isSleeping@NpCloth@physx@@UBE_NXZ 1003ae90 f   NpCloth.obj
 0001:00039f60       ?getSleepLinearVelocity@NpCloth@physx@@UBEMXZ 1003af60 f   NpCloth.obj
 0001:0003a000       ?setSleepLinearVelocity@NpCloth@physx@@UAEXM@Z 1003b000 f   NpCloth.obj
 0001:0003a0f0       ?setWakeCounter@NpCloth@physx@@UAEXM@Z 1003b0f0 f   NpCloth.obj
 0001:0003a1e0       ?getWakeCounter@NpCloth@physx@@UBEMXZ 1003b1e0 f   NpCloth.obj
 0001:0003a280       ?wakeUp@NpCloth@physx@@UAEXXZ 1003b280 f   NpCloth.obj
 0001:0003a2f0       ?putToSleep@NpCloth@physx@@UAEXXZ 1003b2f0 f   NpCloth.obj
 0001:0003a390       ?lockParticleData@NpCloth@physx@@UAEPAVPxClothParticleData@2@V?$PxFlags@W4Enum@PxDataAccessFlag@physx@@E@2@@Z 1003b390 f   NpCloth.obj
 0001:0003a420       ?lockParticleData@NpCloth@physx@@UBEPAVPxClothParticleData@2@XZ 1003b420 f   NpCloth.obj
 0001:0003a430       ?getPreviousTimeStep@NpCloth@physx@@UBEMXZ 1003b430 f   NpCloth.obj
 0001:0003a4d0       ?getWorldBounds@NpCloth@physx@@UBE?AVPxBounds3@2@M@Z 1003b4d0 f   NpCloth.obj
 0001:0003a5f0       ?setSimulationFilterData@NpCloth@physx@@UAEXABUPxFilterData@2@@Z 1003b5f0 f   NpCloth.obj
 0001:0003a680       ?getSimulationFilterData@NpCloth@physx@@UBE?AUPxFilterData@2@XZ 1003b680 f   NpCloth.obj
 0001:0003a6c0       ?setContactOffset@NpCloth@physx@@UAEXM@Z 1003b6c0 f   NpCloth.obj
 0001:0003a750       ?getContactOffset@NpCloth@physx@@UBEMXZ 1003b750 f   NpCloth.obj
 0001:0003a7f0       ?setRestOffset@NpCloth@physx@@UAEXM@Z 1003b7f0 f   NpCloth.obj
 0001:0003a880       ?getRestOffset@NpCloth@physx@@UBEMXZ 1003b880 f   NpCloth.obj
 0001:0003a920       ?checkParticles@NpCloth@physx@@SA_NIPBUPxClothParticle@2@@Z 1003b920 f   NpCloth.obj
 0001:0003a9d0       ?checkMotionConstraints@NpCloth@physx@@SA_NIPBUPxClothParticleMotionConstraint@2@@Z 1003b9d0 f   NpCloth.obj
 0001:0003aa90       ?checkSeparationConstraints@NpCloth@physx@@SA_NIPBUPxClothParticleSeparationConstraint@2@@Z 1003ba90 f   NpCloth.obj
 0001:0003ab50       ?checkParticleAccelerations@NpCloth@physx@@SA_NIPBVPxVec4@2@@Z 1003bb50 f   NpCloth.obj
 0001:0003ac10       ?checkCollisionSpheres@NpCloth@physx@@SA_NIPBUPxClothCollisionSphere@2@@Z 1003bc10 f   NpCloth.obj
 0001:0003acc0       ?checkCollisionSpherePairs@NpCloth@physx@@SA_NIIPBI@Z 1003bcc0 f   NpCloth.obj
 0001:0003acf0       ?checkVirtualParticles@NpCloth@physx@@SA_NIIPBIIPBVPxVec3@2@@Z 1003bcf0 f   NpCloth.obj
 0001:0003add0       ?visualize@NpCloth@physx@@UAEXAAVRenderOutput@Cm@2@PAVNpScene@2@@Z 1003bdd0 f   NpCloth.obj
 0001:0003b8c0       ?unlockParticleData@NpCloth@physx@@QAEXXZ 1003c8c0 f   NpCloth.obj
 0001:0003b8d0       ?sendPvdSimpleProperties@NpCloth@physx@@AAEXXZ 1003c8d0 f   NpCloth.obj
 0001:0003b910       ?sendPvdMotionConstraints@NpCloth@physx@@AAEXXZ 1003c910 f   NpCloth.obj
 0001:0003b950       ?sendPvdSeparationConstraints@NpCloth@physx@@AAEXXZ 1003c950 f   NpCloth.obj
 0001:0003b990       ?sendPvdCollisionSpheres@NpCloth@physx@@AAEXXZ 1003c990 f   NpCloth.obj
 0001:0003b9d0       ?sendPvdCollisionCapsules@NpCloth@physx@@AAEXXZ 1003c9d0 f   NpCloth.obj
 0001:0003ba10       ?sendPvdCollisionTriangles@NpCloth@physx@@AAEXXZ 1003ca10 f   NpCloth.obj
 0001:0003ba50       ?sendPvdVirtualParticles@NpCloth@physx@@AAEXXZ 1003ca50 f   NpCloth.obj
 0001:0003ba90       ?sendPvdSelfCollisionIndices@NpCloth@physx@@AAEXXZ 1003ca90 f   NpCloth.obj
 0001:0003bad0       ?sendPvdRestPositions@NpCloth@physx@@AAEXXZ 1003cad0 f   NpCloth.obj
 0001:0003d150       ??0?$NpActorTemplate@VPxCloth@physx@@@physx@@QAE@GV?$PxFlags@W4Enum@PxBaseFlag@physx@@G@1@PBDPAX@Z 1003e150 f i NpCloth.obj
 0001:0003d1b0       ??1?$NpActorTemplate@VPxCloth@physx@@@physx@@UAE@XZ 1003e1b0 f i NpCloth.obj
 0001:0003d1e0       ??1NpClothParticleData@physx@@UAE@XZ 1003e1e0 f i NpCloth.obj
 0001:0003d1f0       ??1PxCloth@physx@@MAE@XZ   1003e1f0 f i NpCloth.obj
 0001:0003d200       ??_E?$NpActorTemplate@VPxCloth@physx@@@physx@@UAEPAXI@Z 1003e200 f i NpCloth.obj
 0001:0003d200       ??_G?$NpActorTemplate@VPxCloth@physx@@@physx@@UAEPAXI@Z 1003e200 f i NpCloth.obj
 0001:0003d270       ??_ENpCloth@physx@@UAEPAXI@Z 1003e270 f i NpCloth.obj
 0001:0003d270       ??_GNpCloth@physx@@UAEPAXI@Z 1003e270 f i NpCloth.obj
 0001:0003d2c0       ??_ENpClothParticleData@physx@@UAEPAXI@Z 1003e2c0 f i NpCloth.obj
 0001:0003d2c0       ??_GNpClothParticleData@physx@@UAEPAXI@Z 1003e2c0 f i NpCloth.obj
 0001:0003d310       ??_EPxCloth@physx@@MAEPAXI@Z 1003e310 f i NpCloth.obj
 0001:0003d310       ??_GPxCloth@physx@@MAEPAXI@Z 1003e310 f i NpCloth.obj
 0001:0003d340       ??_GPxClothParticleData@physx@@UAEPAXI@Z 1003e340 f i NpCloth.obj
 0001:0003d340       ??_EPxClothParticleData@physx@@UAEPAXI@Z 1003e340 f i NpCloth.obj
 0001:0003d370       ?addCollisionSphere@Cloth@Scb@physx@@QAEXABUPxClothCollisionSphere@3@@Z 1003e370 f i NpCloth.obj
 0001:0003d3d0       ?copy@?$Array@VPxVec3@physx@@VNamedAllocator@shdfnd@2@@shdfnd@physx@@KAXPAVPxVec3@3@0PBV43@@Z 1003e3d0 f i NpCloth.obj
 0001:0003d4d0       ?create@?$Array@VPxVec3@physx@@VNamedAllocator@shdfnd@2@@shdfnd@physx@@KAXPAVPxVec3@3@0ABV43@@Z 1003e4d0 f i NpCloth.obj
 0001:0003d5b0       ?exportExtraData@?$NpActorTemplate@VPxCloth@physx@@@physx@@UAEXAAVPxSerializationContext@2@@Z 1003e5b0 f i NpCloth.obj
 0001:0003d5c0       ?exportExtraData@NpCloth@physx@@UAEXAAVPxSerializationContext@2@@Z 1003e5c0 f i NpCloth.obj
 0001:0003d5d0       ?getActorFlags@?$NpActorTemplate@VPxCloth@physx@@@physx@@UBE?AV?$PxFlags@W4Enum@PxActorFlag@physx@@G@2@XZ 1003e5d0 f i NpCloth.obj
 0001:0003d650       ?getAggregate@?$NpActorTemplate@VPxCloth@physx@@@physx@@UBEPAVPxAggregate@2@XZ 1003e650 f i NpCloth.obj
 0001:0003d660       ?getAngularDragCoefficient@Cloth@Scb@physx@@QBE?AVPxVec3@3@XZ 1003e660 f i NpCloth.obj
 0001:0003d6f0       ?getAngularInertiaScale@Cloth@Scb@physx@@QBE?AVPxVec3@3@XZ 1003e6f0 f i NpCloth.obj
 0001:0003d780       ?getCentrifugalInertiaScale@Cloth@Scb@physx@@QBE?AVPxVec3@3@XZ 1003e780 f i NpCloth.obj
 0001:0003d810       ?getClientBehaviorFlags@?$NpActorTemplate@VPxCloth@physx@@@physx@@UBE?AV?$PxFlags@W4Enum@PxActorClientBehaviorFlag@physx@@E@2@XZ 1003e810 f i NpCloth.obj
 0001:0003d890       ?getConcreteTypeName@PxCloth@physx@@UBEPBDXZ 1003e890 f i NpCloth.obj
 0001:0003d8a0       ?getDampingCoefficient@Cloth@Scb@physx@@QBE?AVPxVec3@3@XZ 1003e8a0 f i NpCloth.obj
 0001:0003d930       ?getDataAccessFlags@NpClothParticleData@physx@@UAE?AV?$PxFlags@W4Enum@PxDataAccessFlag@physx@@E@2@XZ 1003e930 f i NpCloth.obj
 0001:0003d950       ?getDominanceGroup@?$NpActorTemplate@VPxCloth@physx@@@physx@@UBEEXZ 1003e950 f i NpCloth.obj
 0001:0003d9e0       ?getExternalAcceleration@Cloth@Scb@physx@@QBE?AVPxVec3@3@XZ 1003e9e0 f i NpCloth.obj
 0001:0003da70       ?getGlobalPose@Cloth@Scb@physx@@QBE?AVPxTransform@3@XZ 1003ea70 f i NpCloth.obj
 0001:0003db20       ?getLinearDragCoefficient@Cloth@Scb@physx@@QBE?AVPxVec3@3@XZ 1003eb20 f i NpCloth.obj
 0001:0003dbb0       ?getLinearInertiaScale@Cloth@Scb@physx@@QBE?AVPxVec3@3@XZ 1003ebb0 f i NpCloth.obj
 0001:0003dc40       ?getMotionConstraintConfig@Cloth@Scb@physx@@QBE?AUPxClothMotionConstraintConfig@3@XZ 1003ec40 f i NpCloth.obj
 0001:0003dcd0       ?getName@?$NpActorTemplate@VPxCloth@physx@@@physx@@UBEPBDXZ 1003ecd0 f i NpCloth.obj
 0001:0003dd10       ?getOwnerClient@?$NpActorTemplate@VPxCloth@physx@@@physx@@UBEEXZ 1003ed10 f i NpCloth.obj
 0001:0003dd40       ?getParticleData@Cloth@Scb@physx@@QAEXAAVNpClothParticleData@3@@Z 1003ed40 f i NpCloth.obj
 0001:0003ddc0       ?getScene@?$NpActorTemplate@VPxCloth@physx@@@physx@@UBEPAVPxScene@2@XZ 1003edc0 f i NpCloth.obj
 0001:0003ddd0       ?getSimulationFilterData@Cloth@Scb@physx@@QBE?AUPxFilterData@3@XZ 1003edd0 f i NpCloth.obj
 0001:0003de60       ?getStretchConfig@Cloth@Scb@physx@@QBE?AUPxClothStretchConfig@3@W4Enum@PxClothFabricPhaseType@3@@Z 1003ee60 f i NpCloth.obj
 0001:0003df00       ?getTetherConfig@Cloth@Scb@physx@@QBE?AUPxClothTetherConfig@3@XZ 1003ef00 f i NpCloth.obj
 0001:0003df80       ?getWorldBounds@Cloth@Scb@physx@@QBE?AVPxBounds3@3@XZ 1003ef80 f i NpCloth.obj
 0001:0003e030       ?isFinite@PxQuat@physx@@QBE_NXZ 1003f030 f i NpCloth.obj
 0001:0003e0e0       ?isKindOf@PxCloth@physx@@MBE_NPBD@Z 1003f0e0 f i NpCloth.obj
 0001:0003e150       ?isSane@PxQuat@physx@@QBE_NXZ 1003f150 f i NpCloth.obj
 0001:0003e270       ?isSane@PxTransform@physx@@QBE_NXZ 1003f270 f i NpCloth.obj
 0001:0003e310       ?recreate@?$Array@IVNamedAllocator@shdfnd@physx@@@shdfnd@physx@@IAEXI@Z 1003f310 f i NpCloth.obj
 0001:0003e3d0       ?recreate@?$Array@UPxClothFabricPhase@physx@@VNamedAllocator@shdfnd@2@@shdfnd@physx@@IAEXI@Z 1003f3d0 f i NpCloth.obj
 0001:0003e490       ?recreate@?$Array@VPxVec3@physx@@VNamedAllocator@shdfnd@2@@shdfnd@physx@@IAEXI@Z 1003f490 f i NpCloth.obj
 0001:0003e540       ?release@?$NpActorTemplate@VPxCloth@physx@@@physx@@UAEXXZ 1003f540 f i NpCloth.obj
 0001:0003e550       ?resize@?$Array@IVNamedAllocator@shdfnd@physx@@@shdfnd@physx@@QAEXIABI@Z 1003f550 f i NpCloth.obj
 0001:0003e5b0       ?resize@?$Array@UPxClothFabricPhase@physx@@VNamedAllocator@shdfnd@2@@shdfnd@physx@@QAEXIABUPxClothFabricPhase@3@@Z 1003f5b0 f i NpCloth.obj
 0001:0003e620       ?resize@?$Array@VPxVec3@physx@@VNamedAllocator@shdfnd@2@@shdfnd@physx@@QAEXIABVPxVec3@3@@Z 1003f620 f i NpCloth.obj
 0001:0003e680       ?resolveReferences@?$NpActorTemplate@VPxCloth@physx@@@physx@@UAEXAAVPxDeserializationContext@2@@Z 1003f680 f i NpCloth.obj
 0001:0003e690       ?setActorFlag@?$NpActorTemplate@VPxCloth@physx@@@physx@@UAEXW4Enum@PxActorFlag@2@_N@Z 1003f690 f i NpCloth.obj
 0001:0003e760       ?setActorFlags@?$NpActorTemplate@VPxCloth@physx@@@physx@@UAEXV?$PxFlags@W4Enum@PxActorFlag@physx@@G@2@@Z 1003f760 f i NpCloth.obj
 0001:0003e7c0       ?setAngularDragCoefficient@Cloth@Scb@physx@@QAEXVPxVec3@3@@Z 1003f7c0 f i NpCloth.obj
 0001:0003e850       ?setAngularInertiaScale@Cloth@Scb@physx@@QAEXVPxVec3@3@@Z 1003f850 f i NpCloth.obj
 0001:0003e8e0       ?setCentrifugalInertiaScale@Cloth@Scb@physx@@QAEXVPxVec3@3@@Z 1003f8e0 f i NpCloth.obj
 0001:0003e970       ?setClientBehaviorFlags@?$NpActorTemplate@VPxCloth@physx@@@physx@@UAEXV?$PxFlags@W4Enum@PxActorClientBehaviorFlag@physx@@E@2@@Z 1003f970 f i NpCloth.obj
 0001:0003e9d0       ?setCollisionSpheres@Cloth@Scb@physx@@QAEXPBUPxClothCollisionSphere@3@I@Z 1003f9d0 f i NpCloth.obj
 0001:0003ea30       ?setDampingCoefficient@Cloth@Scb@physx@@QAEXVPxVec3@3@@Z 1003fa30 f i NpCloth.obj
 0001:0003eac0       ?setDominanceGroup@?$NpActorTemplate@VPxCloth@physx@@@physx@@UAEXE@Z 1003fac0 f i NpCloth.obj
 0001:0003eb20       ?setExternalAcceleration@Cloth@Scb@physx@@QAEXVPxVec3@3@@Z 1003fb20 f i NpCloth.obj
 0001:0003ebb0       ?setLinearDragCoefficient@Cloth@Scb@physx@@QAEXVPxVec3@3@@Z 1003fbb0 f i NpCloth.obj
 0001:0003ec40       ?setLinearInertiaScale@Cloth@Scb@physx@@QAEXVPxVec3@3@@Z 1003fc40 f i NpCloth.obj
 0001:0003ecd0       ?setName@?$NpActorTemplate@VPxCloth@physx@@@physx@@UAEXPBD@Z 1003fcd0 f i NpCloth.obj
 0001:0003ed80       ?setOwnerClient@?$NpActorTemplate@VPxCloth@physx@@@physx@@UAEXE@Z 1003fd80 f i NpCloth.obj
 0001:0003edf0       ?setWakeCounter@Cloth@Scb@physx@@QAEXM@Z 1003fdf0 f i NpCloth.obj
 0001:0003ee60       ?wakeUp@Cloth@Scb@physx@@QAEXXZ 1003fe60 f i NpCloth.obj
 0001:0003eed0       ?onRefCountZero@NpClothFabric@physx@@UAEXXZ 1003fed0 f   NpClothFabric.obj
 0001:0003ef40       ?exportExtraData@NpClothFabric@physx@@UAEXAAVPxSerializationContext@2@@Z 1003ff40 f   NpClothFabric.obj
 0001:0003ef50       ?importExtraData@NpClothFabric@physx@@QAEXAAVPxDeserializationContext@2@@Z 1003ff50 f   NpClothFabric.obj
 0001:0003ef60       ?createObject@NpClothFabric@physx@@SAPAV12@AAPAEAAVPxDeserializationContext@2@@Z 1003ff60 f   NpClothFabric.obj
 0001:0003efe0       ??0NpClothFabric@physx@@QAE@XZ 1003ffe0 f   NpClothFabric.obj
 0001:0003f030       ?load@NpClothFabric@physx@@QAE_NAAVPxInputStream@2@@Z 10040030 f   NpClothFabric.obj
 0001:0003f040       ?load@NpClothFabric@physx@@QAE_NABVPxClothFabricDesc@2@@Z 10040040 f   NpClothFabric.obj
 0001:0003f050       ?release@NpClothFabric@physx@@UAEXXZ 10040050 f   NpClothFabric.obj
 0001:0003f090       ?getNbParticles@NpClothFabric@physx@@UBEIXZ 10040090 f   NpClothFabric.obj
 0001:0003f0a0       ?getNbPhases@NpClothFabric@physx@@UBEIXZ 100400a0 f   NpClothFabric.obj
 0001:0003f0b0       ?getNbSets@NpClothFabric@physx@@UBEIXZ 100400b0 f   NpClothFabric.obj
 0001:0003f0c0       ?getNbParticleIndices@NpClothFabric@physx@@UBEIXZ 100400c0 f   NpClothFabric.obj
 0001:0003f0d0       ?getNbRestvalues@NpClothFabric@physx@@UBEIXZ 100400d0 f   NpClothFabric.obj
 0001:0003f0e0       ?getNbTethers@NpClothFabric@physx@@UBEIXZ 100400e0 f   NpClothFabric.obj
 0001:0003f0f0       ?getPhases@NpClothFabric@physx@@UBEIPAUPxClothFabricPhase@2@I@Z 100400f0 f   NpClothFabric.obj
 0001:0003f100       ?getSets@NpClothFabric@physx@@UBEIPAII@Z 10040100 f   NpClothFabric.obj
 0001:0003f110       ?getParticleIndices@NpClothFabric@physx@@UBEIPAII@Z 10040110 f   NpClothFabric.obj
 0001:0003f120       ?getRestvalues@NpClothFabric@physx@@UBEIPAMI@Z 10040120 f   NpClothFabric.obj
 0001:0003f130       ?getTetherAnchors@NpClothFabric@physx@@UBEIPAII@Z 10040130 f   NpClothFabric.obj
 0001:0003f140       ?getTetherLengths@NpClothFabric@physx@@UBEIPAMI@Z 10040140 f   NpClothFabric.obj
 0001:0003f150       ?getPhaseType@NpClothFabric@physx@@UBE?AW4Enum@PxClothFabricPhaseType@2@I@Z 10040150 f   NpClothFabric.obj
 0001:0003f160       ?scaleRestlengths@NpClothFabric@physx@@UAEXM@Z 10040160 f   NpClothFabric.obj
 0001:0003f180       ?getReferenceCount@NpClothFabric@physx@@UBEIXZ 10040180 f   NpClothFabric.obj
 0001:0003f190       ??1NpClothFabric@physx@@UAE@XZ 10040190 f   NpClothFabric.obj
 0001:0003f270       ??1PxClothFabric@physx@@MAE@XZ 10040270 f i NpClothFabric.obj
 0001:0003f280       ??1RefCountable@Cm@physx@@UAE@XZ 10040280 f i NpClothFabric.obj
 0001:0003f287       ??_ENpClothFabric@physx@@W7AEPAXI@Z 10040287 f i NpClothFabric.obj
 0001:0003f2a0       ??_GNpClothFabric@physx@@UAEPAXI@Z 100402a0 f i NpClothFabric.obj
 0001:0003f2a0       ??_ENpClothFabric@physx@@UAEPAXI@Z 100402a0 f i NpClothFabric.obj
 0001:0003f310       ??_GPxClothFabric@physx@@MAEPAXI@Z 10040310 f i NpClothFabric.obj
 0001:0003f310       ??_EPxClothFabric@physx@@MAEPAXI@Z 10040310 f i NpClothFabric.obj
 0001:0003f340       ??_GRefCountable@Cm@physx@@UAEPAXI@Z 10040340 f i NpClothFabric.obj
 0001:0003f340       ??_ERefCountable@Cm@physx@@UAEPAXI@Z 10040340 f i NpClothFabric.obj
 0001:0003f370       ?getConcreteTypeName@PxClothFabric@physx@@UBEPBDXZ 10040370 f i NpClothFabric.obj
 0001:0003f380       ?isKindOf@PxClothFabric@physx@@MBE_NPBD@Z 10040380 f i NpClothFabric.obj
 0001:0003f420       ?onRefCountZero@RefCountable@Cm@physx@@UAEXXZ 10040420 f i NpClothFabric.obj
 0001:0003f430       ?requires@NpClothFabric@physx@@UAEXAAVPxProcessPxBaseCallback@2@@Z 10040430 f i NpClothFabric.obj
 0001:0003f440       ?unlock@NpClothParticleData@physx@@UAEXXZ 10040440 f   NpClothParticleData.obj
 0001:0003f470       ?tryLock@NpClothParticleData@physx@@QAE_NV?$PxFlags@W4Enum@PxDataAccessFlag@physx@@E@2@@Z 10040470 f   NpClothParticleData.obj
 0001:0003f4b0       ?exportExtraData@NpActor@physx@@QAEXAAVPxSerializationContext@2@@Z 100404b0 f   NpActor.obj
 0001:0003f630       ?importExtraData@NpActor@physx@@QAEXAAVPxDeserializationContext@2@@Z 10040630 f   NpActor.obj
 0001:0003f6f0       ?resolveReferences@NpActor@physx@@QAEXAAVPxDeserializationContext@2@@Z 100406f0 f   NpActor.obj
 0001:0003f750       ??0NpActor@physx@@QAE@PBD@Z 10040750 f   NpActor.obj
 0001:0003f770       ?releaseConstraints@NpActor@physx@@QAEXAAVPxRigidActor@2@@Z 10040770 f   NpActor.obj
 0001:0003f830       ?release@NpActor@physx@@QAEXAAVPxActor@2@@Z 10040830 f   NpActor.obj
 0001:0003f850       ?getNpAggregate@NpActor@physx@@QBEPAVNpAggregate@2@AAI@Z 10040850 f   NpActor.obj
 0001:0003f890       ?setAggregate@NpActor@physx@@QAEXPAVNpAggregate@2@AAVPxActor@2@@Z 10040890 f   NpActor.obj
 0001:0003f900       ?getAggregate@NpActor@physx@@QBEPAVPxAggregate@2@XZ 10040900 f   NpActor.obj
 0001:0003f930       ?removeConstraintsFromScene@NpActor@physx@@QAEXXZ 10040930 f   NpActor.obj
 0001:0003f9e0       ?findConnector@NpActor@physx@@QBEIW4Enum@NpConnectorType@2@PAVPxBase@2@@Z 100409e0 f   NpActor.obj
 0001:0003fa30       ?addConnector@NpActor@physx@@QAEXW4Enum@NpConnectorType@2@PAVPxBase@2@PBD@Z 10040a30 f   NpActor.obj
 0001:0003fb50       ?removeConnector@NpActor@physx@@QAEXAAVPxActor@2@W4Enum@NpConnectorType@2@PAVPxBase@2@PBD@Z 10040b50 f   NpActor.obj
 0001:0003fbd0       ?getNbConnectors@NpActor@physx@@QBEIW4Enum@NpConnectorType@2@@Z 10040bd0 f   NpActor.obj
 0001:0003fc20       ?getShapeManager@NpActor@physx@@SAAAVNpShapeManager@2@AAVPxRigidActor@2@@Z 10040c20 f   NpActor.obj
 0001:0003fc50       ?getAPIScene@NpActor@physx@@SAPAVNpScene@2@ABVPxActor@2@@Z 10040c50 f   NpActor.obj
 0001:0003fc90       ?getOwnerScene@NpActor@physx@@SAPAVNpScene@2@ABVPxActor@2@@Z 10040c90 f   NpActor.obj
 0001:0003fcc0       ?onActorRelease@NpActor@physx@@SAXPAVPxActor@2@@Z 10040cc0 f   NpActor.obj
 0001:0003fce0       ??1NpActor@physx@@IAE@XZ   10040ce0 f   NpActor.obj
 0001:0003fcf0       ?addConstraintsToSceneInternal@NpActor@physx@@AAEXXZ 10040cf0 f   NpActor.obj
 0001:0003fdb0       ?removeConnector@NpActor@physx@@AAEXAAVPxActor@2@I@Z 10040db0 f   NpActor.obj
 0001:0003fe40       ??0Offsets@NpActor@physx@@QAE@XZ 10040e40 f   NpActor.obj
 0001:00040150       ??$exportArray@VNpConnector@physx@@V?$InlineAllocator@$0CA@VNamedAllocator@shdfnd@physx@@@shdfnd@2@@Cm@physx@@YAXABV?$Array@VNpConnector@physx@@V?$InlineAllocator@$0CA@VNamedAllocator@shdfnd@physx@@@shdfnd@2@@shdfnd@1@AAVPxSerializationContext@1@@Z 10041150 f i NpActor.obj
 0001:000401a0       ??$exportInlineArray@VNpConnector@physx@@$03VNamedAllocator@shdfnd@2@@Cm@physx@@YAXABV?$InlineArray@VNpConnector@physx@@$03VNamedAllocator@shdfnd@2@@shdfnd@1@AAVPxSerializationContext@1@@Z 100411a0 f i NpActor.obj
 0001:000401f0       ??$importArray@VNpConnector@physx@@V?$InlineAllocator@$0CA@VNamedAllocator@shdfnd@physx@@@shdfnd@2@@Cm@physx@@YAXAAV?$Array@VNpConnector@physx@@V?$InlineAllocator@$0CA@VNamedAllocator@shdfnd@physx@@@shdfnd@2@@shdfnd@1@AAVPxDeserializationContext@1@@Z 100411f0 f i NpActor.obj
 0001:00040240       ??$importInlineArray@VNpConnector@physx@@$03VNamedAllocator@shdfnd@2@@Cm@physx@@YAXAAV?$InlineArray@VNpConnector@physx@@$03VNamedAllocator@shdfnd@2@@shdfnd@1@AAVPxDeserializationContext@1@@Z 10041240 f i NpActor.obj
 0001:00040290       ?assign@?$Array@VNpConnector@physx@@V?$InlineAllocator@$0CA@VNamedAllocator@shdfnd@physx@@@shdfnd@2@@shdfnd@physx@@QAEXPBVNpConnector@3@0@Z 10041290 f i NpActor.obj
 0001:00040300       ?growAndPushBack@?$Array@PAVPxConstraint@physx@@VNamedAllocator@shdfnd@2@@shdfnd@physx@@IAEAAPAVPxConstraint@3@ABQAV43@@Z 10041300 f i NpActor.obj
 0001:000403f0       ?growAndPushBack@?$Array@VNpConnector@physx@@V?$InlineAllocator@$0CA@VNamedAllocator@shdfnd@physx@@@shdfnd@2@@shdfnd@physx@@IAEAAVNpConnector@3@ABV43@@Z 100413f0 f i NpActor.obj
 0001:00040540       ?recreate@?$Array@VNpConnector@physx@@V?$InlineAllocator@$0CA@VNamedAllocator@shdfnd@physx@@@shdfnd@2@@shdfnd@physx@@IAEXI@Z 10041540 f i NpActor.obj
 0001:00040660       ?resizeUninitialized@?$Array@VNpConnector@physx@@V?$InlineAllocator@$0CA@VNamedAllocator@shdfnd@physx@@@shdfnd@2@@shdfnd@physx@@QAEXI@Z 10041660 f i NpActor.obj
 0001:00040690       ?exportExtraData@NpAggregate@physx@@UAEXAAVPxSerializationContext@2@@Z 10041690 f   NpAggregate.obj
 0001:000406c0       ?importExtraData@NpAggregate@physx@@QAEXAAVPxDeserializationContext@2@@Z 100416c0 f   NpAggregate.obj
 0001:000406f0       ?resolveReferences@NpAggregate@physx@@QAEXAAVPxDeserializationContext@2@@Z 100416f0 f   NpAggregate.obj
 0001:000407a0       ?requires@NpAggregate@physx@@UAEXAAVPxProcessPxBaseCallback@2@@Z 100417a0 f   NpAggregate.obj
 0001:000407f0       ?createObject@NpAggregate@physx@@SAPAV12@AAPAEAAVPxDeserializationContext@2@@Z 100417f0 f   NpAggregate.obj
 0001:00040860       ??0NpAggregate@physx@@QAE@I_N@Z 10041860 f   NpAggregate.obj
 0001:000408d0       ??1NpAggregate@physx@@UAE@XZ 100418d0 f   NpAggregate.obj
 0001:00040910       ?release@NpAggregate@physx@@UAEXXZ 10041910 f   NpAggregate.obj
 0001:00040a50       ?addActor@NpAggregate@physx@@UAE_NAAVPxActor@2@@Z 10041a50 f   NpAggregate.obj
 0001:00040b50       ?removeActor@NpAggregate@physx@@UAE_NAAVPxActor@2@@Z 10041b50 f   NpAggregate.obj
 0001:00040be0       ?addArticulation@NpAggregate@physx@@UAE_NAAVPxArticulation@2@@Z 10041be0 f   NpAggregate.obj
 0001:00040d40       ?removeArticulation@NpAggregate@physx@@UAE_NAAVPxArticulation@2@@Z 10041d40 f   NpAggregate.obj
 0001:00040d90       ?getNbActors@NpAggregate@physx@@UBEIXZ 10041d90 f   NpAggregate.obj
 0001:00040dd0       ?getMaxNbActors@NpAggregate@physx@@UBEIXZ 10041dd0 f   NpAggregate.obj
 0001:00040e10       ?getActors@NpAggregate@physx@@UBEIPAPAVPxActor@2@II@Z 10041e10 f   NpAggregate.obj
 0001:00040e80       ?getScene@NpAggregate@physx@@UAEPAVPxScene@2@XZ 10041e80 f   NpAggregate.obj
 0001:00040ec0       ?getSelfCollision@NpAggregate@physx@@UBE_NXZ 10041ec0 f   NpAggregate.obj
 0001:00040f00       ?getAPIScene@NpAggregate@physx@@QBEPAVNpScene@2@XZ 10041f00 f   NpAggregate.obj
 0001:00040f40       ?getOwnerScene@NpAggregate@physx@@QBEPAVNpScene@2@XZ 10041f40 f   NpAggregate.obj
 0001:00040f50       ?addActorInternal@NpAggregate@physx@@QAEXAAVPxActor@2@AAVNpScene@2@@Z 10041f50 f   NpAggregate.obj
 0001:00040fe0       ?removeAndReinsert@NpAggregate@physx@@QAEXAAVPxActor@2@_N@Z 10041fe0 f   NpAggregate.obj
 0001:00041020       ?removeActorAndReinsert@NpAggregate@physx@@QAE_NAAVPxActor@2@_N@Z 10042020 f   NpAggregate.obj
 0001:000410c0       ?removeArticulationAndReinsert@NpAggregate@physx@@QAE_NAAVPxArticulation@2@_N@Z 100420c0 f   NpAggregate.obj
 0001:00041430       ??$pointerOffset@PAVNpActor@physx@@@shdfnd@physx@@YAPAVNpActor@1@PAXH@Z 10042430 f i NpAggregate.obj
 0001:00041440       ??1PxAggregate@physx@@MAE@XZ 10042440 f i NpAggregate.obj
 0001:00041450       ??_GNpAggregate@physx@@UAEPAXI@Z 10042450 f i NpAggregate.obj
 0001:00041450       ??_ENpAggregate@physx@@UAEPAXI@Z 10042450 f i NpAggregate.obj
 0001:000414d0       ??_EPxAggregate@physx@@MAEPAXI@Z 100424d0 f i NpAggregate.obj
 0001:000414d0       ??_GPxAggregate@physx@@MAEPAXI@Z 100424d0 f i NpAggregate.obj
 0001:00041500       ?getConcreteTypeName@PxAggregate@physx@@UBEPBDXZ 10042500 f i NpAggregate.obj
 0001:00041510       ?isKindOf@PxAggregate@physx@@MBE_NPBD@Z 10042510 f i NpAggregate.obj
 0001:000415b0       ??1NpArticulation@physx@@UAE@XZ 100425b0 f   NpArticulation.obj
 0001:00041610       ?exportExtraData@NpArticulation@physx@@UAEXAAVPxSerializationContext@2@@Z 10042610 f   NpArticulation.obj
 0001:00041660       ?importExtraData@NpArticulation@physx@@QAEXAAVPxDeserializationContext@2@@Z 10042660 f   NpArticulation.obj
 0001:000416c0       ?resolveReferences@NpArticulation@physx@@QAEXAAVPxDeserializationContext@2@@Z 100426c0 f   NpArticulation.obj
 0001:00041720       ?requires@NpArticulation@physx@@UAEXAAVPxProcessPxBaseCallback@2@@Z 10042720 f   NpArticulation.obj
 0001:00041760       ?createObject@NpArticulation@physx@@SAPAV12@AAPAEAAVPxDeserializationContext@2@@Z 10042760 f   NpArticulation.obj
 0001:000417e0       ?release@NpArticulation@physx@@UAEXXZ 100427e0 f   NpArticulation.obj
 0001:00041900       ?getScene@NpArticulation@physx@@UBEPAVPxScene@2@XZ 10042900 f   NpArticulation.obj
 0001:00041940       ?getInternalDriveIterations@NpArticulation@physx@@UBEIXZ 10042940 f   NpArticulation.obj
 0001:000419a0       ?setInternalDriveIterations@NpArticulation@physx@@UAEXI@Z 100429a0 f   NpArticulation.obj
 0001:000419f0       ?getExternalDriveIterations@NpArticulation@physx@@UBEIXZ 100429f0 f   NpArticulation.obj
 0001:00041a50       ?setExternalDriveIterations@NpArticulation@physx@@UAEXI@Z 10042a50 f   NpArticulation.obj
 0001:00041aa0       ?getMaxProjectionIterations@NpArticulation@physx@@UBEIXZ 10042aa0 f   NpArticulation.obj
 0001:00041b00       ?setMaxProjectionIterations@NpArticulation@physx@@UAEXI@Z 10042b00 f   NpArticulation.obj
 0001:00041b50       ?getSeparationTolerance@NpArticulation@physx@@UBEMXZ 10042b50 f   NpArticulation.obj
 0001:00041bc0       ?setSeparationTolerance@NpArticulation@physx@@UAEXM@Z 10042bc0 f   NpArticulation.obj
 0001:00041c10       ?setSleepThreshold@NpArticulation@physx@@UAEXM@Z 10042c10 f   NpArticulation.obj
 0001:00041c60       ?getSleepThreshold@NpArticulation@physx@@UBEMXZ 10042c60 f   NpArticulation.obj
 0001:00041cd0       ?setStabilizationThreshold@NpArticulation@physx@@UAEXM@Z 10042cd0 f   NpArticulation.obj
 0001:00041d20       ?getStabilizationThreshold@NpArticulation@physx@@UBEMXZ 10042d20 f   NpArticulation.obj
 0001:00041d90       ?setWakeCounter@NpArticulation@physx@@UAEXM@Z 10042d90 f   NpArticulation.obj
 0001:00041e10       ?getWakeCounter@NpArticulation@physx@@UBEMXZ 10042e10 f   NpArticulation.obj
 0001:00041e60       ?setSolverIterationCounts@NpArticulation@physx@@UAEXII@Z 10042e60 f   NpArticulation.obj
 0001:00041f90       ?getSolverIterationCounts@NpArticulation@physx@@UBEXAAI0@Z 10042f90 f   NpArticulation.obj
 0001:00042000       ?isSleeping@NpArticulation@physx@@UBE_NXZ 10043000 f   NpArticulation.obj
 0001:000420e0       ?wakeUp@NpArticulation@physx@@UAEXXZ 100430e0 f   NpArticulation.obj
 0001:00042290       ?putToSleep@NpArticulation@physx@@UAEXXZ 10043290 f   NpArticulation.obj
 0001:000423e0       ?createLink@NpArticulation@physx@@UAEPAVPxArticulationLink@2@PAV32@ABVPxTransform@2@@Z 100433e0 f   NpArticulation.obj
 0001:00042570       ?getNbLinks@NpArticulation@physx@@UBEIXZ 10043570 f   NpArticulation.obj
 0001:000425b0       ?getLinks@NpArticulation@physx@@UBEIPAPAVPxArticulationLink@2@I@Z 100435b0 f   NpArticulation.obj
 0001:00042620       ?getWorldBounds@NpArticulation@physx@@UBE?AVPxBounds3@2@M@Z 10043620 f   NpArticulation.obj
 0001:00042800       ?getAggregate@NpArticulation@physx@@UBEPAVPxAggregate@2@XZ 10043800 f   NpArticulation.obj
 0001:00042840       ?setName@NpArticulation@physx@@UAEXPBD@Z 10043840 f   NpArticulation.obj
 0001:00042880       ?getName@NpArticulation@physx@@UBEPBDXZ 10043880 f   NpArticulation.obj
 0001:000428c0       ?createDriveCache@NpArticulation@physx@@UBEPAVPxArticulationDriveCache@2@MI@Z 100438c0 f   NpArticulation.obj
 0001:000429b0       ?updateDriveCache@NpArticulation@physx@@UBEXAAVPxArticulationDriveCache@2@MI@Z 100439b0 f   NpArticulation.obj
 0001:00042b00       ?releaseDriveCache@NpArticulation@physx@@UBEXAAVPxArticulationDriveCache@2@@Z 10043b00 f   NpArticulation.obj
 0001:00042be0       ?applyImpulse@NpArticulation@physx@@UAEXPAVPxArticulationLink@2@ABVPxArticulationDriveCache@2@ABVPxVec3@2@2@Z 10043be0 f   NpArticulation.obj
 0001:00042ec0       ?computeImpulseResponse@NpArticulation@physx@@UBEXPAVPxArticulationLink@2@AAVPxVec3@2@1ABVPxArticulationDriveCache@2@ABV42@3@Z 10043ec0 f   NpArticulation.obj
 0001:00043110       ??0NpArticulation@physx@@QAE@XZ 10044110 f   NpArticulation.obj
 0001:000431a0       ?getRoot@NpArticulation@physx@@QAEPAVNpArticulationLink@2@XZ 100441a0 f   NpArticulation.obj
 0001:000431b0       ?getAPIScene@NpArticulation@physx@@QBEPAVNpScene@2@XZ 100441b0 f   NpArticulation.obj
 0001:000431f0       ?getOwnerScene@NpArticulation@physx@@QBEPAVNpScene@2@XZ 100441f0 f   NpArticulation.obj
 0001:00043200       ?wakeUpInternal@NpArticulation@physx@@QAEX_N0@Z 10044200 f   NpArticulation.obj
 0001:000433a0       ?visualize@NpArticulation@physx@@QAEXAAVRenderOutput@Cm@2@PAVNpScene@2@@Z 100443a0 f   NpArticulation.obj
 0001:000433d0       ?NpArticulationGetRootFromScb@physx@@YAPAVBody@Scb@1@AAVArticulation@31@@Z 100443d0 f   NpArticulation.obj
 0001:00043b90       ??$exportArray@PAVNpArticulationLink@physx@@V?$InlineAllocator@$0BA@VNamedAllocator@shdfnd@physx@@@shdfnd@2@@Cm@physx@@YAXABV?$Array@PAVNpArticulationLink@physx@@V?$InlineAllocator@$0BA@VNamedAllocator@shdfnd@physx@@@shdfnd@2@@shdfnd@1@AAVPxSerializationContext@1@@Z 10044b90 f i NpArticulation.obj
 0001:00043be0       ??$exportInlineArray@PAVNpArticulationLink@physx@@$03VNamedAllocator@shdfnd@2@@Cm@physx@@YAXABV?$InlineArray@PAVNpArticulationLink@physx@@$03VNamedAllocator@shdfnd@2@@shdfnd@1@AAVPxSerializationContext@1@@Z 10044be0 f i NpArticulation.obj
 0001:00043c30       ??$importArray@PAVNpArticulationLink@physx@@V?$InlineAllocator@$0BA@VNamedAllocator@shdfnd@physx@@@shdfnd@2@@Cm@physx@@YAXAAV?$Array@PAVNpArticulationLink@physx@@V?$InlineAllocator@$0BA@VNamedAllocator@shdfnd@physx@@@shdfnd@2@@shdfnd@1@AAVPxDeserializationContext@1@@Z 10044c30 f i NpArticulation.obj
 0001:00043c80       ??$importInlineArray@PAVNpArticulationLink@physx@@$03VNamedAllocator@shdfnd@2@@Cm@physx@@YAXAAV?$InlineArray@PAVNpArticulationLink@physx@@$03VNamedAllocator@shdfnd@2@@shdfnd@1@AAVPxDeserializationContext@1@@Z 10044c80 f i NpArticulation.obj
 0001:00043cd0       ??0?$InlineArray@PAVNpArticulationLink@physx@@$03VNamedAllocator@shdfnd@2@@shdfnd@physx@@QAE@ABVNamedAllocator@12@@Z 10044cd0 f i NpArticulation.obj
 0001:00043d80       ??0NpArticulation@physx@@QAE@V?$PxFlags@W4Enum@PxBaseFlag@physx@@G@1@@Z 10044d80 f i NpArticulation.obj
 0001:00043e10       ??1PxArticulation@physx@@MAE@XZ 10044e10 f i NpArticulation.obj
 0001:00043e20       ??_GNpArticulation@physx@@UAEPAXI@Z 10044e20 f i NpArticulation.obj
 0001:00043e20       ??_ENpArticulation@physx@@UAEPAXI@Z 10044e20 f i NpArticulation.obj
 0001:00043ed0       ??_GPxArticulation@physx@@MAEPAXI@Z 10044ed0 f i NpArticulation.obj
 0001:00043ed0       ??_EPxArticulation@physx@@MAEPAXI@Z 10044ed0 f i NpArticulation.obj
 0001:00043f00       ?getConcreteTypeName@PxArticulation@physx@@UBEPBDXZ 10044f00 f i NpArticulation.obj
 0001:00043f10       ?isFinite@PxVec3@physx@@QBE_NXZ 10044f10 f i NpArticulation.obj
 0001:00043f90       ?isKindOf@PxArticulation@physx@@MBE_NPBD@Z 10044f90 f i NpArticulation.obj
 0001:00044030       ?setExternalDriveIterations@Articulation@Scb@physx@@QAEXI@Z 10045030 f i NpArticulation.obj
 0001:000440f0       ?setFreezeThreshold@Articulation@Scb@physx@@QAEXM@Z 100450f0 f i NpArticulation.obj
 0001:000441c0       ?setInternalDriveIterations@Articulation@Scb@physx@@QAEXI@Z 100451c0 f i NpArticulation.obj
 0001:00044280       ?setMaxProjectionIterations@Articulation@Scb@physx@@QAEXI@Z 10045280 f i NpArticulation.obj
 0001:00044340       ?setSeparationTolerance@Articulation@Scb@physx@@QAEXM@Z 10045340 f i NpArticulation.obj
 0001:00044410       ?setSleepThreshold@Articulation@Scb@physx@@QAEXM@Z 10045410 f i NpArticulation.obj
 0001:000444e0       ?setSolverIterationCounts@Articulation@Scb@physx@@QAEXG@Z 100454e0 f i NpArticulation.obj
 0001:000445a0       ?setWakeCounter@Articulation@Scb@physx@@QAEXM@Z 100455a0 f i NpArticulation.obj
 0001:000446a0       ?setWakeCounter@Body@Scb@physx@@QAEXM@Z 100456a0 f i NpArticulation.obj
 0001:000447a0       ?wakeUpInternal@Body@Scb@physx@@QAEXM@Z 100457a0 f i NpArticulation.obj
 0001:00044850       ?NpArticulationJointGetBodiesFromScb@physx@@YAXAAVArticulationJoint@Scb@1@AAPAVBody@31@1@Z 10045850 f   NpArticulationJoint.obj
 0001:00044880       ?resolveReferences@NpArticulationJoint@physx@@UAEXAAVPxDeserializationContext@2@@Z 10045880 f   NpArticulationJoint.obj
 0001:000448e0       ?createObject@NpArticulationJoint@physx@@SAPAV12@AAPAEAAVPxDeserializationContext@2@@Z 100458e0 f   NpArticulationJoint.obj
 0001:00044930       ??0NpArticulationJoint@physx@@QAE@AAVNpArticulationLink@1@ABVPxTransform@1@01@Z 10045930 f   NpArticulationJoint.obj
 0001:00044990       ??1NpArticulationJoint@physx@@UAE@XZ 10045990 f   NpArticulationJoint.obj
 0001:000449b0       ?getParentPose@NpArticulationJoint@physx@@UBE?AVPxTransform@2@XZ 100459b0 f   NpArticulationJoint.obj
 0001:00044c70       ?setParentPose@NpArticulationJoint@physx@@UAEXABVPxTransform@2@@Z 10045c70 f   NpArticulationJoint.obj
 0001:00045010       ?getChildPose@NpArticulationJoint@physx@@UBE?AVPxTransform@2@XZ 10046010 f   NpArticulationJoint.obj
 0001:000452e0       ?setChildPose@NpArticulationJoint@physx@@UAEXABVPxTransform@2@@Z 100462e0 f   NpArticulationJoint.obj
 0001:00045680       ?setTargetOrientation@NpArticulationJoint@physx@@UAEXABVPxQuat@2@@Z 10046680 f   NpArticulationJoint.obj
 0001:00045870       ?getTargetOrientation@NpArticulationJoint@physx@@UBE?AVPxQuat@2@XZ 10046870 f   NpArticulationJoint.obj
 0001:000458e0       ?setTargetVelocity@NpArticulationJoint@physx@@UAEXABVPxVec3@2@@Z 100468e0 f   NpArticulationJoint.obj
 0001:00045a00       ?getTargetVelocity@NpArticulationJoint@physx@@UBE?AVPxVec3@2@XZ 10046a00 f   NpArticulationJoint.obj
 0001:00045a60       ?setDriveType@NpArticulationJoint@physx@@UAEXW4Enum@PxArticulationJointDriveType@2@@Z 10046a60 f   NpArticulationJoint.obj
 0001:00045ab0       ?getDriveType@NpArticulationJoint@physx@@UBE?AW4Enum@PxArticulationJointDriveType@2@XZ 10046ab0 f   NpArticulationJoint.obj
 0001:00045b10       ?setStiffness@NpArticulationJoint@physx@@UAEXM@Z 10046b10 f   NpArticulationJoint.obj
 0001:00045be0       ?getStiffness@NpArticulationJoint@physx@@UBEMXZ 10046be0 f   NpArticulationJoint.obj
 0001:00045c40       ?setDamping@NpArticulationJoint@physx@@UAEXM@Z 10046c40 f   NpArticulationJoint.obj
 0001:00045d10       ?getDamping@NpArticulationJoint@physx@@UBEMXZ 10046d10 f   NpArticulationJoint.obj
 0001:00045d70       ?setInternalCompliance@NpArticulationJoint@physx@@UAEXM@Z 10046d70 f   NpArticulationJoint.obj
 0001:00045e40       ?getInternalCompliance@NpArticulationJoint@physx@@UBEMXZ 10046e40 f   NpArticulationJoint.obj
 0001:00045ea0       ?setExternalCompliance@NpArticulationJoint@physx@@UAEXM@Z 10046ea0 f   NpArticulationJoint.obj
 0001:00045f70       ?getExternalCompliance@NpArticulationJoint@physx@@UBEMXZ 10046f70 f   NpArticulationJoint.obj
 0001:00045fd0       ?setSwingLimit@NpArticulationJoint@physx@@UAEXMM@Z 10046fd0 f   NpArticulationJoint.obj
 0001:00046120       ?getSwingLimit@NpArticulationJoint@physx@@UBEXAAM0@Z 10047120 f   NpArticulationJoint.obj
 0001:000461a0       ?setTangentialStiffness@NpArticulationJoint@physx@@UAEXM@Z 100471a0 f   NpArticulationJoint.obj
 0001:00046270       ?getTangentialStiffness@NpArticulationJoint@physx@@UBEMXZ 10047270 f   NpArticulationJoint.obj
 0001:000462d0       ?setTangentialDamping@NpArticulationJoint@physx@@UAEXM@Z 100472d0 f   NpArticulationJoint.obj
 0001:000463a0       ?getTangentialDamping@NpArticulationJoint@physx@@UBEMXZ 100473a0 f   NpArticulationJoint.obj
 0001:00046400       ?setSwingLimitEnabled@NpArticulationJoint@physx@@UAEX_N@Z 10047400 f   NpArticulationJoint.obj
 0001:00046450       ?getSwingLimitEnabled@NpArticulationJoint@physx@@UBE_NXZ 10047450 f   NpArticulationJoint.obj
 0001:000464b0       ?setSwingLimitContactDistance@NpArticulationJoint@physx@@UAEXM@Z 100474b0 f   NpArticulationJoint.obj
 0001:00046580       ?getSwingLimitContactDistance@NpArticulationJoint@physx@@UBEMXZ 10047580 f   NpArticulationJoint.obj
 0001:000465e0       ?setTwistLimit@NpArticulationJoint@physx@@UAEXMM@Z 100475e0 f   NpArticulationJoint.obj
 0001:00046730       ?getTwistLimit@NpArticulationJoint@physx@@UBEXAAM0@Z 10047730 f   NpArticulationJoint.obj
 0001:000467b0       ?setTwistLimitEnabled@NpArticulationJoint@physx@@UAEX_N@Z 100477b0 f   NpArticulationJoint.obj
 0001:00046800       ?getTwistLimitEnabled@NpArticulationJoint@physx@@UBE_NXZ 10047800 f   NpArticulationJoint.obj
 0001:00046860       ?setTwistLimitContactDistance@NpArticulationJoint@physx@@UAEXM@Z 10047860 f   NpArticulationJoint.obj
 0001:00046930       ?getTwistLimitContactDistance@NpArticulationJoint@physx@@UBEMXZ 10047930 f   NpArticulationJoint.obj
 0001:00046990       ?release@NpArticulationJoint@physx@@UAEXXZ 10047990 f   NpArticulationJoint.obj
 0001:000469f0       ?getOwnerScene@NpArticulationJoint@physx@@ABEPAVNpScene@2@XZ 100479f0 f   NpArticulationJoint.obj
 0001:00047270       ??1PxArticulationJoint@physx@@MAE@XZ 10048270 f i NpArticulationJoint.obj
 0001:00047280       ??_GNpArticulationJoint@physx@@UAEPAXI@Z 10048280 f i NpArticulationJoint.obj
 0001:00047280       ??_ENpArticulationJoint@physx@@UAEPAXI@Z 10048280 f i NpArticulationJoint.obj
 0001:000472e0       ??_GPxArticulationJoint@physx@@MAEPAXI@Z 100482e0 f i NpArticulationJoint.obj
 0001:000472e0       ??_EPxArticulationJoint@physx@@MAEPAXI@Z 100482e0 f i NpArticulationJoint.obj
 0001:00047310       ?getConcreteTypeName@PxArticulationJoint@physx@@UBEPBDXZ 10048310 f i NpArticulationJoint.obj
 0001:00047320       ?isKindOf@PxArticulationJoint@physx@@MBE_NPBD@Z 10048320 f i NpArticulationJoint.obj
 0001:000473c0       ?isSubordinate@NpArticulationJoint@physx@@UBE_NXZ 100483c0 f i NpArticulationJoint.obj
 0001:000473d0       ?isUnit@PxQuat@physx@@QBE_NXZ 100483d0 f i NpArticulationJoint.obj
 0001:000474f0       ?requires@NpArticulationJoint@physx@@UAEXAAVPxProcessPxBaseCallback@2@@Z 100484f0 f i NpArticulationJoint.obj
 0001:00047500       ?setChildPose@ArticulationJoint@Scb@physx@@QAEXABVPxTransform@3@@Z 10048500 f i NpArticulationJoint.obj
 0001:000475f0       ?setDamping@ArticulationJoint@Scb@physx@@QAEXM@Z 100485f0 f i NpArticulationJoint.obj
 0001:000476c0       ?setDriveType@ArticulationJoint@Scb@physx@@QAEXW4Enum@PxArticulationJointDriveType@3@@Z 100486c0 f i NpArticulationJoint.obj
 0001:00047780       ?setExternalCompliance@ArticulationJoint@Scb@physx@@QAEXM@Z 10048780 f i NpArticulationJoint.obj
 0001:00047850       ?setInternalCompliance@ArticulationJoint@Scb@physx@@QAEXM@Z 10048850 f i NpArticulationJoint.obj
 0001:00047920       ?setParentPose@ArticulationJoint@Scb@physx@@QAEXABVPxTransform@3@@Z 10048920 f i NpArticulationJoint.obj
 0001:00047a10       ?setStiffness@ArticulationJoint@Scb@physx@@QAEXM@Z 10048a10 f i NpArticulationJoint.obj
 0001:00047ae0       ?setSwingLimit@ArticulationJoint@Scb@physx@@QAEXMM@Z 10048ae0 f i NpArticulationJoint.obj
 0001:00047bb0       ?setSwingLimitContactDistance@ArticulationJoint@Scb@physx@@QAEXM@Z 10048bb0 f i NpArticulationJoint.obj
 0001:00047c80       ?setSwingLimitEnabled@ArticulationJoint@Scb@physx@@QAEX_N@Z 10048c80 f i NpArticulationJoint.obj
 0001:00047d40       ?setTangentialDamping@ArticulationJoint@Scb@physx@@QAEXM@Z 10048d40 f i NpArticulationJoint.obj
 0001:00047e10       ?setTangentialStiffness@ArticulationJoint@Scb@physx@@QAEXM@Z 10048e10 f i NpArticulationJoint.obj
 0001:00047ee0       ?setTargetOrientation@ArticulationJoint@Scb@physx@@QAEXABVPxQuat@3@@Z 10048ee0 f i NpArticulationJoint.obj
 0001:00047fc0       ?setTargetVelocity@ArticulationJoint@Scb@physx@@QAEXABVPxVec3@3@@Z 10048fc0 f i NpArticulationJoint.obj
 0001:00048090       ?setTwistLimit@ArticulationJoint@Scb@physx@@QAEXMM@Z 10049090 f i NpArticulationJoint.obj
 0001:00048160       ?setTwistLimitContactDistance@ArticulationJoint@Scb@physx@@QAEXM@Z 10049160 f i NpArticulationJoint.obj
 0001:00048230       ?setTwistLimitEnabled@ArticulationJoint@Scb@physx@@QAEX_N@Z 10049230 f i NpArticulationJoint.obj
 0001:000482f0       ?exportExtraData@NpArticulationLink@physx@@UAEXAAVPxSerializationContext@2@@Z 100492f0 f   NpArticulationLink.obj
 0001:00048360       ?importExtraData@NpArticulationLink@physx@@QAEXAAVPxDeserializationContext@2@@Z 10049360 f   NpArticulationLink.obj
 0001:000483d0       ?resolveReferences@NpArticulationLink@physx@@UAEXAAVPxDeserializationContext@2@@Z 100493d0 f   NpArticulationLink.obj
 0001:00048490       ?requires@NpArticulationLink@physx@@UAEXAAVPxProcessPxBaseCallback@2@@Z 10049490 f   NpArticulationLink.obj
 0001:000484f0       ?createObject@NpArticulationLink@physx@@SAPAV12@AAPAEAAVPxDeserializationContext@2@@Z 100494f0 f   NpArticulationLink.obj
 0001:00048570       ??1NpArticulationLink@physx@@UAE@XZ 10049570 f   NpArticulationLink.obj
 0001:000485f0       ?release@NpArticulationLink@physx@@UAEXXZ 100495f0 f   NpArticulationLink.obj
 0001:000486b0       ?setGlobalPose@NpArticulationLink@physx@@UAEXABVPxTransform@2@@Z 100496b0 f   NpArticulationLink.obj
 0001:000486d0       ?setGlobalPose@NpArticulationLink@physx@@UAEXABVPxTransform@2@_N@Z 100496d0 f   NpArticulationLink.obj
 0001:000489b0       ?getGlobalPose@NpArticulationLink@physx@@UBE?AVPxTransform@2@XZ 100499b0 f   NpArticulationLink.obj
 0001:00048da0       ?setLinearVelocity@NpArticulationLink@physx@@UAEXABVPxVec3@2@_N@Z 10049da0 f   NpArticulationLink.obj
 0001:00048f10       ?setAngularVelocity@NpArticulationLink@physx@@UAEXABVPxVec3@2@_N@Z 10049f10 f   NpArticulationLink.obj
 0001:00049080       ?getArticulation@NpArticulationLink@physx@@UBEAAVPxArticulation@2@XZ 1004a080 f   NpArticulationLink.obj
 0001:000490c0       ?getInboundJoint@NpArticulationLink@physx@@UBEPAVPxArticulationJoint@2@XZ 1004a0c0 f   NpArticulationLink.obj
 0001:00049100       ?getNbChildren@NpArticulationLink@physx@@UBEIXZ 1004a100 f   NpArticulationLink.obj
 0001:00049140       ?getChildren@NpArticulationLink@physx@@UBEIPAPAVPxArticulationLink@2@I@Z 1004a140 f   NpArticulationLink.obj
 0001:000491b0       ?setCMassLocalPose@NpArticulationLink@physx@@UAEXABVPxTransform@2@@Z 1004a1b0 f   NpArticulationLink.obj
 0001:000499d0       ?addForce@NpArticulationLink@physx@@UAEXABVPxVec3@2@W4Enum@PxForceMode@2@_N@Z 1004a9d0 f   NpArticulationLink.obj
 0001:00049b80       ?addTorque@NpArticulationLink@physx@@UAEXABVPxVec3@2@W4Enum@PxForceMode@2@_N@Z 1004ab80 f   NpArticulationLink.obj
 0001:00049d30       ?clearForce@NpArticulationLink@physx@@UAEXW4Enum@PxForceMode@2@@Z 1004ad30 f   NpArticulationLink.obj
 0001:00049df0       ?clearTorque@NpArticulationLink@physx@@UAEXW4Enum@PxForceMode@2@@Z 1004adf0 f   NpArticulationLink.obj
 0001:00049eb0       ??0NpArticulationLink@physx@@QAE@ABVPxTransform@1@AAVNpArticulation@1@PAV01@@Z 1004aeb0 f   NpArticulationLink.obj
 0001:00049fd0       ?releaseInternal@NpArticulationLink@physx@@QAEXXZ 1004afd0 f   NpArticulationLink.obj
 0001:0004a090       ?visualize@NpArticulationLink@physx@@QAEXAAVRenderOutput@Cm@2@PAVNpScene@2@@Z 1004b090 f   NpArticulationLink.obj
 0001:0004a350       ?visualizeJoint@NpArticulationLink@physx@@QAEXAAVPxConstraintVisualizer@2@@Z 1004b350 f   NpArticulationLink.obj
 0001:0004b6f0       ??$getConnectors@VPxConstraint@physx@@@NpActor@physx@@QBEIW4Enum@NpConnectorType@1@PAPAVPxConstraint@1@II@Z 1004c6f0 f i NpArticulationLink.obj
 0001:0004b760       ??0?$NpActorTemplate@VPxArticulationLink@physx@@@physx@@QAE@GV?$PxFlags@W4Enum@PxBaseFlag@physx@@G@1@PBDPAX@Z 1004c760 f i NpArticulationLink.obj
 0001:0004b7c0       ??0?$NpRigidActorTemplate@VPxArticulationLink@physx@@@physx@@QAE@GV?$PxFlags@W4Enum@PxBaseFlag@physx@@G@1@@Z 1004c7c0 f i NpArticulationLink.obj
 0001:0004b820       ??0?$NpRigidBodyTemplate@VPxArticulationLink@physx@@@physx@@QAE@GV?$PxFlags@W4Enum@PxBaseFlag@physx@@G@1@W4Enum@PxActorType@1@ABVPxTransform@1@@Z 1004c820 f i NpArticulationLink.obj
 0001:0004b8a0       ??0?$NpRigidBodyTemplate@VPxArticulationLink@physx@@@physx@@QAE@V?$PxFlags@W4Enum@PxBaseFlag@physx@@G@1@@Z 1004c8a0 f i NpArticulationLink.obj
 0001:0004b940       ??0Body@Scb@physx@@QAE@W4Enum@PxActorType@2@ABVPxTransform@2@@Z 1004c940 f i NpArticulationLink.obj
 0001:0004ba50       ??0PxMat44@physx@@QAE@W4PxIDENTITY@1@@Z 1004ca50 f i NpArticulationLink.obj
 0001:0004baf0       ??1?$NpActorTemplate@VPxArticulationLink@physx@@@physx@@UAE@XZ 1004caf0 f i NpArticulationLink.obj
 0001:0004bb20       ??1?$NpRigidActorTemplate@VPxArticulationLink@physx@@@physx@@UAE@XZ 1004cb20 f i NpArticulationLink.obj
 0001:0004bb60       ??1?$NpRigidBodyTemplate@VPxArticulationLink@physx@@@physx@@UAE@XZ 1004cb60 f i NpArticulationLink.obj
 0001:0004bbb0       ??1PxArticulationLink@physx@@MAE@XZ 1004cbb0 f i NpArticulationLink.obj
 0001:0004bbc0       ??1PxConstraintVisualizer@physx@@MAE@XZ 1004cbc0 f i NpArticulationLink.obj
 0001:0004bbd0       ??1PxRigidActor@physx@@MAE@XZ 1004cbd0 f i NpArticulationLink.obj
 0001:0004bbe0       ??1PxRigidBody@physx@@MAE@XZ 1004cbe0 f i NpArticulationLink.obj
 0001:0004bbf0       ??_E?$NpActorTemplate@VPxArticulationLink@physx@@@physx@@UAEPAXI@Z 1004cbf0 f i NpArticulationLink.obj
 0001:0004bbf0       ??_G?$NpActorTemplate@VPxArticulationLink@physx@@@physx@@UAEPAXI@Z 1004cbf0 f i NpArticulationLink.obj
 0001:0004bc60       ??_E?$NpRigidActorTemplate@VPxArticulationLink@physx@@@physx@@UAEPAXI@Z 1004cc60 f i NpArticulationLink.obj
 0001:0004bc60       ??_G?$NpRigidActorTemplate@VPxArticulationLink@physx@@@physx@@UAEPAXI@Z 1004cc60 f i NpArticulationLink.obj
 0001:0004bce0       ??_E?$NpRigidBodyTemplate@VPxArticulationLink@physx@@@physx@@UAEPAXI@Z 1004cce0 f i NpArticulationLink.obj
 0001:0004bce0       ??_G?$NpRigidBodyTemplate@VPxArticulationLink@physx@@@physx@@UAEPAXI@Z 1004cce0 f i NpArticulationLink.obj
 0001:0004bd70       ??_EConstraintImmediateVisualizer@Cm@physx@@UAEPAXI@Z 1004cd70 f i NpArticulationLink.obj
 0001:0004bd70       ??_GConstraintImmediateVisualizer@Cm@physx@@UAEPAXI@Z 1004cd70 f i NpArticulationLink.obj
 0001:0004bda0       ??_ENpArticulationLink@physx@@UAEPAXI@Z 1004cda0 f i NpArticulationLink.obj
 0001:0004bda0       ??_GNpArticulationLink@physx@@UAEPAXI@Z 1004cda0 f i NpArticulationLink.obj
 0001:0004bdf0       ??_EPxArticulationLink@physx@@MAEPAXI@Z 1004cdf0 f i NpArticulationLink.obj
 0001:0004bdf0       ??_GPxArticulationLink@physx@@MAEPAXI@Z 1004cdf0 f i NpArticulationLink.obj
 0001:0004be20       ??_GPxConstraintVisualizer@physx@@MAEPAXI@Z 1004ce20 f i NpArticulationLink.obj
 0001:0004be20       ??_EPxConstraintVisualizer@physx@@MAEPAXI@Z 1004ce20 f i NpArticulationLink.obj
 0001:0004be50       ??_GPxRigidActor@physx@@MAEPAXI@Z 1004ce50 f i NpArticulationLink.obj
 0001:0004be50       ??_EPxRigidActor@physx@@MAEPAXI@Z 1004ce50 f i NpArticulationLink.obj
 0001:0004be80       ??_EPxRigidBody@physx@@MAEPAXI@Z 1004ce80 f i NpArticulationLink.obj
 0001:0004be80       ??_GPxRigidBody@physx@@MAEPAXI@Z 1004ce80 f i NpArticulationLink.obj
 0001:0004beb0       ?addSpatialAcceleration@Body@Scb@physx@@QAEXPBVPxVec3@3@0@Z 1004ceb0 f i NpArticulationLink.obj
 0001:0004c000       ?addSpatialForce@?$NpRigidBodyTemplate@VPxArticulationLink@physx@@@physx@@IAEXPBVPxVec3@2@0W4Enum@PxForceMode@2@@Z 1004d000 f i NpArticulationLink.obj
 0001:0004c310       ?addSpatialVelocity@Body@Scb@physx@@QAEXPBVPxVec3@3@0@Z 1004d310 f i NpArticulationLink.obj
 0001:0004c4b0       ?attachShape@?$NpRigidActorTemplate@VPxArticulationLink@physx@@@physx@@UAEXAAVPxShape@2@@Z 1004d4b0 f i NpArticulationLink.obj
 0001:0004c580       ?attachShape@?$NpRigidBodyTemplate@VPxArticulationLink@physx@@@physx@@UAEXAAVPxShape@2@@Z 1004d580 f i NpArticulationLink.obj
 0001:0004c6e0       ?clearSpatialAcceleration@Body@Scb@physx@@QAEX_N0@Z 1004d6e0 f i NpArticulationLink.obj
 0001:0004c780       ?clearSpatialForce@?$NpRigidBodyTemplate@VPxArticulationLink@physx@@@physx@@IAEXW4Enum@PxForceMode@2@_N1@Z 1004d780 f i NpArticulationLink.obj
 0001:0004c7e0       ?clearSpatialVelocity@Body@Scb@physx@@QAEX_N0@Z 1004d7e0 f i NpArticulationLink.obj
 0001:0004c8c0       ?createShape@?$NpRigidBodyTemplate@VPxArticulationLink@physx@@@physx@@UAEPAVPxShape@2@ABVPxGeometry@2@PBQAVPxMaterial@2@GV?$PxFlags@W4Enum@PxShapeFlag@physx@@E@2@@Z 1004d8c0 f i NpArticulationLink.obj
 0001:0004ca30       ?detachShape@?$NpRigidActorTemplate@VPxArticulationLink@physx@@@physx@@UAEXAAVPxShape@2@_N@Z 1004da30 f i NpArticulationLink.obj
 0001:0004caf0       ?exportExtraData@?$NpActorTemplate@VPxArticulationLink@physx@@@physx@@UAEXAAVPxSerializationContext@2@@Z 1004daf0 f i NpArticulationLink.obj
 0001:0004cb00       ?exportExtraData@?$NpRigidActorTemplate@VPxArticulationLink@physx@@@physx@@UAEXAAVPxSerializationContext@2@@Z 1004db00 f i NpArticulationLink.obj
 0001:0004cb30       ?getActorFlags@?$NpActorTemplate@VPxArticulationLink@physx@@@physx@@UBE?AV?$PxFlags@W4Enum@PxActorFlag@physx@@G@2@XZ 1004db30 f i NpArticulationLink.obj
 0001:0004cbb0       ?getAggregate@?$NpActorTemplate@VPxArticulationLink@physx@@@physx@@UBEPAVPxAggregate@2@XZ 1004dbb0 f i NpArticulationLink.obj
 0001:0004cbc0       ?getAngularVelocity@?$NpRigidBodyTemplate@VPxArticulationLink@physx@@@physx@@UBE?AVPxVec3@2@XZ 1004dbc0 f i NpArticulationLink.obj
 0001:0004cc30       ?getCMassLocalPose@?$NpRigidBodyTemplate@VPxArticulationLink@physx@@@physx@@UBE?AVPxTransform@2@XZ 1004dc30 f i NpArticulationLink.obj
 0001:0004ccd0       ?getClientBehaviorFlags@?$NpActorTemplate@VPxArticulationLink@physx@@@physx@@UBE?AV?$PxFlags@W4Enum@PxActorClientBehaviorFlag@physx@@E@2@XZ 1004dcd0 f i NpArticulationLink.obj
 0001:0004cd50       ?getConcreteTypeName@PxArticulationLink@physx@@UBEPBDXZ 1004dd50 f i NpArticulationLink.obj
 0001:0004cd60       ?getConstraints@?$NpRigidActorTemplate@VPxArticulationLink@physx@@@physx@@UBEIPAPAVPxConstraint@2@II@Z 1004dd60 f i NpArticulationLink.obj
 0001:0004cdc0       ?getDominanceGroup@?$NpActorTemplate@VPxArticulationLink@physx@@@physx@@UBEEXZ 1004ddc0 f i NpArticulationLink.obj
 0001:0004ce50       ?getGlobalInertiaTensorInverse@Body@Scb@physx@@QBE?AVPxMat33@3@XZ 1004de50 f i NpArticulationLink.obj
 0001:0004d190       ?getInvMass@?$NpRigidBodyTemplate@VPxArticulationLink@physx@@@physx@@UBEMXZ 1004e190 f i NpArticulationLink.obj
 0001:0004d210       ?getInverseMass@Body@Scb@physx@@QBEMXZ 1004e210 f i NpArticulationLink.obj
 0001:0004d250       ?getKinematicTarget@Body@Scb@physx@@QBE_NAAVPxTransform@3@@Z 1004e250 f i NpArticulationLink.obj
 0001:0004d2d0       ?getLinearVelocity@?$NpRigidBodyTemplate@VPxArticulationLink@physx@@@physx@@UBE?AVPxVec3@2@XZ 1004e2d0 f i NpArticulationLink.obj
 0001:0004d340       ?getMass@?$NpRigidBodyTemplate@VPxArticulationLink@physx@@@physx@@UBEMXZ 1004e340 f i NpArticulationLink.obj
 0001:0004d3f0       ?getMassSpaceInertiaTensor@?$NpRigidBodyTemplate@VPxArticulationLink@physx@@@physx@@UBE?AVPxVec3@2@XZ 1004e3f0 f i NpArticulationLink.obj
 0001:0004d4d0       ?getMassSpaceInvInertiaTensor@?$NpRigidBodyTemplate@VPxArticulationLink@physx@@@physx@@UBE?AVPxVec3@2@XZ 1004e4d0 f i NpArticulationLink.obj
 0001:0004d550       ?getMaxDepenetrationVelocity@?$NpRigidBodyTemplate@VPxArticulationLink@physx@@@physx@@UBEMXZ 1004e550 f i NpArticulationLink.obj
 0001:0004d5b0       ?getMinCCDAdvanceCoefficient@?$NpRigidBodyTemplate@VPxArticulationLink@physx@@@physx@@UBEMXZ 1004e5b0 f i NpArticulationLink.obj
 0001:0004d600       ?getName@?$NpActorTemplate@VPxArticulationLink@physx@@@physx@@UBEPBDXZ 1004e600 f i NpArticulationLink.obj
 0001:0004d640       ?getNbConstraints@?$NpRigidActorTemplate@VPxArticulationLink@physx@@@physx@@UBEIXZ 1004e640 f i NpArticulationLink.obj
 0001:0004d690       ?getNbShapes@?$NpRigidActorTemplate@VPxArticulationLink@physx@@@physx@@UBEIXZ 1004e690 f i NpArticulationLink.obj
 0001:0004d6d0       ?getOwnerClient@?$NpActorTemplate@VPxArticulationLink@physx@@@physx@@UBEEXZ 1004e6d0 f i NpArticulationLink.obj
 0001:0004d700       ?getRigidBodyFlags@?$NpRigidBodyTemplate@VPxArticulationLink@physx@@@physx@@UBE?AV?$PxFlags@W4Enum@PxRigidBodyFlag@physx@@E@2@XZ 1004e700 f i NpArticulationLink.obj
 0001:0004d770       ?getRigidDynamicFlags@?$NpRigidBodyTemplate@VPxArticulationLink@physx@@@physx@@UBE?AV?$PxFlags@W4Enum@PxRigidBodyFlag@physx@@E@2@XZ 1004e770 f i NpArticulationLink.obj
 0001:0004d7e0       ?getScene@?$NpActorTemplate@VPxArticulationLink@physx@@@physx@@UBEPAVPxScene@2@XZ 1004e7e0 f i NpArticulationLink.obj
 0001:0004d7f0       ?getShapes@?$NpRigidActorTemplate@VPxArticulationLink@physx@@@physx@@UBEIPAPAVPxShape@2@II@Z 1004e7f0 f i NpArticulationLink.obj
 0001:0004d850       ?getType@NpArticulationLink@physx@@UBE?AW4Enum@PxActorType@2@XZ 1004e850 f i NpArticulationLink.obj
 0001:0004d860       ?getWorldBounds@?$NpRigidActorTemplate@VPxArticulationLink@physx@@@physx@@UBE?AVPxBounds3@2@M@Z 1004e860 f i NpArticulationLink.obj
 0001:0004d9c0       ?growAndPushBack@?$Array@PAVNpArticulationLink@physx@@V?$InlineAllocator@$0BA@VNamedAllocator@shdfnd@physx@@@shdfnd@2@@shdfnd@physx@@IAEAAPAVNpArticulationLink@3@ABQAV43@@Z 1004e9c0 f i NpArticulationLink.obj
 0001:0004dae0       ?importExtraData@?$NpRigidActorTemplate@VPxArticulationLink@physx@@@physx@@QAEXAAVPxDeserializationContext@2@@Z 1004eae0 f i NpArticulationLink.obj
 0001:0004db10       ?invertDiagInertia@physx@@YA?AVPxVec3@1@ABV21@@Z 1004eb10 f i NpArticulationLink.obj
 0001:0004dba0       ?isKindOf@PxArticulationLink@physx@@MBE_NPBD@Z 1004eba0 f i NpArticulationLink.obj
 0001:0004dc10       ?isKindOf@PxRigidActor@physx@@MBE_NPBD@Z 1004ec10 f i NpArticulationLink.obj
 0001:0004dc80       ?isKindOf@PxRigidBody@physx@@MBE_NPBD@Z 1004ec80 f i NpArticulationLink.obj
 0001:0004dd30       ?isSubordinate@NpArticulationLink@physx@@UBE_NXZ 1004ed30 f i NpArticulationLink.obj
 0001:0004dd40       ?isValid@PxTransform@physx@@QBE_NXZ 1004ed40 f i NpArticulationLink.obj
 0001:0004dde0       ?release@?$NpActorTemplate@VPxArticulationLink@physx@@@physx@@UAEXXZ 1004ede0 f i NpArticulationLink.obj
 0001:0004ddf0       ?release@?$NpRigidActorTemplate@VPxArticulationLink@physx@@@physx@@UAEXXZ 1004edf0 f i NpArticulationLink.obj
 0001:0004de30       ?removeFromChildList@NpArticulationLink@physx@@AAEXAAV12@@Z 1004ee30 f i NpArticulationLink.obj
 0001:0004de90       ?requires@?$NpRigidActorTemplate@VPxArticulationLink@physx@@@physx@@UAEXAAVPxProcessPxBaseCallback@2@@Z 1004ee90 f i NpArticulationLink.obj
 0001:0004def0       ?resetAccumulator@Body@Scb@physx@@AAEXAAVPxVec3@3@0II_N1@Z 1004eef0 f i NpArticulationLink.obj
 0001:0004df70       ?resolveReferences@?$NpActorTemplate@VPxArticulationLink@physx@@@physx@@UAEXAAVPxDeserializationContext@2@@Z 1004ef70 f i NpArticulationLink.obj
 0001:0004df80       ?resolveReferences@?$NpRigidActorTemplate@VPxArticulationLink@physx@@@physx@@UAEXAAVPxDeserializationContext@2@@Z 1004ef80 f i NpArticulationLink.obj
 0001:0004e010       ?setActorFlag@?$NpActorTemplate@VPxArticulationLink@physx@@@physx@@UAEXW4Enum@PxActorFlag@2@_N@Z 1004f010 f i NpArticulationLink.obj
 0001:0004e0e0       ?setActorFlag@?$NpRigidActorTemplate@VPxArticulationLink@physx@@@physx@@UAEXW4Enum@PxActorFlag@2@_N@Z 1004f0e0 f i NpArticulationLink.obj
 0001:0004e360       ?setActorFlags@?$NpActorTemplate@VPxArticulationLink@physx@@@physx@@UAEXV?$PxFlags@W4Enum@PxActorFlag@physx@@G@2@@Z 1004f360 f i NpArticulationLink.obj
 0001:0004e3c0       ?setActorFlags@?$NpRigidActorTemplate@VPxArticulationLink@physx@@@physx@@UAEXV?$PxFlags@W4Enum@PxActorFlag@physx@@G@2@@Z 1004f3c0 f i NpArticulationLink.obj
 0001:0004e5c0       ?setBody2Actor@Body@Scb@physx@@QAEXABVPxTransform@3@@Z 1004f5c0 f i NpArticulationLink.obj
 0001:0004e700       ?setBody2World@Body@Scb@physx@@QAEXABVPxTransform@3@_N@Z 1004f700 f i NpArticulationLink.obj
 0001:0004e830       ?setCMassLocalPoseInternal@?$NpRigidBodyTemplate@VPxArticulationLink@physx@@@physx@@IAEXABVPxTransform@2@@Z 1004f830 f i NpArticulationLink.obj
 0001:0004eb10       ?setClientBehaviorFlags@?$NpActorTemplate@VPxArticulationLink@physx@@@physx@@UAEXV?$PxFlags@W4Enum@PxActorClientBehaviorFlag@physx@@E@2@@Z 1004fb10 f i NpArticulationLink.obj
 0001:0004eb70       ?setClientBehaviorFlags@?$NpRigidActorTemplate@VPxArticulationLink@physx@@@physx@@UAEXV?$PxFlags@W4Enum@PxActorClientBehaviorFlag@physx@@E@2@@Z 1004fb70 f i NpArticulationLink.obj
 0001:0004ec00       ?setDominanceGroup@?$NpActorTemplate@VPxArticulationLink@physx@@@physx@@UAEXE@Z 1004fc00 f i NpArticulationLink.obj
 0001:0004ec60       ?setFlags@Body@Scb@physx@@QAEXV?$PxFlags@W4Enum@PxRigidBodyFlag@physx@@E@3@@Z 1004fc60 f i NpArticulationLink.obj
 0001:0004ee60       ?setInverseInertia@Body@Scb@physx@@QAEXABVPxVec3@3@@Z 1004fe60 f i NpArticulationLink.obj
 0001:0004ef30       ?setInverseMass@Body@Scb@physx@@QAEXM@Z 1004ff30 f i NpArticulationLink.obj
 0001:0004f000       ?setMass@?$NpRigidBodyTemplate@VPxArticulationLink@physx@@@physx@@UAEXM@Z 10050000 f i NpArticulationLink.obj
 0001:0004f1d0       ?setMassSpaceInertiaTensor@?$NpRigidBodyTemplate@VPxArticulationLink@physx@@@physx@@UAEXABVPxVec3@2@@Z 100501d0 f i NpArticulationLink.obj
 0001:0004f440       ?setMaxDepenetrationVelocity@?$NpRigidBodyTemplate@VPxArticulationLink@physx@@@physx@@UAEXM@Z 10050440 f i NpArticulationLink.obj
 0001:0004f4b0       ?setMaxPenetrationBias@Body@Scb@physx@@QAEXM@Z 100504b0 f i NpArticulationLink.obj
 0001:0004f570       ?setMinCCDAdvanceCoefficient@?$NpRigidBodyTemplate@VPxArticulationLink@physx@@@physx@@UAEXM@Z 10050570 f i NpArticulationLink.obj
 0001:0004f590       ?setMinCCDAdvanceCoefficient@Body@Scb@physx@@QAEXM@Z 10050590 f i NpArticulationLink.obj
 0001:0004f660       ?setName@?$NpActorTemplate@VPxArticulationLink@physx@@@physx@@UAEXPBD@Z 10050660 f i NpArticulationLink.obj
 0001:0004f710       ?setOwnerClient@?$NpActorTemplate@VPxArticulationLink@physx@@@physx@@UAEXE@Z 10050710 f i NpArticulationLink.obj
 0001:0004f780       ?setRigidBodyFlag@?$NpRigidBodyTemplate@VPxArticulationLink@physx@@@physx@@UAEXW4Enum@PxRigidBodyFlag@2@_N@Z 10050780 f i NpArticulationLink.obj
 0001:0004fb00       ?setRigidBodyFlags@?$NpRigidBodyTemplate@VPxArticulationLink@physx@@@physx@@UAEXV?$PxFlags@W4Enum@PxRigidBodyFlag@physx@@E@2@@Z 10050b00 f i NpArticulationLink.obj
 0001:0004fec0       ?setRigidDynamicFlag@?$NpRigidBodyTemplate@VPxArticulationLink@physx@@@physx@@UAEXW4Enum@PxRigidBodyFlag@2@_N@Z 10050ec0 f i NpArticulationLink.obj
 0001:0004fed0       ?setRigidDynamicFlags@?$NpRigidBodyTemplate@VPxArticulationLink@physx@@@physx@@UAEXV?$PxFlags@W4Enum@PxRigidBodyFlag@physx@@E@2@@Z 10050ed0 f i NpArticulationLink.obj
 0001:0004fef0       ?switchFromNoSim@?$NpRigidActorTemplate@VPxArticulationLink@physx@@@physx@@UAEXXZ 10050ef0 f i NpArticulationLink.obj
 0001:0004ff00       ?switchToNoSim@?$NpRigidActorTemplate@VPxArticulationLink@physx@@@physx@@UAEXXZ 10050f00 f i NpArticulationLink.obj
 0001:0004ff10       ?updateShaderComs@?$NpRigidActorTemplate@VPxArticulationLink@physx@@@physx@@QAEXXZ 10050f10 f i NpArticulationLink.obj
 0001:0004ff80       ?visualize@?$NpRigidActorTemplate@VPxArticulationLink@physx@@@physx@@QAEXAAVRenderOutput@Cm@2@PAVNpScene@2@@Z 10050f80 f i NpArticulationLink.obj
 0001:0004ffa0       ?visualize@?$NpRigidBodyTemplate@VPxArticulationLink@physx@@@physx@@QAEXAAVRenderOutput@Cm@2@PAVNpScene@2@@Z 10050fa0 f i NpArticulationLink.obj
 0001:000503f0       ?visualizeAngularLimit@ConstraintImmediateVisualizer@Cm@physx@@UAEXABVPxTransform@3@MM_N@Z 100513f0 f i NpArticulationLink.obj
 0001:00050440       ?visualizeDoubleCone@ConstraintImmediateVisualizer@Cm@physx@@UAEXABVPxTransform@3@M_N@Z 10051440 f i NpArticulationLink.obj
 0001:00050480       ?visualizeJointFrames@ConstraintImmediateVisualizer@Cm@physx@@UAEXABVPxTransform@3@0@Z 10051480 f i NpArticulationLink.obj
 0001:000504b0       ?visualizeLimitCone@ConstraintImmediateVisualizer@Cm@physx@@UAEXABVPxTransform@3@MM_N@Z 100514b0 f i NpArticulationLink.obj
 0001:00050500       ?visualizeLinearLimit@ConstraintImmediateVisualizer@Cm@physx@@UAEXABVPxTransform@3@0M_N@Z 10051500 f i NpArticulationLink.obj
 0001:00050540       ??0NpBatchQuery@physx@@QAE@AAVNpScene@1@ABVPxBatchQueryDesc@1@@Z 10051540 f   NpBatchQuery.obj
 0001:00050630       ??1NpBatchQuery@physx@@UAE@XZ 10051630 f   NpBatchQuery.obj
 0001:000506a0       ?execute@NpBatchQuery@physx@@UAEXXZ 100516a0 f   NpBatchQuery.obj
 0001:00050e80       ?release@NpBatchQuery@physx@@UAEXXZ 10051e80 f   NpBatchQuery.obj
 0001:00050ed0       ?getPreFilterShader@NpBatchQuery@physx@@UBEP6A?AW4Enum@PxQueryHitType@2@UPxFilterData@2@0PBXIAAV?$PxFlags@W4Enum@PxHitFlag@physx@@G@2@@ZXZ 10051ed0 f   NpBatchQuery.obj
 0001:00050ee0       ?getPostFilterShader@NpBatchQuery@physx@@UBEP6A?AW4Enum@PxQueryHitType@2@UPxFilterData@2@0PBXIABUPxQueryHit@2@@ZXZ 10051ee0 f   NpBatchQuery.obj
 0001:00050ef0       ?getFilterShaderData@NpBatchQuery@physx@@UBEPBXXZ 10051ef0 f   NpBatchQuery.obj
 0001:00050f00       ?getFilterShaderDataSize@NpBatchQuery@physx@@UBEIXZ 10051f00 f   NpBatchQuery.obj
 0001:00050f10       ?getOwnerClient@NpBatchQuery@physx@@UBEEXZ 10051f10 f   NpBatchQuery.obj
 0001:00050f20       ?setUserMemory@NpBatchQuery@physx@@UAEXABUPxBatchQueryMemory@2@@Z 10051f20 f   NpBatchQuery.obj
 0001:00050f80       ?getUserMemory@NpBatchQuery@physx@@UAEABUPxBatchQueryMemory@2@XZ 10051f80 f   NpBatchQuery.obj
 0001:00050f90       ?raycast@NpBatchQuery@physx@@UAEXABVPxVec3@2@0MGV?$PxFlags@W4Enum@PxHitFlag@physx@@G@2@ABUPxQueryFilterData@2@PAXPBUPxQueryCache@2@@Z 10051f90 f   NpBatchQuery.obj
 0001:00051210       ?overlap@NpBatchQuery@physx@@UAEXABVPxGeometry@2@ABVPxTransform@2@GABUPxQueryFilterData@2@PAXPBUPxQueryCache@2@@Z 10052210 f   NpBatchQuery.obj
 0001:00051350       ?sweep@NpBatchQuery@physx@@UAEXABVPxGeometry@2@ABVPxTransform@2@ABVPxVec3@2@MGV?$PxFlags@W4Enum@PxHitFlag@physx@@G@2@ABUPxQueryFilterData@2@PAXPBUPxQueryCache@2@M@Z 10052350 f   NpBatchQuery.obj
 0001:00051750       ?resetResultBuffers@NpBatchQuery@physx@@AAEXXZ 10052750 f   NpBatchQuery.obj
 0001:00051830       ?finalizeExecute@NpBatchQuery@physx@@AAEXXZ 10052830 f   NpBatchQuery.obj
 0001:00051870       ?checkForSPUErrors@NpBatchQuery@physx@@AAEXXZ 10052870 f   NpBatchQuery.obj
 0001:00051880       ?writeBatchHeader@NpBatchQuery@physx@@AAEXABUBatchStreamHeader@2@@Z 10052880 f   NpBatchQuery.obj
 0001:00051e40       ??$writeStatus@U?$PxBatchQueryResult@UPxOverlapHit@physx@@@physx@@UPxOverlapHit@2@@@YAXPAU?$PxBatchQueryResult@UPxOverlapHit@physx@@@physx@@ABU?$PxHitBuffer@UPxOverlapHit@physx@@@1@PAX_N@Z 10052e40 f i NpBatchQuery.obj
 0001:00051ea0       ??$writeStatus@U?$PxBatchQueryResult@UPxRaycastHit@physx@@@physx@@UPxRaycastHit@2@@@YAXPAU?$PxBatchQueryResult@UPxRaycastHit@physx@@@physx@@ABU?$PxHitBuffer@UPxRaycastHit@physx@@@1@PAX_N@Z 10052ea0 f i NpBatchQuery.obj
 0001:00051f50       ??$writeStatus@U?$PxBatchQueryResult@UPxSweepHit@physx@@@physx@@UPxSweepHit@2@@@YAXPAU?$PxBatchQueryResult@UPxSweepHit@physx@@@physx@@ABU?$PxHitBuffer@UPxSweepHit@physx@@@1@PAX_N@Z 10052f50 f i NpBatchQuery.obj
 0001:00052000       ??0?$PxOverflowBuffer@UPxOverlapHit@physx@@@@QAE@PAUPxOverlapHit@physx@@I@Z 10053000 f i NpBatchQuery.obj
 0001:00052070       ??0?$PxOverflowBuffer@UPxRaycastHit@physx@@@@QAE@PAUPxRaycastHit@physx@@I@Z 10053070 f i NpBatchQuery.obj
 0001:00052150       ??0?$PxOverflowBuffer@UPxSweepHit@physx@@@@QAE@PAUPxSweepHit@physx@@I@Z 10053150 f i NpBatchQuery.obj
 0001:00052210       ??0?$SyncT@V?$ReflectionAllocator@VSyncImpl@shdfnd@physx@@@shdfnd@physx@@@shdfnd@physx@@QAE@ABV?$ReflectionAllocator@VSyncImpl@shdfnd@physx@@@12@@Z 10053210 f i NpBatchQuery.obj
 0001:000522a0       ??0BatchStreamHeader@physx@@QAE@V?$PxFlags@W4Enum@PxHitFlag@physx@@G@1@PBUPxQueryCache@1@ABUPxQueryFilterData@1@PAXGW4Enum@QTypeROS@@@Z 100532a0 f i NpBatchQuery.obj
 0001:00052300       ??0MultiQueryInput@physx@@QAE@ABVPxVec3@1@0M@Z 10053300 f i NpBatchQuery.obj
 0001:00052350       ??1?$PxHitBuffer@UPxOverlapHit@physx@@@physx@@UAE@XZ 10053350 f i NpBatchQuery.obj
 0001:00052360       ??1?$PxHitBuffer@UPxRaycastHit@physx@@@physx@@UAE@XZ 10053360 f i NpBatchQuery.obj
 0001:00052370       ??1?$PxHitBuffer@UPxSweepHit@physx@@@physx@@UAE@XZ 10053370 f i NpBatchQuery.obj
 0001:00052380       ??1?$PxHitCallback@UPxOverlapHit@physx@@@physx@@UAE@XZ 10053380 f i NpBatchQuery.obj
 0001:00052390       ??1?$PxHitCallback@UPxRaycastHit@physx@@@physx@@UAE@XZ 10053390 f i NpBatchQuery.obj
 0001:000523a0       ??1?$PxHitCallback@UPxSweepHit@physx@@@physx@@UAE@XZ 100533a0 f i NpBatchQuery.obj
 0001:000523b0       ??1PxBatchQuery@physx@@MAE@XZ 100533b0 f i NpBatchQuery.obj
 0001:000523c0       ??4PxRaycastHit@physx@@QAEAAU01@ABU01@@Z 100533c0 f i NpBatchQuery.obj
 0001:00052450       ??_E?$PxHitBuffer@UPxOverlapHit@physx@@@physx@@UAEPAXI@Z 10053450 f i NpBatchQuery.obj
 0001:00052450       ??_G?$PxHitBuffer@UPxOverlapHit@physx@@@physx@@UAEPAXI@Z 10053450 f i NpBatchQuery.obj
 0001:00052480       ??_E?$PxHitBuffer@UPxRaycastHit@physx@@@physx@@UAEPAXI@Z 10053480 f i NpBatchQuery.obj
 0001:00052480       ??_G?$PxHitBuffer@UPxRaycastHit@physx@@@physx@@UAEPAXI@Z 10053480 f i NpBatchQuery.obj
 0001:000524b0       ??_E?$PxHitBuffer@UPxSweepHit@physx@@@physx@@UAEPAXI@Z 100534b0 f i NpBatchQuery.obj
 0001:000524b0       ??_G?$PxHitBuffer@UPxSweepHit@physx@@@physx@@UAEPAXI@Z 100534b0 f i NpBatchQuery.obj
 0001:000524e0       ??_E?$PxHitCallback@UPxOverlapHit@physx@@@physx@@UAEPAXI@Z 100534e0 f i NpBatchQuery.obj
 0001:000524e0       ??_G?$PxHitCallback@UPxOverlapHit@physx@@@physx@@UAEPAXI@Z 100534e0 f i NpBatchQuery.obj
 0001:00052510       ??_G?$PxHitCallback@UPxRaycastHit@physx@@@physx@@UAEPAXI@Z 10053510 f i NpBatchQuery.obj
 0001:00052510       ??_E?$PxHitCallback@UPxRaycastHit@physx@@@physx@@UAEPAXI@Z 10053510 f i NpBatchQuery.obj
 0001:00052540       ??_G?$PxHitCallback@UPxSweepHit@physx@@@physx@@UAEPAXI@Z 10053540 f i NpBatchQuery.obj
 0001:00052540       ??_E?$PxHitCallback@UPxSweepHit@physx@@@physx@@UAEPAXI@Z 10053540 f i NpBatchQuery.obj
 0001:00052570       ??_G?$PxOverflowBuffer@UPxOverlapHit@physx@@@@UAEPAXI@Z 10053570 f i NpBatchQuery.obj
 0001:00052570       ??_E?$PxOverflowBuffer@UPxOverlapHit@physx@@@@UAEPAXI@Z 10053570 f i NpBatchQuery.obj
 0001:000525a0       ??_E?$PxOverflowBuffer@UPxRaycastHit@physx@@@@UAEPAXI@Z 100535a0 f i NpBatchQuery.obj
 0001:000525a0       ??_G?$PxOverflowBuffer@UPxRaycastHit@physx@@@@UAEPAXI@Z 100535a0 f i NpBatchQuery.obj
 0001:000525d0       ??_G?$PxOverflowBuffer@UPxSweepHit@physx@@@@UAEPAXI@Z 100535d0 f i NpBatchQuery.obj
 0001:000525d0       ??_E?$PxOverflowBuffer@UPxSweepHit@physx@@@@UAEPAXI@Z 100535d0 f i NpBatchQuery.obj
 0001:00052600       ??_GNpBatchQuery@physx@@UAEPAXI@Z 10053600 f i NpBatchQuery.obj
 0001:00052600       ??_ENpBatchQuery@physx@@UAEPAXI@Z 10053600 f i NpBatchQuery.obj
 0001:00052650       ??_EPxBatchQuery@physx@@MAEPAXI@Z 10053650 f i NpBatchQuery.obj
 0001:00052650       ??_GPxBatchQuery@physx@@MAEPAXI@Z 10053650 f i NpBatchQuery.obj
 0001:00052680       ?finalizeQuery@?$PxHitCallback@UPxOverlapHit@physx@@@physx@@UAEXXZ 10053680 f i NpBatchQuery.obj
 0001:00052690       ?finalizeQuery@?$PxHitCallback@UPxRaycastHit@physx@@@physx@@UAEXXZ 10053690 f i NpBatchQuery.obj
 0001:000526a0       ?finalizeQuery@?$PxHitCallback@UPxSweepHit@physx@@@physx@@UAEXXZ 100536a0 f i NpBatchQuery.obj
 0001:000526b0       ?finalizeQuery@?$PxOverflowBuffer@UPxOverlapHit@physx@@@@UAEXXZ 100536b0 f i NpBatchQuery.obj
 0001:000526e0       ?finalizeQuery@?$PxOverflowBuffer@UPxRaycastHit@physx@@@@UAEXXZ 100536e0 f i NpBatchQuery.obj
 0001:00052710       ?finalizeQuery@?$PxOverflowBuffer@UPxSweepHit@physx@@@@UAEXXZ 10053710 f i NpBatchQuery.obj
 0001:00052740       ?getDesc@NpBatchQuery@physx@@UBEABVPxBatchQueryDesc@2@XZ 10053740 f i NpBatchQuery.obj
 0001:00052750       ?getRunOnSpu@NpBatchQuery@physx@@UAE_NXZ 10053750 f i NpBatchQuery.obj
 0001:00052760       ?processTouches@?$PxHitBuffer@UPxOverlapHit@physx@@@physx@@MAE_NPBUPxOverlapHit@2@I@Z 10053760 f i NpBatchQuery.obj
 0001:00052770       ?processTouches@?$PxHitBuffer@UPxRaycastHit@physx@@@physx@@MAE_NPBUPxRaycastHit@2@I@Z 10053770 f i NpBatchQuery.obj
 0001:00052780       ?processTouches@?$PxHitBuffer@UPxSweepHit@physx@@@physx@@MAE_NPBUPxSweepHit@2@I@Z 10053780 f i NpBatchQuery.obj
 0001:00052790       ?processTouches@?$PxOverflowBuffer@UPxOverlapHit@physx@@@@UAE_NPBUPxOverlapHit@physx@@I@Z 10053790 f i NpBatchQuery.obj
 0001:000527d0       ?processTouches@?$PxOverflowBuffer@UPxRaycastHit@physx@@@@UAE_NPBUPxRaycastHit@physx@@I@Z 100537d0 f i NpBatchQuery.obj
 0001:00052820       ?processTouches@?$PxOverflowBuffer@UPxSweepHit@physx@@@@UAE_NPBUPxSweepHit@physx@@I@Z 10053820 f i NpBatchQuery.obj
 0001:00052980       ?recreate@?$Array@DVNamedAllocator@shdfnd@physx@@@shdfnd@physx@@IAEXI@Z 10053980 f i NpBatchQuery.obj
 0001:00052a20       ?resizeUninitialized@?$Array@DVNamedAllocator@shdfnd@physx@@@shdfnd@physx@@QAEXI@Z 10053a20 f i NpBatchQuery.obj
 0001:00052a50       ?setRunOnSpu@NpBatchQuery@physx@@UAEX_N@Z 10053a50 f i NpBatchQuery.obj
 0001:00052e80       ?NpConstraintGetRigidObjectsFromScb@physx@@YAXABVConstraint@Scb@1@AAPAVRigidObject@31@1@Z 10053e80 f   NpConstraint.obj
 0001:00052ed0       ?setConstraintFunctions@NpConstraint@physx@@UAEXAAVPxConstraintConnector@2@ABUPxConstraintShaderTable@2@@Z 10053ed0 f   NpConstraint.obj
 0001:00053120       ?createObject@NpConstraint@physx@@SAPAV12@AAPAEAAVPxDeserializationContext@2@@Z 10054120 f   NpConstraint.obj
 0001:000531a0       ?resolveReferences@NpConstraint@physx@@QAEXAAVPxDeserializationContext@2@@Z 100541a0 f   NpConstraint.obj
 0001:000531e0       ??0NpConstraint@physx@@QAE@PAVPxRigidActor@1@0AAVPxConstraintConnector@1@ABUPxConstraintShaderTable@1@I@Z 100541e0 f   NpConstraint.obj
 0001:00053330       ??1NpConstraint@physx@@UAE@XZ 10054330 f   NpConstraint.obj
 0001:00053370       ?release@NpConstraint@physx@@UAEXXZ 10054370 f   NpConstraint.obj
 0001:00053490       ?getScene@NpConstraint@physx@@UBEPAVPxScene@2@XZ 10054490 f   NpConstraint.obj
 0001:000534d0       ?getActors@NpConstraint@physx@@UBEXAAPAVPxRigidActor@2@0@Z 100544d0 f   NpConstraint.obj
 0001:00053550       ?setActors@NpConstraint@physx@@UAEXPAVPxRigidActor@2@0@Z 10054550 f   NpConstraint.obj
 0001:00053940       ?getFlags@NpConstraint@physx@@UBE?AV?$PxFlags@W4Enum@PxConstraintFlag@physx@@G@2@XZ 10054940 f   NpConstraint.obj
 0001:000539d0       ?setFlags@NpConstraint@physx@@UAEXV?$PxFlags@W4Enum@PxConstraintFlag@physx@@G@2@@Z 100549d0 f   NpConstraint.obj
 0001:00053ab0       ?setFlag@NpConstraint@physx@@UAEXW4Enum@PxConstraintFlag@2@_N@Z 10054ab0 f   NpConstraint.obj
 0001:00053bd0       ?getForce@NpConstraint@physx@@UBEXAAVPxVec3@2@0@Z 10054bd0 f   NpConstraint.obj
 0001:00053c60       ?markDirty@NpConstraint@physx@@UAEXXZ 10054c60 f   NpConstraint.obj
 0001:00053c70       ?setBreakForce@NpConstraint@physx@@UAEXMM@Z 10054c70 f   NpConstraint.obj
 0001:00053d20       ?getBreakForce@NpConstraint@physx@@UBEXAAM0@Z 10054d20 f   NpConstraint.obj
 0001:00053dd0       ?isValid@NpConstraint@physx@@UBE_NXZ 10054dd0 f   NpConstraint.obj
 0001:00053e90       ?getExternalReference@NpConstraint@physx@@UAEPAXAAI@Z 10054e90 f   NpConstraint.obj
 0001:00053f00       ?updateConstants@NpConstraint@physx@@QAEXXZ 10054f00 f   NpConstraint.obj
 0001:00053f60       ?comShift@NpConstraint@physx@@QAEXPAVPxRigidActor@2@@Z 10054f60 f   NpConstraint.obj
 0001:00053fa0       ?actorDeleted@NpConstraint@physx@@QAEXPAVPxRigidActor@2@@Z 10054fa0 f   NpConstraint.obj
 0001:00053fd0       ?getNpScene@NpConstraint@physx@@QBEPAVNpScene@2@XZ 10054fd0 f   NpConstraint.obj
 0001:00054010       ?getSceneFromActors@NpConstraint@physx@@QBEPAVNpScene@2@XZ 10055010 f   NpConstraint.obj
 0001:000540c0       ?getScbRigidObject@NpConstraint@physx@@SAPAVRigidObject@Scb@2@PAVPxRigidActor@2@@Z 100550c0 f   NpConstraint.obj
 0001:00054570       ??0Constraint@Scb@physx@@QAE@AAVPxConstraintConnector@2@ABUPxConstraintShaderTable@2@I@Z 10055570 f i NpConstraint.obj
 0001:00054600       ??1PxConstraint@physx@@MAE@XZ 10055600 f i NpConstraint.obj
 0001:00054610       ??_ENpConstraint@physx@@UAEPAXI@Z 10055610 f i NpConstraint.obj
 0001:00054610       ??_GNpConstraint@physx@@UAEPAXI@Z 10055610 f i NpConstraint.obj
 0001:00054690       ??_EPxConstraint@physx@@MAEPAXI@Z 10055690 f i NpConstraint.obj
 0001:00054690       ??_GPxConstraint@physx@@MAEPAXI@Z 10055690 f i NpConstraint.obj
 0001:000546c0       ?getConcreteTypeName@PxConstraint@physx@@UBEPBDXZ 100556c0 f i NpConstraint.obj
 0001:000546d0       ?isKindOf@PxConstraint@physx@@MBE_NPBD@Z 100556d0 f i NpConstraint.obj
 0001:00054770       ?isSubordinate@NpConstraint@physx@@UBE_NXZ 10055770 f i NpConstraint.obj
 0001:00054780       ?requires@NpConstraint@physx@@UAEXAAVPxProcessPxBaseCallback@2@@Z 10055780 f i NpConstraint.obj
 0001:00054790       ?setBodies@Constraint@Scb@physx@@QAEXPAVRigidObject@23@0@Z 10055790 f i NpConstraint.obj
 0001:000548e0       ?setBreakForce@Constraint@Scb@physx@@QAEXMM@Z 100558e0 f i NpConstraint.obj
 0001:000549d0       ?setFlags@Constraint@Scb@physx@@QAEXV?$PxFlags@W4Enum@PxConstraintFlag@physx@@G@3@@Z 100559d0 f i NpConstraint.obj
 0001:00054aa0       ??0NpFactory@physx@@QAE@XZ 10055aa0 f   NpFactory.obj
 0001:000552f0       ??1NpFactory@physx@@EAE@XZ 100562f0 f   NpFactory.obj
 0001:00055640       ?createInstance@NpFactory@physx@@SAXXZ 10056640 f   NpFactory.obj
 0001:000556b0       ?destroyInstance@NpFactory@physx@@SAXXZ 100566b0 f   NpFactory.obj
 0001:000556d0       ?registerArticulations@NpFactory@physx@@SAXXZ 100566d0 f   NpFactory.obj
 0001:000556f0       ?registerCloth@NpFactory@physx@@SAXXZ 100566f0 f   NpFactory.obj
 0001:00055720       ?registerParticles@NpFactory@physx@@SAXXZ 10056720 f   NpFactory.obj
 0001:00055740       ?release@NpFactory@physx@@QAEXXZ 10056740 f   NpFactory.obj
 0001:000557c0       ?addCollection@NpFactory@physx@@QAEXABVCollection@Cm@2@@Z 100567c0 f   NpFactory.obj
 0001:00055aa0       ?createRigidDynamic@NpFactory@physx@@QAEPAVPxRigidDynamic@2@ABVPxTransform@2@@Z 10056aa0 f   NpFactory.obj
 0001:00055ba0       ?addRigidDynamic@NpFactory@physx@@QAEXPAVPxRigidDynamic@2@_N@Z 10056ba0 f   NpFactory.obj
 0001:00055c00       ?releaseRigidDynamicToPool@NpFactory@physx@@QAEXAAVNpRigidDynamic@2@@Z 10056c00 f   NpFactory.obj
 0001:00055c80       ?createRigidStatic@NpFactory@physx@@QAEPAVPxRigidStatic@2@ABVPxTransform@2@@Z 10056c80 f   NpFactory.obj
 0001:00055d40       ?addRigidStatic@NpFactory@physx@@QAEXPAVPxRigidStatic@2@_N@Z 10056d40 f   NpFactory.obj
 0001:00055da0       ?releaseRigidStaticToPool@NpFactory@physx@@QAEXAAVNpRigidStatic@2@@Z 10056da0 f   NpFactory.obj
 0001:00055e20       ?createShape@NpFactory@physx@@QAEPAVNpShape@2@ABVPxGeometry@2@V?$PxFlags@W4Enum@PxShapeFlag@physx@@E@2@PBQAVPxMaterial@2@G_N@Z 10056e20 f   NpFactory.obj
 0001:00056190       ?addShape@NpFactory@physx@@QAEXPAVPxShape@2@_N@Z 10057190 f   NpFactory.obj
 0001:000561f0       ?releaseShapeToPool@NpFactory@physx@@QAEXAAVNpShape@2@@Z 100571f0 f   NpFactory.obj
 0001:00056270       ?getNbShapes@NpFactory@physx@@QBEIXZ 10057270 f   NpFactory.obj
 0001:00056280       ?getShapes@NpFactory@physx@@QBEIPAPAVPxShape@2@II@Z 10057280 f   NpFactory.obj
 0001:000562d0       ?addConstraint@NpFactory@physx@@QAEXPAVPxConstraint@2@_N@Z 100572d0 f   NpFactory.obj
 0001:00056330       ?createConstraint@NpFactory@physx@@QAEPAVPxConstraint@2@PAVPxRigidActor@2@0AAVPxConstraintConnector@2@ABUPxConstraintShaderTable@2@I@Z 10057330 f   NpFactory.obj
 0001:00056430       ?releaseConstraintToPool@NpFactory@physx@@QAEXAAVNpConstraint@2@@Z 10057430 f   NpFactory.obj
 0001:000564b0       ?addArticulation@NpFactory@physx@@QAEXPAVPxArticulation@2@_N@Z 100574b0 f   NpFactory.obj
 0001:00056510       ?createArticulation@NpFactory@physx@@QAEPAVPxArticulation@2@XZ 10057510 f   NpFactory.obj
 0001:00056590       ?createNpArticulation@NpFactory@physx@@QAEPAVNpArticulation@2@XZ 10057590 f   NpFactory.obj
 0001:000565e0       ?releaseArticulationToPool@NpFactory@physx@@QAEXAAVNpArticulation@2@@Z 100575e0 f   NpFactory.obj
 0001:00056660       ?createNpArticulationLink@NpFactory@physx@@QAEPAVNpArticulationLink@2@AAVNpArticulation@2@PAV32@ABVPxTransform@2@@Z 10057660 f   NpFactory.obj
 0001:00056700       ?releaseArticulationLinkToPool@NpFactory@physx@@QAEXAAVNpArticulationLink@2@@Z 10057700 f   NpFactory.obj
 0001:00056780       ?createArticulationLink@NpFactory@physx@@QAEPAVPxArticulationLink@2@AAVNpArticulation@2@PAVNpArticulationLink@2@ABVPxTransform@2@@Z 10057780 f   NpFactory.obj
 0001:000567d0       ?createNpArticulationJoint@NpFactory@physx@@QAEPAVNpArticulationJoint@2@AAVNpArticulationLink@2@ABVPxTransform@2@01@Z 100577d0 f   NpFactory.obj
 0001:00056870       ?releaseArticulationJointToPool@NpFactory@physx@@QAEXAAVNpArticulationJoint@2@@Z 10057870 f   NpFactory.obj
 0001:000568f0       ?addAggregate@NpFactory@physx@@QAEXPAVPxAggregate@2@_N@Z 100578f0 f   NpFactory.obj
 0001:00056950       ?createAggregate@NpFactory@physx@@QAEPAVPxAggregate@2@I_N@Z 10057950 f   NpFactory.obj
 0001:00056a00       ?releaseAggregateToPool@NpFactory@physx@@QAEXAAVNpAggregate@2@@Z 10057a00 f   NpFactory.obj
 0001:00056a80       ?createNpParticleSystem@NpFactory@physx@@QAEPAVNpParticleSystem@2@I_N@Z 10057a80 f   NpFactory.obj
 0001:00056b10       ?releaseParticleSystemToPool@NpFactory@physx@@QAEXAAVNpParticleSystem@2@@Z 10057b10 f   NpFactory.obj
 0001:00056b90       ?createNpParticleFluid@NpFactory@physx@@QAEPAVNpParticleFluid@2@I_N@Z 10057b90 f   NpFactory.obj
 0001:00056c20       ?releaseParticleFluidToPool@NpFactory@physx@@QAEXAAVNpParticleFluid@2@@Z 10057c20 f   NpFactory.obj
 0001:00056ca0       ?addParticleSystem@NpFactory@physx@@QAEXPAVPxParticleSystem@2@_N@Z 10057ca0 f   NpFactory.obj
 0001:00056d00       ?createParticleSystem@NpFactory@physx@@QAEPAVPxParticleSystem@2@I_N@Z 10057d00 f   NpFactory.obj
 0001:00056db0       ?addParticleFluid@NpFactory@physx@@QAEXPAVPxParticleFluid@2@_N@Z 10057db0 f   NpFactory.obj
 0001:00056e10       ?createParticleFluid@NpFactory@physx@@QAEPAVPxParticleFluid@2@I_N@Z 10057e10 f   NpFactory.obj
 0001:00056ec0       ?createNpCloth@NpFactory@physx@@QAEPAVNpCloth@2@ABVPxTransform@2@AAVPxClothFabric@2@PBUPxClothParticle@2@V?$PxFlags@W4Enum@PxClothFlag@physx@@G@2@@Z 10057ec0 f   NpFactory.obj
 0001:00056f30       ?releaseClothToPool@NpFactory@physx@@QAEXAAVNpCloth@2@@Z 10057f30 f   NpFactory.obj
 0001:00056fb0       ?addCloth@NpFactory@physx@@QAEXPAVPxCloth@2@_N@Z 10057fb0 f   NpFactory.obj
 0001:00057010       ?addClothFabric@NpFactory@physx@@QAEXPAVNpClothFabric@2@_N@Z 10058010 f   NpFactory.obj
 0001:00057100       ?createClothFabric@NpFactory@physx@@QAEPAVPxClothFabric@2@AAVPxInputStream@2@@Z 10058100 f   NpFactory.obj
 0001:00057160       ?createClothFabric@NpFactory@physx@@QAEPAVPxClothFabric@2@ABVPxClothFabricDesc@2@@Z 10058160 f   NpFactory.obj
 0001:000571c0       ?createNpClothFabric@NpFactory@physx@@QAEPAVNpClothFabric@2@XZ 100581c0 f   NpFactory.obj
 0001:00057250       ?releaseClothFabricToPool@NpFactory@physx@@QAEXAAVNpClothFabric@2@@Z 10058250 f   NpFactory.obj
 0001:000572d0       ?removeClothFabric@NpFactory@physx@@QAE_NAAVPxClothFabric@2@@Z 100582d0 f   NpFactory.obj
 0001:00057360       ?getNbClothFabrics@NpFactory@physx@@QBEIXZ 10058360 f   NpFactory.obj
 0001:00057370       ?getClothFabrics@NpFactory@physx@@QBEIPAPAVPxClothFabric@2@I@Z 10058370 f   NpFactory.obj
 0001:000573b0       ?createCloth@NpFactory@physx@@QAEPAVPxCloth@2@ABVPxTransform@2@AAVPxClothFabric@2@PBUPxClothParticle@2@V?$PxFlags@W4Enum@PxClothFlag@physx@@G@2@@Z 100583b0 f   NpFactory.obj
 0001:00057510       ?createMaterial@NpFactory@physx@@QAEPAVPxMaterial@2@MMM@Z 10058510 f   NpFactory.obj
 0001:00057640       ?releaseMaterialToPool@NpFactory@physx@@QAEXAAVNpMaterial@2@@Z 10058640 f   NpFactory.obj
 0001:000576c0       ?onActorRelease@NpFactory@physx@@QAEXPAVPxActor@2@@Z 100586c0 f   NpFactory.obj
 0001:000576f0       ?onConstraintRelease@NpFactory@physx@@QAEXPAVPxConstraint@2@@Z 100586f0 f   NpFactory.obj
 0001:00057720       ?onAggregateRelease@NpFactory@physx@@QAEXPAVPxAggregate@2@@Z 10058720 f   NpFactory.obj
 0001:00057750       ?onArticulationRelease@NpFactory@physx@@QAEXPAVPxArticulation@2@@Z 10058750 f   NpFactory.obj
 0001:00057780       ?onShapeRelease@NpFactory@physx@@QAEXPAVPxShape@2@@Z 10058780 f   NpFactory.obj
 0001:000577b0       ?acquireConnectorArray@NpFactory@physx@@QAEPAVNpConnectorArray@2@XZ 100587b0 f   NpFactory.obj
 0001:000577e0       ?releaseConnectorArray@NpFactory@physx@@QAEXPAVNpConnectorArray@2@@Z 100587e0 f   NpFactory.obj
 0001:00057820       ?setNpFactoryListener@NpFactory@physx@@QAEXAAVNpFactoryListener@2@@Z 10058820 f   NpFactory.obj
 0001:00057840       ?NpDestroy@physx@@YAXAAVBase@Scb@1@@Z 10058840 f   NpFactory.obj
 0001:00058b10       ??$construct@$$CBVPxGeometry@physx@@V?$PxFlags@W4Enum@PxShapeFlag@physx@@E@2@PAGG_N@?$PoolBase@VNpShape@physx@@VNamedAllocator@shdfnd@2@@shdfnd@physx@@QAEPAVNpShape@2@ABVPxGeometry@2@AAV?$PxFlags@W4Enum@PxShapeFlag@physx@@E@2@AAPAGAAGAA_N@Z 10059b10 f i NpFactory.obj
 0001:00058bb0       ??$construct@$$CBVPxTransform@physx@@@?$PoolBase@VNpRigidStatic@physx@@VNamedAllocator@shdfnd@2@@shdfnd@physx@@QAEPAVNpRigidStatic@2@ABVPxTransform@2@@Z 10059bb0 f i NpFactory.obj
 0001:00058c30       ??$construct@I_N@?$PoolBase@VNpAggregate@physx@@VNamedAllocator@shdfnd@2@@shdfnd@physx@@QAEPAVNpAggregate@2@AAIAA_N@Z 10059c30 f i NpFactory.obj
 0001:00058cc0       ??$construct@PAVPxRigidActor@physx@@PAV12@VPxConstraintConnector@2@$$CBUPxConstraintShaderTable@2@I@?$PoolBase@VNpConstraint@physx@@VNamedAllocator@shdfnd@2@@shdfnd@physx@@QAEPAVNpConstraint@2@AAPAVPxRigidActor@2@0AAVPxConstraintConnector@2@ABUPxConstraintShaderTable@2@AAI@Z 10059cc0 f i NpFactory.obj
 0001:00058d60       ??$construct@UPxsMaterialData@physx@@@?$PoolBase@VNpMaterial@physx@@VNamedAllocator@shdfnd@2@@shdfnd@physx@@QAEPAVNpMaterial@2@AAUPxsMaterialData@2@@Z 10059d60 f i NpFactory.obj
 0001:00058e30       ??$copy@V?$InlineAllocator@$0BAA@VNamedAllocator@shdfnd@physx@@@shdfnd@physx@@@?$Array@PAXVNamedAllocator@shdfnd@physx@@@shdfnd@physx@@IAEXABV?$Array@PAXV?$InlineAllocator@$0BAA@VNamedAllocator@shdfnd@physx@@@shdfnd@physx@@@12@@Z 10059e30 f i NpFactory.obj
 0001:000593f0       ??0?$InlineArray@G$03VNamedAllocator@shdfnd@physx@@@shdfnd@physx@@QAE@ABVNamedAllocator@12@@Z 1005a3f0 f i NpFactory.obj
 0001:000594a0       ??0?$InlineArray@PAX$0EA@VNamedAllocator@shdfnd@physx@@@shdfnd@physx@@QAE@ABVNamedAllocator@12@@Z 1005a4a0 f i NpFactory.obj
 0001:00059590       ??0?$InlineArray@VNpConnector@physx@@$03VNamedAllocator@shdfnd@2@@shdfnd@physx@@QAE@ABVNamedAllocator@12@@Z 1005a590 f i NpFactory.obj
 0001:00059650       ??0Iter@?$HashBase@PAVPxActor@physx@@PAV12@U?$Hash@PAVPxActor@physx@@@shdfnd@2@UGetKey@?$HashSetBase@PAVPxActor@physx@@U?$Hash@PAVPxActor@physx@@@shdfnd@2@VAllocator@42@$0A@@internal@42@VAllocator@42@$0A@@internal@shdfnd@physx@@QAE@AAV1234@@Z 1005a650 f i NpFactory.obj
 0001:000596c0       ??0Iter@?$HashBase@PAVPxAggregate@physx@@PAV12@U?$Hash@PAVPxAggregate@physx@@@shdfnd@2@UGetKey@?$HashSetBase@PAVPxAggregate@physx@@U?$Hash@PAVPxAggregate@physx@@@shdfnd@2@VAllocator@42@$0A@@internal@42@VAllocator@42@$0A@@internal@shdfnd@physx@@QAE@AAV1234@@Z 1005a6c0 f i NpFactory.obj
 0001:00059730       ??0Iter@?$HashBase@PAVPxArticulation@physx@@PAV12@U?$Hash@PAVPxArticulation@physx@@@shdfnd@2@UGetKey@?$HashSetBase@PAVPxArticulation@physx@@U?$Hash@PAVPxArticulation@physx@@@shdfnd@2@VAllocator@42@$0A@@internal@42@VAllocator@42@$0A@@internal@shdfnd@physx@@QAE@AAV1234@@Z 1005a730 f i NpFactory.obj
 0001:000597a0       ??0Iter@?$HashBase@PAVPxConstraint@physx@@PAV12@U?$Hash@PAVPxConstraint@physx@@@shdfnd@2@UGetKey@?$HashSetBase@PAVPxConstraint@physx@@U?$Hash@PAVPxConstraint@physx@@@shdfnd@2@VAllocator@42@$0A@@internal@42@VAllocator@42@$0A@@internal@shdfnd@physx@@QAE@AAV1234@@Z 1005a7a0 f i NpFactory.obj
 0001:00059810       ??0NpPtrTableStorageManager@physx@@QAE@XZ 1005a810 f i NpFactory.obj
 0001:000599b0       ??1?$PoolBase@V?$PtrBlock@$03@NpPtrTableStorageManager@physx@@VNamedAllocator@shdfnd@3@@shdfnd@physx@@QAE@XZ 1005a9b0 f i NpFactory.obj
 0001:00059aa0       ??1?$PoolBase@V?$PtrBlock@$0BA@@NpPtrTableStorageManager@physx@@VNamedAllocator@shdfnd@3@@shdfnd@physx@@QAE@XZ 1005aaa0 f i NpFactory.obj
 0001:00059b90       ??1?$PoolBase@V?$PtrBlock@$0EA@@NpPtrTableStorageManager@physx@@VNamedAllocator@shdfnd@3@@shdfnd@physx@@QAE@XZ 1005ab90 f i NpFactory.obj
 0001:00059c80       ??1?$PoolBase@VNpAggregate@physx@@VNamedAllocator@shdfnd@2@@shdfnd@physx@@QAE@XZ 1005ac80 f i NpFactory.obj
 0001:00059d70       ??1?$PoolBase@VNpArticulation@physx@@VNamedAllocator@shdfnd@2@@shdfnd@physx@@QAE@XZ 1005ad70 f i NpFactory.obj
 0001:00059e60       ??1?$PoolBase@VNpArticulationJoint@physx@@VNamedAllocator@shdfnd@2@@shdfnd@physx@@QAE@XZ 1005ae60 f i NpFactory.obj
 0001:00059f50       ??1?$PoolBase@VNpArticulationLink@physx@@VNamedAllocator@shdfnd@2@@shdfnd@physx@@QAE@XZ 1005af50 f i NpFactory.obj
 0001:0005a040       ??1?$PoolBase@VNpCloth@physx@@VNamedAllocator@shdfnd@2@@shdfnd@physx@@QAE@XZ 1005b040 f i NpFactory.obj
 0001:0005a130       ??1?$PoolBase@VNpClothFabric@physx@@VNamedAllocator@shdfnd@2@@shdfnd@physx@@QAE@XZ 1005b130 f i NpFactory.obj
 0001:0005a220       ??1?$PoolBase@VNpConnectorArray@physx@@VNamedAllocator@shdfnd@2@@shdfnd@physx@@QAE@XZ 1005b220 f i NpFactory.obj
 0001:0005a310       ??1?$PoolBase@VNpConstraint@physx@@VNamedAllocator@shdfnd@2@@shdfnd@physx@@QAE@XZ 1005b310 f i NpFactory.obj
 0001:0005a400       ??1?$PoolBase@VNpMaterial@physx@@VNamedAllocator@shdfnd@2@@shdfnd@physx@@QAE@XZ 1005b400 f i NpFactory.obj
 0001:0005a4f0       ??1?$PoolBase@VNpParticleFluid@physx@@VNamedAllocator@shdfnd@2@@shdfnd@physx@@QAE@XZ 1005b4f0 f i NpFactory.obj
 0001:0005a5e0       ??1?$PoolBase@VNpParticleSystem@physx@@VNamedAllocator@shdfnd@2@@shdfnd@physx@@QAE@XZ 1005b5e0 f i NpFactory.obj
 0001:0005a6d0       ??1?$PoolBase@VNpRigidDynamic@physx@@VNamedAllocator@shdfnd@2@@shdfnd@physx@@QAE@XZ 1005b6d0 f i NpFactory.obj
 0001:0005a7c0       ??1?$PoolBase@VNpRigidStatic@physx@@VNamedAllocator@shdfnd@2@@shdfnd@physx@@QAE@XZ 1005b7c0 f i NpFactory.obj
 0001:0005a8b0       ??1?$PoolBase@VNpShape@physx@@VNamedAllocator@shdfnd@2@@shdfnd@physx@@QAE@XZ 1005b8b0 f i NpFactory.obj
 0001:0005a9a0       ??1PtrTableStorageManager@Cm@physx@@MAE@XZ 1005b9a0 f i NpFactory.obj
 0001:0005a9b0       ??_GNpFactory@physx@@EAEPAXI@Z 1005b9b0 f i NpFactory.obj
 0001:0005a9b0       ??_ENpFactory@physx@@EAEPAXI@Z 1005b9b0 f i NpFactory.obj
 0001:0005aa00       ??_ENpPtrTableStorageManager@physx@@UAEPAXI@Z 1005ba00 f i NpFactory.obj
 0001:0005aa00       ??_GNpPtrTableStorageManager@physx@@UAEPAXI@Z 1005ba00 f i NpFactory.obj
 0001:0005aab0       ??_EPtrTableStorageManager@Cm@physx@@MAEPAXI@Z 1005bab0 f i NpFactory.obj
 0001:0005aab0       ??_GPtrTableStorageManager@Cm@physx@@MAEPAXI@Z 1005bab0 f i NpFactory.obj
 0001:0005af60       ?allocate@?$Array@PAVPxActor@physx@@V?$ReflectionAllocator@PAVPxActor@physx@@@shdfnd@2@@shdfnd@physx@@IAEPAPAVPxActor@3@I@Z 1005bf60 f i NpFactory.obj
 0001:0005b020       ?allocate@?$Array@PAVPxAggregate@physx@@V?$ReflectionAllocator@PAVPxAggregate@physx@@@shdfnd@2@@shdfnd@physx@@IAEPAPAVPxAggregate@3@I@Z 1005c020 f i NpFactory.obj
 0001:0005b0e0       ?allocate@?$Array@PAVPxArticulation@physx@@V?$ReflectionAllocator@PAVPxArticulation@physx@@@shdfnd@2@@shdfnd@physx@@IAEPAPAVPxArticulation@3@I@Z 1005c0e0 f i NpFactory.obj
 0001:0005b1a0       ?allocate@?$Array@PAVPxConstraint@physx@@V?$ReflectionAllocator@PAVPxConstraint@physx@@@shdfnd@2@@shdfnd@physx@@IAEPAPAVPxConstraint@3@I@Z 1005c1a0 f i NpFactory.obj
 0001:0005b260       ?allocate@?$Array@PAXV?$InlineAllocator@$0BAA@VNamedAllocator@shdfnd@physx@@@shdfnd@physx@@@shdfnd@physx@@IAEPAPAXI@Z 1005c260 f i NpFactory.obj
 0001:0005b2f0       ?allocate@?$PoolBase@VNpArticulation@physx@@VNamedAllocator@shdfnd@2@@shdfnd@physx@@QAEPAVNpArticulation@3@XZ 1005c2f0 f i NpFactory.obj
 0001:0005b360       ?allocate@?$PoolBase@VNpCloth@physx@@VNamedAllocator@shdfnd@2@@shdfnd@physx@@QAEPAVNpCloth@3@XZ 1005c360 f i NpFactory.obj
 0001:0005b3e0       ?allocate@NpPtrTableStorageManager@physx@@UAEPAPAXI@Z 1005c3e0 f i NpFactory.obj
 0001:0005b510       ?allocateSlab@?$PoolBase@V?$PtrBlock@$03@NpPtrTableStorageManager@physx@@VNamedAllocator@shdfnd@3@@shdfnd@physx@@IAEXXZ 1005c510 f i NpFactory.obj
 0001:0005b5d0       ?allocateSlab@?$PoolBase@V?$PtrBlock@$0BA@@NpPtrTableStorageManager@physx@@VNamedAllocator@shdfnd@3@@shdfnd@physx@@IAEXXZ 1005c5d0 f i NpFactory.obj
 0001:0005b690       ?allocateSlab@?$PoolBase@V?$PtrBlock@$0EA@@NpPtrTableStorageManager@physx@@VNamedAllocator@shdfnd@3@@shdfnd@physx@@IAEXXZ 1005c690 f i NpFactory.obj
 0001:0005b760       ?allocateSlab@?$PoolBase@VNpAggregate@physx@@VNamedAllocator@shdfnd@2@@shdfnd@physx@@IAEXXZ 1005c760 f i NpFactory.obj
 0001:0005b820       ?allocateSlab@?$PoolBase@VNpArticulation@physx@@VNamedAllocator@shdfnd@2@@shdfnd@physx@@IAEXXZ 1005c820 f i NpFactory.obj
 0001:0005b8e0       ?allocateSlab@?$PoolBase@VNpArticulationJoint@physx@@VNamedAllocator@shdfnd@2@@shdfnd@physx@@IAEXXZ 1005c8e0 f i NpFactory.obj
 0001:0005b9b0       ?allocateSlab@?$PoolBase@VNpArticulationLink@physx@@VNamedAllocator@shdfnd@2@@shdfnd@physx@@IAEXXZ 1005c9b0 f i NpFactory.obj
 0001:0005ba80       ?allocateSlab@?$PoolBase@VNpCloth@physx@@VNamedAllocator@shdfnd@2@@shdfnd@physx@@IAEXXZ 1005ca80 f i NpFactory.obj
 0001:0005bb50       ?allocateSlab@?$PoolBase@VNpClothFabric@physx@@VNamedAllocator@shdfnd@2@@shdfnd@physx@@IAEXXZ 1005cb50 f i NpFactory.obj
 0001:0005bc20       ?allocateSlab@?$PoolBase@VNpConnectorArray@physx@@VNamedAllocator@shdfnd@2@@shdfnd@physx@@IAEXXZ 1005cc20 f i NpFactory.obj
 0001:0005bcf0       ?allocateSlab@?$PoolBase@VNpConstraint@physx@@VNamedAllocator@shdfnd@2@@shdfnd@physx@@IAEXXZ 1005ccf0 f i NpFactory.obj
 0001:0005bdb0       ?allocateSlab@?$PoolBase@VNpMaterial@physx@@VNamedAllocator@shdfnd@2@@shdfnd@physx@@IAEXXZ 1005cdb0 f i NpFactory.obj
 0001:0005be70       ?allocateSlab@?$PoolBase@VNpParticleFluid@physx@@VNamedAllocator@shdfnd@2@@shdfnd@physx@@IAEXXZ 1005ce70 f i NpFactory.obj
 0001:0005bf40       ?allocateSlab@?$PoolBase@VNpParticleSystem@physx@@VNamedAllocator@shdfnd@2@@shdfnd@physx@@IAEXXZ 1005cf40 f i NpFactory.obj
 0001:0005c010       ?allocateSlab@?$PoolBase@VNpRigidDynamic@physx@@VNamedAllocator@shdfnd@2@@shdfnd@physx@@IAEXXZ 1005d010 f i NpFactory.obj
 0001:0005c0e0       ?allocateSlab@?$PoolBase@VNpRigidStatic@physx@@VNamedAllocator@shdfnd@2@@shdfnd@physx@@IAEXXZ 1005d0e0 f i NpFactory.obj
 0001:0005c1a0       ?allocateSlab@?$PoolBase@VNpShape@physx@@VNamedAllocator@shdfnd@2@@shdfnd@physx@@IAEXXZ 1005d1a0 f i NpFactory.obj
 0001:0005c270       ?canReuse@NpPtrTableStorageManager@physx@@UAE_NII@Z 1005d270 f i NpFactory.obj
 0001:0005c2f0       ?construct@?$PoolBase@V?$PtrBlock@$0BA@@NpPtrTableStorageManager@physx@@VNamedAllocator@shdfnd@3@@shdfnd@physx@@QAEPAV?$PtrBlock@$0BA@@NpPtrTableStorageManager@3@XZ 1005d2f0 f i NpFactory.obj
 0001:0005c370       ?construct@?$PoolBase@V?$PtrBlock@$0EA@@NpPtrTableStorageManager@physx@@VNamedAllocator@shdfnd@3@@shdfnd@physx@@QAEPAV?$PtrBlock@$0EA@@NpPtrTableStorageManager@3@XZ 1005d370 f i NpFactory.obj
 0001:0005c3f0       ?construct@?$PoolBase@VNpConnectorArray@physx@@VNamedAllocator@shdfnd@2@@shdfnd@physx@@QAEPAVNpConnectorArray@3@XZ 1005d3f0 f i NpFactory.obj
 0001:0005c4a0       ?create@?$HashBase@PAVPxActor@physx@@PAV12@U?$Hash@PAVPxActor@physx@@@shdfnd@2@UGetKey@?$HashSetBase@PAVPxActor@physx@@U?$Hash@PAVPxActor@physx@@@shdfnd@2@VAllocator@42@$0A@@internal@42@VAllocator@42@$0A@@internal@shdfnd@physx@@QAEPAPAVPxActor@4@ABQAV54@AA_N@Z 1005d4a0 f i NpFactory.obj
 0001:0005c620       ?create@?$HashBase@PAVPxAggregate@physx@@PAV12@U?$Hash@PAVPxAggregate@physx@@@shdfnd@2@UGetKey@?$HashSetBase@PAVPxAggregate@physx@@U?$Hash@PAVPxAggregate@physx@@@shdfnd@2@VAllocator@42@$0A@@internal@42@VAllocator@42@$0A@@internal@shdfnd@physx@@QAEPAPAVPxAggregate@4@ABQAV54@AA_N@Z 1005d620 f i NpFactory.obj
 0001:0005c7a0       ?create@?$HashBase@PAVPxArticulation@physx@@PAV12@U?$Hash@PAVPxArticulation@physx@@@shdfnd@2@UGetKey@?$HashSetBase@PAVPxArticulation@physx@@U?$Hash@PAVPxArticulation@physx@@@shdfnd@2@VAllocator@42@$0A@@internal@42@VAllocator@42@$0A@@internal@shdfnd@physx@@QAEPAPAVPxArticulation@4@ABQAV54@AA_N@Z 1005d7a0 f i NpFactory.obj
 0001:0005c920       ?create@?$HashBase@PAVPxConstraint@physx@@PAV12@U?$Hash@PAVPxConstraint@physx@@@shdfnd@2@UGetKey@?$HashSetBase@PAVPxConstraint@physx@@U?$Hash@PAVPxConstraint@physx@@@shdfnd@2@VAllocator@42@$0A@@internal@42@VAllocator@42@$0A@@internal@shdfnd@physx@@QAEPAPAVPxConstraint@4@ABQAV54@AA_N@Z 1005d920 f i NpFactory.obj
 0001:0005caa0       ?create@?$HashBase@PAVPxShape@physx@@PAV12@U?$Hash@PAVPxShape@physx@@@shdfnd@2@UGetKey@?$HashSetBase@PAVPxShape@physx@@U?$Hash@PAVPxShape@physx@@@shdfnd@2@VAllocator@42@$00@internal@42@VAllocator@42@$00@internal@shdfnd@physx@@QAEPAPAVPxShape@4@ABQAV54@AA_N@Z 1005daa0 f i NpFactory.obj
 0001:0005cc20       ?deallocate@NpPtrTableStorageManager@physx@@UAEXPAPAXI@Z 1005dc20 f i NpFactory.obj
 0001:0005cd20       ?destroy@?$PoolBase@V?$PtrBlock@$0BA@@NpPtrTableStorageManager@physx@@VNamedAllocator@shdfnd@3@@shdfnd@physx@@QAEXQAV?$PtrBlock@$0BA@@NpPtrTableStorageManager@3@@Z 1005dd20 f i NpFactory.obj
 0001:0005cd80       ?destroy@?$PoolBase@V?$PtrBlock@$0EA@@NpPtrTableStorageManager@physx@@VNamedAllocator@shdfnd@3@@shdfnd@physx@@QAEXQAV?$PtrBlock@$0EA@@NpPtrTableStorageManager@3@@Z 1005dd80 f i NpFactory.obj
 0001:0005cde0       ?destroy@?$PoolBase@VNpConnectorArray@physx@@VNamedAllocator@shdfnd@2@@shdfnd@physx@@QAEXQAVNpConnectorArray@3@@Z 1005dde0 f i NpFactory.obj
 0001:0005ce80       ?disposeElements@?$PoolBase@V?$PtrBlock@$03@NpPtrTableStorageManager@physx@@VNamedAllocator@shdfnd@3@@shdfnd@physx@@IAEXXZ 1005de80 f i NpFactory.obj
 0001:0005d020       ?disposeElements@?$PoolBase@V?$PtrBlock@$0BA@@NpPtrTableStorageManager@physx@@VNamedAllocator@shdfnd@3@@shdfnd@physx@@IAEXXZ 1005e020 f i NpFactory.obj
 0001:0005d1c0       ?disposeElements@?$PoolBase@V?$PtrBlock@$0EA@@NpPtrTableStorageManager@physx@@VNamedAllocator@shdfnd@3@@shdfnd@physx@@IAEXXZ 1005e1c0 f i NpFactory.obj
 0001:0005d360       ?disposeElements@?$PoolBase@VNpAggregate@physx@@VNamedAllocator@shdfnd@2@@shdfnd@physx@@IAEXXZ 1005e360 f i NpFactory.obj
 0001:0005d500       ?disposeElements@?$PoolBase@VNpArticulation@physx@@VNamedAllocator@shdfnd@2@@shdfnd@physx@@IAEXXZ 1005e500 f i NpFactory.obj
 0001:0005d6a0       ?disposeElements@?$PoolBase@VNpArticulationJoint@physx@@VNamedAllocator@shdfnd@2@@shdfnd@physx@@IAEXXZ 1005e6a0 f i NpFactory.obj
 0001:0005d850       ?disposeElements@?$PoolBase@VNpArticulationLink@physx@@VNamedAllocator@shdfnd@2@@shdfnd@physx@@IAEXXZ 1005e850 f i NpFactory.obj
 0001:0005da00       ?disposeElements@?$PoolBase@VNpCloth@physx@@VNamedAllocator@shdfnd@2@@shdfnd@physx@@IAEXXZ 1005ea00 f i NpFactory.obj
 0001:0005dbb0       ?disposeElements@?$PoolBase@VNpClothFabric@physx@@VNamedAllocator@shdfnd@2@@shdfnd@physx@@IAEXXZ 1005ebb0 f i NpFactory.obj
 0001:0005dd50       ?disposeElements@?$PoolBase@VNpConnectorArray@physx@@VNamedAllocator@shdfnd@2@@shdfnd@physx@@IAEXXZ 1005ed50 f i NpFactory.obj
 0001:0005df30       ?disposeElements@?$PoolBase@VNpConstraint@physx@@VNamedAllocator@shdfnd@2@@shdfnd@physx@@IAEXXZ 1005ef30 f i NpFactory.obj
 0001:0005e0d0       ?disposeElements@?$PoolBase@VNpMaterial@physx@@VNamedAllocator@shdfnd@2@@shdfnd@physx@@IAEXXZ 1005f0d0 f i NpFactory.obj
 0001:0005e270       ?disposeElements@?$PoolBase@VNpParticleFluid@physx@@VNamedAllocator@shdfnd@2@@shdfnd@physx@@IAEXXZ 1005f270 f i NpFactory.obj
 0001:0005e420       ?disposeElements@?$PoolBase@VNpParticleSystem@physx@@VNamedAllocator@shdfnd@2@@shdfnd@physx@@IAEXXZ 1005f420 f i NpFactory.obj
 0001:0005e5d0       ?disposeElements@?$PoolBase@VNpRigidDynamic@physx@@VNamedAllocator@shdfnd@2@@shdfnd@physx@@IAEXXZ 1005f5d0 f i NpFactory.obj
 0001:0005e770       ?disposeElements@?$PoolBase@VNpRigidStatic@physx@@VNamedAllocator@shdfnd@2@@shdfnd@physx@@IAEXXZ 1005f770 f i NpFactory.obj
 0001:0005e910       ?disposeElements@?$PoolBase@VNpShape@physx@@VNamedAllocator@shdfnd@2@@shdfnd@physx@@IAEXXZ 1005f910 f i NpFactory.obj
 0001:0005eac0       ?erase@?$HashBase@PAVPxActor@physx@@PAV12@U?$Hash@PAVPxActor@physx@@@shdfnd@2@UGetKey@?$HashSetBase@PAVPxActor@physx@@U?$Hash@PAVPxActor@physx@@@shdfnd@2@VAllocator@42@$0A@@internal@42@VAllocator@42@$0A@@internal@shdfnd@physx@@QAE_NABQAVPxActor@4@@Z 1005fac0 f i NpFactory.obj
 0001:0005eb90       ?erase@?$HashBase@PAVPxAggregate@physx@@PAV12@U?$Hash@PAVPxAggregate@physx@@@shdfnd@2@UGetKey@?$HashSetBase@PAVPxAggregate@physx@@U?$Hash@PAVPxAggregate@physx@@@shdfnd@2@VAllocator@42@$0A@@internal@42@VAllocator@42@$0A@@internal@shdfnd@physx@@QAE_NABQAVPxAggregate@4@@Z 1005fb90 f i NpFactory.obj
 0001:0005ec60       ?erase@?$HashBase@PAVPxArticulation@physx@@PAV12@U?$Hash@PAVPxArticulation@physx@@@shdfnd@2@UGetKey@?$HashSetBase@PAVPxArticulation@physx@@U?$Hash@PAVPxArticulation@physx@@@shdfnd@2@VAllocator@42@$0A@@internal@42@VAllocator@42@$0A@@internal@shdfnd@physx@@QAE_NABQAVPxArticulation@4@@Z 1005fc60 f i NpFactory.obj
 0001:0005ed30       ?erase@?$HashBase@PAVPxConstraint@physx@@PAV12@U?$Hash@PAVPxConstraint@physx@@@shdfnd@2@UGetKey@?$HashSetBase@PAVPxConstraint@physx@@U?$Hash@PAVPxConstraint@physx@@@shdfnd@2@VAllocator@42@$0A@@internal@42@VAllocator@42@$0A@@internal@shdfnd@physx@@QAE_NABQAVPxConstraint@4@@Z 1005fd30 f i NpFactory.obj
 0001:0005ee00       ?erase@?$HashBase@PAVPxShape@physx@@PAV12@U?$Hash@PAVPxShape@physx@@@shdfnd@2@UGetKey@?$HashSetBase@PAVPxShape@physx@@U?$Hash@PAVPxShape@physx@@@shdfnd@2@VAllocator@42@$00@internal@42@VAllocator@42@$00@internal@shdfnd@physx@@QAE_NABQAVPxShape@4@@Z 1005fe00 f i NpFactory.obj
 0001:0005eee0       ?freeListAdd@?$HashBase@PAVPxActor@physx@@PAV12@U?$Hash@PAVPxActor@physx@@@shdfnd@2@UGetKey@?$HashSetBase@PAVPxActor@physx@@U?$Hash@PAVPxActor@physx@@@shdfnd@2@VAllocator@42@$0A@@internal@42@VAllocator@42@$0A@@internal@shdfnd@physx@@AAEXII@Z 1005fee0 f i NpFactory.obj
 0001:0005efe0       ?freeListAdd@?$HashBase@PAVPxAggregate@physx@@PAV12@U?$Hash@PAVPxAggregate@physx@@@shdfnd@2@UGetKey@?$HashSetBase@PAVPxAggregate@physx@@U?$Hash@PAVPxAggregate@physx@@@shdfnd@2@VAllocator@42@$0A@@internal@42@VAllocator@42@$0A@@internal@shdfnd@physx@@AAEXII@Z 1005ffe0 f i NpFactory.obj
 0001:0005f0e0       ?freeListAdd@?$HashBase@PAVPxArticulation@physx@@PAV12@U?$Hash@PAVPxArticulation@physx@@@shdfnd@2@UGetKey@?$HashSetBase@PAVPxArticulation@physx@@U?$Hash@PAVPxArticulation@physx@@@shdfnd@2@VAllocator@42@$0A@@internal@42@VAllocator@42@$0A@@internal@shdfnd@physx@@AAEXII@Z 100600e0 f i NpFactory.obj
 0001:0005f1e0       ?freeListAdd@?$HashBase@PAVPxConstraint@physx@@PAV12@U?$Hash@PAVPxConstraint@physx@@@shdfnd@2@UGetKey@?$HashSetBase@PAVPxConstraint@physx@@U?$Hash@PAVPxConstraint@physx@@@shdfnd@2@VAllocator@42@$0A@@internal@42@VAllocator@42@$0A@@internal@shdfnd@physx@@AAEXII@Z 100601e0 f i NpFactory.obj
 0001:0005f2e0       ?getMaterial@Shape@Scb@physx@@QBEPAVPxMaterial@3@I@Z 100602e0 f i NpFactory.obj
 0001:0005f370       ?growAndPushBack@?$Array@PAVNpClothFabric@physx@@VNamedAllocator@shdfnd@2@@shdfnd@physx@@IAEAAPAVNpClothFabric@3@ABQAV43@@Z 10060370 f i NpFactory.obj
 0001:0005f460       ?growAndPushBack@?$Array@PAVPxActor@physx@@V?$ReflectionAllocator@PAVPxActor@physx@@@shdfnd@2@@shdfnd@physx@@IAEAAPAVPxActor@3@ABQAV43@@Z 10060460 f i NpFactory.obj
 0001:0005f510       ?growAndPushBack@?$Array@PAVPxAggregate@physx@@V?$ReflectionAllocator@PAVPxAggregate@physx@@@shdfnd@2@@shdfnd@physx@@IAEAAPAVPxAggregate@3@ABQAV43@@Z 10060510 f i NpFactory.obj
 0001:0005f5c0       ?growAndPushBack@?$Array@PAVPxArticulation@physx@@V?$ReflectionAllocator@PAVPxArticulation@physx@@@shdfnd@2@@shdfnd@physx@@IAEAAPAVPxArticulation@3@ABQAV43@@Z 100605c0 f i NpFactory.obj
 0001:0005f670       ?growAndPushBack@?$Array@PAVPxConstraint@physx@@V?$ReflectionAllocator@PAVPxConstraint@physx@@@shdfnd@2@@shdfnd@physx@@IAEAAPAVPxConstraint@3@ABQAV43@@Z 10060670 f i NpFactory.obj
 0001:0005f720       ?growAndPushBack@?$Array@PAXV?$InlineAllocator@$0BAA@VNamedAllocator@shdfnd@physx@@@shdfnd@physx@@@shdfnd@physx@@IAEAAPAXABQAX@Z 10060720 f i NpFactory.obj
 0001:0005f800       ?isValid@PxBoxGeometry@physx@@QBE_NXZ 10060800 f i NpFactory.obj
 0001:0005f8b0       ?isValid@PxCapsuleGeometry@physx@@QBE_NXZ 100608b0 f i NpFactory.obj
 0001:0005f930       ?isValid@PxConvexMeshGeometry@physx@@QBE_NXZ 10060930 f i NpFactory.obj
 0001:0005f9f0       ?isValid@PxHeightFieldGeometry@physx@@QBE_NXZ 100609f0 f i NpFactory.obj
 0001:0005fab0       ?isValid@PxSphereGeometry@physx@@QBE_NXZ 10060ab0 f i NpFactory.obj
 0001:0005fb00       ?isValid@PxTriangleMeshGeometry@physx@@QBE_NXZ 10060b00 f i NpFactory.obj
 0001:0005fbc0       ?recreate@?$Array@GV?$InlineAllocator@$07VNamedAllocator@shdfnd@physx@@@shdfnd@physx@@@shdfnd@physx@@IAEXI@Z 10060bc0 f i NpFactory.obj
 0001:0005fcb0       ?recreate@?$Array@PAVNpClothFabric@physx@@VNamedAllocator@shdfnd@2@@shdfnd@physx@@IAEXI@Z 10060cb0 f i NpFactory.obj
 0001:0005fd70       ?recreate@?$Array@PAVPxActor@physx@@V?$ReflectionAllocator@PAVPxActor@physx@@@shdfnd@2@@shdfnd@physx@@IAEXI@Z 10060d70 f i NpFactory.obj
 0001:0005fdf0       ?recreate@?$Array@PAVPxAggregate@physx@@V?$ReflectionAllocator@PAVPxAggregate@physx@@@shdfnd@2@@shdfnd@physx@@IAEXI@Z 10060df0 f i NpFactory.obj
 0001:0005fe70       ?recreate@?$Array@PAVPxArticulation@physx@@V?$ReflectionAllocator@PAVPxArticulation@physx@@@shdfnd@2@@shdfnd@physx@@IAEXI@Z 10060e70 f i NpFactory.obj
 0001:0005fef0       ?recreate@?$Array@PAVPxConstraint@physx@@V?$ReflectionAllocator@PAVPxConstraint@physx@@@shdfnd@2@@shdfnd@physx@@IAEXI@Z 10060ef0 f i NpFactory.obj
 0001:0005ff70       ?releaseEmptySlabs@?$PoolBase@V?$PtrBlock@$03@NpPtrTableStorageManager@physx@@VNamedAllocator@shdfnd@3@@shdfnd@physx@@IAEXXZ 10060f70 f i NpFactory.obj
 0001:00060260       ?releaseEmptySlabs@?$PoolBase@V?$PtrBlock@$0BA@@NpPtrTableStorageManager@physx@@VNamedAllocator@shdfnd@3@@shdfnd@physx@@IAEXXZ 10061260 f i NpFactory.obj
 0001:00060550       ?releaseEmptySlabs@?$PoolBase@V?$PtrBlock@$0EA@@NpPtrTableStorageManager@physx@@VNamedAllocator@shdfnd@3@@shdfnd@physx@@IAEXXZ 10061550 f i NpFactory.obj
 0001:00060840       ?releaseEmptySlabs@?$PoolBase@VNpAggregate@physx@@VNamedAllocator@shdfnd@2@@shdfnd@physx@@IAEXXZ 10061840 f i NpFactory.obj
 0001:00060b30       ?releaseEmptySlabs@?$PoolBase@VNpArticulation@physx@@VNamedAllocator@shdfnd@2@@shdfnd@physx@@IAEXXZ 10061b30 f i NpFactory.obj
 0001:00060e20       ?releaseEmptySlabs@?$PoolBase@VNpArticulationJoint@physx@@VNamedAllocator@shdfnd@2@@shdfnd@physx@@IAEXXZ 10061e20 f i NpFactory.obj
 0001:00061110       ?releaseEmptySlabs@?$PoolBase@VNpArticulationLink@physx@@VNamedAllocator@shdfnd@2@@shdfnd@physx@@IAEXXZ 10062110 f i NpFactory.obj
 0001:00061400       ?releaseEmptySlabs@?$PoolBase@VNpCloth@physx@@VNamedAllocator@shdfnd@2@@shdfnd@physx@@IAEXXZ 10062400 f i NpFactory.obj
 0001:000616f0       ?releaseEmptySlabs@?$PoolBase@VNpClothFabric@physx@@VNamedAllocator@shdfnd@2@@shdfnd@physx@@IAEXXZ 100626f0 f i NpFactory.obj
 0001:000619e0       ?releaseEmptySlabs@?$PoolBase@VNpConnectorArray@physx@@VNamedAllocator@shdfnd@2@@shdfnd@physx@@IAEXXZ 100629e0 f i NpFactory.obj
 0001:00061cd0       ?releaseEmptySlabs@?$PoolBase@VNpConstraint@physx@@VNamedAllocator@shdfnd@2@@shdfnd@physx@@IAEXXZ 10062cd0 f i NpFactory.obj
 0001:00061fc0       ?releaseEmptySlabs@?$PoolBase@VNpMaterial@physx@@VNamedAllocator@shdfnd@2@@shdfnd@physx@@IAEXXZ 10062fc0 f i NpFactory.obj
 0001:000622b0       ?releaseEmptySlabs@?$PoolBase@VNpParticleFluid@physx@@VNamedAllocator@shdfnd@2@@shdfnd@physx@@IAEXXZ 100632b0 f i NpFactory.obj
 0001:000625a0       ?releaseEmptySlabs@?$PoolBase@VNpParticleSystem@physx@@VNamedAllocator@shdfnd@2@@shdfnd@physx@@IAEXXZ 100635a0 f i NpFactory.obj
 0001:00062890       ?releaseEmptySlabs@?$PoolBase@VNpRigidDynamic@physx@@VNamedAllocator@shdfnd@2@@shdfnd@physx@@IAEXXZ 10063890 f i NpFactory.obj
 0001:00062b80       ?releaseEmptySlabs@?$PoolBase@VNpRigidStatic@physx@@VNamedAllocator@shdfnd@2@@shdfnd@physx@@IAEXXZ 10063b80 f i NpFactory.obj
 0001:00062e70       ?releaseEmptySlabs@?$PoolBase@VNpShape@physx@@VNamedAllocator@shdfnd@2@@shdfnd@physx@@IAEXXZ 10063e70 f i NpFactory.obj
 0001:00063160       ?replaceWithLast@?$HashBase@PAVPxShape@physx@@PAV12@U?$Hash@PAVPxShape@physx@@@shdfnd@2@UGetKey@?$HashSetBase@PAVPxShape@physx@@U?$Hash@PAVPxShape@physx@@@shdfnd@2@VAllocator@42@$00@internal@42@VAllocator@42@$00@internal@shdfnd@physx@@AAEXI@Z 10064160 f i NpFactory.obj
 0001:00063210       ?reserveInternal@?$HashBase@PAVPxActor@physx@@PAV12@U?$Hash@PAVPxActor@physx@@@shdfnd@2@UGetKey@?$HashSetBase@PAVPxActor@physx@@U?$Hash@PAVPxActor@physx@@@shdfnd@2@VAllocator@42@$0A@@internal@42@VAllocator@42@$0A@@internal@shdfnd@physx@@AAEXI@Z 10064210 f i NpFactory.obj
 0001:000634e0       ?reserveInternal@?$HashBase@PAVPxAggregate@physx@@PAV12@U?$Hash@PAVPxAggregate@physx@@@shdfnd@2@UGetKey@?$HashSetBase@PAVPxAggregate@physx@@U?$Hash@PAVPxAggregate@physx@@@shdfnd@2@VAllocator@42@$0A@@internal@42@VAllocator@42@$0A@@internal@shdfnd@physx@@AAEXI@Z 100644e0 f i NpFactory.obj
 0001:000637b0       ?reserveInternal@?$HashBase@PAVPxArticulation@physx@@PAV12@U?$Hash@PAVPxArticulation@physx@@@shdfnd@2@UGetKey@?$HashSetBase@PAVPxArticulation@physx@@U?$Hash@PAVPxArticulation@physx@@@shdfnd@2@VAllocator@42@$0A@@internal@42@VAllocator@42@$0A@@internal@shdfnd@physx@@AAEXI@Z 100647b0 f i NpFactory.obj
 0001:00063a80       ?reserveInternal@?$HashBase@PAVPxConstraint@physx@@PAV12@U?$Hash@PAVPxConstraint@physx@@@shdfnd@2@UGetKey@?$HashSetBase@PAVPxConstraint@physx@@U?$Hash@PAVPxConstraint@physx@@@shdfnd@2@VAllocator@42@$0A@@internal@42@VAllocator@42@$0A@@internal@shdfnd@physx@@AAEXI@Z 10064a80 f i NpFactory.obj
 0001:00063d50       ?reserveInternal@?$HashBase@PAVPxShape@physx@@PAV12@U?$Hash@PAVPxShape@physx@@@shdfnd@2@UGetKey@?$HashSetBase@PAVPxShape@physx@@U?$Hash@PAVPxShape@physx@@@shdfnd@2@VAllocator@42@$00@internal@42@VAllocator@42@$00@internal@shdfnd@physx@@AAEXI@Z 10064d50 f i NpFactory.obj
 0001:00063f20       ?resize@?$Array@GV?$InlineAllocator@$07VNamedAllocator@shdfnd@physx@@@shdfnd@physx@@@shdfnd@physx@@QAEXIABG@Z 10064f20 f i NpFactory.obj
 0001:00063f80       ?onRefCountZero@NpMaterial@physx@@UAEXXZ 10064f80 f   NpMaterial.obj
 0001:00063fd0       ?resolveReferences@NpMaterial@physx@@UAEXAAVPxDeserializationContext@2@@Z 10064fd0 f   NpMaterial.obj
 0001:00063ff0       ?createObject@NpMaterial@physx@@SAPAV12@AAPAEAAVPxDeserializationContext@2@@Z 10064ff0 f   NpMaterial.obj
 0001:00064070       ??0NpMaterial@physx@@QAE@ABVMaterialCore@Sc@1@@Z 10065070 f   NpMaterial.obj
 0001:00064100       ??1NpMaterial@physx@@UAE@XZ 10065100 f   NpMaterial.obj
 0001:00064140       ?release@NpMaterial@physx@@UAEXXZ 10065140 f   NpMaterial.obj
 0001:00064180       ?getReferenceCount@NpMaterial@physx@@UBEIXZ 10065180 f   NpMaterial.obj
 0001:00064190       ?setDynamicFriction@NpMaterial@physx@@UAEXM@Z 10065190 f   NpMaterial.obj
 0001:00064210       ?getDynamicFriction@NpMaterial@physx@@UBEMXZ 10065210 f   NpMaterial.obj
 0001:00064220       ?setStaticFriction@NpMaterial@physx@@UAEXM@Z 10065220 f   NpMaterial.obj
 0001:000642a0       ?getStaticFriction@NpMaterial@physx@@UBEMXZ 100652a0 f   NpMaterial.obj
 0001:000642b0       ?setRestitution@NpMaterial@physx@@UAEXM@Z 100652b0 f   NpMaterial.obj
 0001:000643b0       ?getRestitution@NpMaterial@physx@@UBEMXZ 100653b0 f   NpMaterial.obj
 0001:000643c0       ?setFlag@NpMaterial@physx@@UAEXW4Enum@PxMaterialFlag@2@_N@Z 100653c0 f   NpMaterial.obj
 0001:00064400       ?setFlags@NpMaterial@physx@@UAEXV?$PxFlags@W4Enum@PxMaterialFlag@physx@@G@2@@Z 10065400 f   NpMaterial.obj
 0001:00064420       ?getFlags@NpMaterial@physx@@UBE?AV?$PxFlags@W4Enum@PxMaterialFlag@physx@@G@2@XZ 10065420 f   NpMaterial.obj
 0001:00064440       ?setFrictionCombineMode@NpMaterial@physx@@UAEXW4Enum@PxCombineMode@2@@Z 10065440 f   NpMaterial.obj
 0001:00064470       ?getFrictionCombineMode@NpMaterial@physx@@UBE?AW4Enum@PxCombineMode@2@XZ 10065470 f   NpMaterial.obj
 0001:00064480       ?setRestitutionCombineMode@NpMaterial@physx@@UAEXW4Enum@PxCombineMode@2@@Z 10065480 f   NpMaterial.obj
 0001:000644a0       ?getRestitutionCombineMode@NpMaterial@physx@@UBE?AW4Enum@PxCombineMode@2@XZ 100654a0 f   NpMaterial.obj
 0001:00064600       ??1PxMaterial@physx@@MAE@XZ 10065600 f i NpMaterial.obj
 0001:00064607       ??_ENpMaterial@physx@@WM@AEPAXI@Z 10065607 f i NpMaterial.obj
 0001:00064620       ??_GNpMaterial@physx@@UAEPAXI@Z 10065620 f i NpMaterial.obj
 0001:00064620       ??_ENpMaterial@physx@@UAEPAXI@Z 10065620 f i NpMaterial.obj
 0001:000646a0       ??_GPxMaterial@physx@@MAEPAXI@Z 100656a0 f i NpMaterial.obj
 0001:000646a0       ??_EPxMaterial@physx@@MAEPAXI@Z 100656a0 f i NpMaterial.obj
 0001:000646d0       ?getConcreteTypeName@PxMaterial@physx@@UBEPBDXZ 100656d0 f i NpMaterial.obj
 0001:000646e0       ?isKindOf@PxMaterial@physx@@MBE_NPBD@Z 100656e0 f i NpMaterial.obj
 0001:00064780       ?requires@NpMaterial@physx@@UAEXAAVPxProcessPxBaseCallback@2@@Z 10065780 f i NpMaterial.obj
 0001:00064790       ?getBinaryMetaData_PxBase@physx@@YAXAAVPxOutputStream@1@@Z 10065790 f   NpMetaData.obj
 0001:00064900       ?getBinaryMetaData@RefCountable@Cm@physx@@SAXAAVPxOutputStream@3@@Z 10065900 f   NpMetaData.obj
 0001:000649a0       ?getBinaryMetaData@NpMaterial@physx@@SAXAAVPxOutputStream@2@@Z 100659a0 f   NpMetaData.obj
 0001:00064b10       _PxGetPhysicsBinaryMetaData 10065b10 f   NpMetaData.obj
 0001:00064c60       ?getBinaryMetaData@NpShape@physx@@SAXAAVPxOutputStream@2@@Z 10065c60 f   NpMetaData.obj
 0001:00064f20       ?getBinaryMetaData@NpShapeManager@physx@@SAXAAVPxOutputStream@2@@Z 10065f20 f   NpMetaData.obj
 0001:00065000       ?getBinaryMetaData@NpConstraint@physx@@SAXAAVPxOutputStream@2@@Z 10066000 f   NpMetaData.obj
 0001:000651f0       ?getBinaryMetaData@NpConnector@physx@@SAXAAVPxOutputStream@2@@Z 100661f0 f   NpMetaData.obj
 0001:00065310       ?getBinaryMetaData@NpConnectorArray@physx@@SAXAAVPxOutputStream@2@@Z 10066310 f   NpMetaData.obj
 0001:00065540       ?getBinaryMetaData@NpActor@physx@@SAXAAVPxOutputStream@2@@Z 10066540 f   NpMetaData.obj
 0001:00065620       ?getBinaryMetaData@NpRigidStatic@physx@@SAXAAVPxOutputStream@2@@Z 10066620 f   NpMetaData.obj
 0001:000658a0       ?getBinaryMetaData@NpRigidDynamic@physx@@SAXAAVPxOutputStream@2@@Z 100668a0 f   NpMetaData.obj
 0001:00065b20       ?getBinaryMetaData@NpArticulationLinkArray@physx@@SAXAAVPxOutputStream@2@@Z 10066b20 f   NpMetaData.obj
 0001:00065d50       ?getBinaryMetaData@NpArticulation@physx@@SAXAAVPxOutputStream@2@@Z 10066d50 f   NpMetaData.obj
 0001:00065f80       ?getBinaryMetaData@NpArticulationLink@physx@@SAXAAVPxOutputStream@2@@Z 10066f80 f   NpMetaData.obj
 0001:00066310       ?getBinaryMetaData@NpArticulationJoint@physx@@SAXAAVPxOutputStream@2@@Z 10067310 f   NpMetaData.obj
 0001:00066480       ?getBinaryMetaData@NpClothFabric@physx@@SAXAAVPxOutputStream@2@@Z 10067480 f   NpMetaData.obj
 0001:000665a0       ?getBinaryMetaData@NpCloth@physx@@SAXAAVPxOutputStream@2@@Z 100675a0 f   NpMetaData.obj
 0001:00066790       ?getBinaryMetaData@NpAggregate@physx@@SAXAAVPxOutputStream@2@@Z 10067790 f   NpMetaData.obj
 0001:00066940       ?getBinaryMetaData@NpParticleSystem@physx@@SAXAAVPxOutputStream@2@@Z 10067940 f   NpMetaData.obj
 0001:00066ab0       ?getBinaryMetaData@NpParticleFluid@physx@@SAXAAVPxOutputStream@2@@Z 10067ab0 f   NpMetaData.obj
 0001:00068e50       ??_EPxProfileNameProvider@physx@@MAEPAXI@Z 10069e50 f i NpPhysics.obj
 0001:00068e50       ??_GPxProfileNameProvider@physx@@MAEPAXI@Z 10069e50 f i NpPhysics.obj
 0001:00068e80       ??_ECmEventNameProvider@Cm@physx@@UAEPAXI@Z 10069e80 f i NpPhysics.obj
 0001:00068e80       ??_GCmEventNameProvider@Cm@physx@@UAEPAXI@Z 10069e80 f i NpPhysics.obj
 0001:00068eb0       _PxGetValue                10069eb0 f   NpPhysics.obj
 0001:00068ef0       _PxRegisterArticulations   10069ef0 f   NpPhysics.obj
 0001:00068f00       _PxRegisterHeightFields    10069f00 f   NpPhysics.obj
 0001:00068f40       _PxRegisterUnifiedHeightFields 10069f40 f   NpPhysics.obj
 0001:00068f80       _PxRegisterCloth           10069f80 f   NpPhysics.obj
 0001:00068fc0       _PxRegisterParticles       10069fc0 f   NpPhysics.obj
 0001:00068fd0       _PxCreateBasePhysics       10069fd0 f   NpPhysics.obj
 0001:00068fe0       _PxGetPhysics              10069fe0 f   NpPhysics.obj
 0001:00068ff0       _PxAddCollectionToPhysics  10069ff0 f   NpPhysics.obj
 0001:00069010       ??0NpPhysics@physx@@AAE@ABVPxTolerancesScale@1@ABUPxvOffsetTable@1@_NPAVPxProfileZoneManager@1@@Z 1006a010 f   NpPhysics.obj
 0001:000691d0       ??1NpPhysics@physx@@EAE@XZ 1006a1d0 f   NpPhysics.obj
 0001:000693a0       ?createInstance@NpPhysics@physx@@SAPAV12@IAAVPxFoundation@2@ABVPxTolerancesScale@2@_NPAVPxProfileZoneManager@2@@Z 1006a3a0 f   NpPhysics.obj
 0001:00069530       ?releaseInstance@NpPhysics@physx@@SAIXZ 1006a530 f   NpPhysics.obj
 0001:00069570       ?release@NpPhysics@physx@@UAEXXZ 1006a570 f   NpPhysics.obj
 0001:000695a0       ?createScene@NpPhysics@physx@@UAEPAVPxScene@2@ABVPxSceneDesc@2@@Z 1006a5a0 f   NpPhysics.obj
 0001:000697f0       ?releaseSceneInternal@NpPhysics@physx@@QAEXAAVPxScene@2@@Z 1006a7f0 f   NpPhysics.obj
 0001:00069860       ?getNbScenes@NpPhysics@physx@@UBEIXZ 1006a860 f   NpPhysics.obj
 0001:00069880       ?getScenes@NpPhysics@physx@@UBEIPAPAVPxScene@2@II@Z 1006a880 f   NpPhysics.obj
 0001:000698e0       ?createRigidStatic@NpPhysics@physx@@UAEPAVPxRigidStatic@2@ABVPxTransform@2@@Z 1006a8e0 f   NpPhysics.obj
 0001:000699d0       ?createRigidDynamic@NpPhysics@physx@@UAEPAVPxRigidDynamic@2@ABVPxTransform@2@@Z 1006a9d0 f   NpPhysics.obj
 0001:00069ac0       ?createArticulation@NpPhysics@physx@@UAEPAVPxArticulation@2@XZ 1006aac0 f   NpPhysics.obj
 0001:00069ad0       ?createConstraint@NpPhysics@physx@@UAEPAVPxConstraint@2@PAVPxRigidActor@2@0AAVPxConstraintConnector@2@ABUPxConstraintShaderTable@2@I@Z 1006aad0 f   NpPhysics.obj
 0001:00069ae0       ?createAggregate@NpPhysics@physx@@UAEPAVPxAggregate@2@I_N@Z 1006aae0 f   NpPhysics.obj
 0001:00069af0       ?createShape@NpPhysics@physx@@UAEPAVPxShape@2@ABVPxGeometry@2@PBQAVPxMaterial@2@G_NV?$PxFlags@W4Enum@PxShapeFlag@physx@@E@2@@Z 1006aaf0 f   NpPhysics.obj
 0001:00069c30       ?getNbShapes@NpPhysics@physx@@UBEIXZ 1006ac30 f   NpPhysics.obj
 0001:00069c40       ?getShapes@NpPhysics@physx@@UBEIPAPAVPxShape@2@II@Z 1006ac40 f   NpPhysics.obj
 0001:00069c50       ?createParticleSystem@NpPhysics@physx@@UAEPAVPxParticleSystem@2@I_N@Z 1006ac50 f   NpPhysics.obj
 0001:00069c60       ?createParticleFluid@NpPhysics@physx@@UAEPAVPxParticleFluid@2@I_N@Z 1006ac60 f   NpPhysics.obj
 0001:00069c70       ?createCloth@NpPhysics@physx@@UAEPAVPxCloth@2@ABVPxTransform@2@AAVPxClothFabric@2@PBUPxClothParticle@2@V?$PxFlags@W4Enum@PxClothFlag@physx@@G@2@@Z 1006ac70 f   NpPhysics.obj
 0001:00069d70       ?createMaterial@NpPhysics@physx@@UAEPAVPxMaterial@2@MMM@Z 1006ad70 f   NpPhysics.obj
 0001:00069dc0       ?getNbMaterials@NpPhysics@physx@@UBEIXZ 1006adc0 f   NpPhysics.obj
 0001:00069df0       ?getMaterials@NpPhysics@physx@@UBEIPAPAVPxMaterial@2@II@Z 1006adf0 f   NpPhysics.obj
 0001:00069e70       ?createTriangleMesh@NpPhysics@physx@@UAEPAVPxTriangleMesh@2@AAVPxInputStream@2@@Z 1006ae70 f   NpPhysics.obj
 0001:00069e80       ?getNbTriangleMeshes@NpPhysics@physx@@UBEIXZ 1006ae80 f   NpPhysics.obj
 0001:00069e90       ?getTriangleMeshes@NpPhysics@physx@@UBEIPAPAVPxTriangleMesh@2@II@Z 1006ae90 f   NpPhysics.obj
 0001:00069ea0       ?createHeightField@NpPhysics@physx@@UAEPAVPxHeightField@2@ABVPxHeightFieldDesc@2@@Z 1006aea0 f   NpPhysics.obj
 0001:00069eb0       ?createHeightField@NpPhysics@physx@@UAEPAVPxHeightField@2@AAVPxInputStream@2@@Z 1006aeb0 f   NpPhysics.obj
 0001:00069ec0       ?getNbHeightFields@NpPhysics@physx@@UBEIXZ 1006aec0 f   NpPhysics.obj
 0001:00069ed0       ?getHeightFields@NpPhysics@physx@@UBEIPAPAVPxHeightField@2@II@Z 1006aed0 f   NpPhysics.obj
 0001:00069ee0       ?createConvexMesh@NpPhysics@physx@@UAEPAVPxConvexMesh@2@AAVPxInputStream@2@@Z 1006aee0 f   NpPhysics.obj
 0001:00069ef0       ?getNbConvexMeshes@NpPhysics@physx@@UBEIXZ 1006aef0 f   NpPhysics.obj
 0001:00069f00       ?getConvexMeshes@NpPhysics@physx@@UBEIPAPAVPxConvexMesh@2@II@Z 1006af00 f   NpPhysics.obj
 0001:00069f10       ?createClothFabric@NpPhysics@physx@@UAEPAVPxClothFabric@2@AAVPxInputStream@2@@Z 1006af10 f   NpPhysics.obj
 0001:00069f20       ?createClothFabric@NpPhysics@physx@@UAEPAVPxClothFabric@2@ABVPxClothFabricDesc@2@@Z 1006af20 f   NpPhysics.obj
 0001:00069f30       ?getNbClothFabrics@NpPhysics@physx@@UBEIXZ 1006af30 f   NpPhysics.obj
 0001:00069f40       ?getClothFabrics@NpPhysics@physx@@UBEIPAPAVPxClothFabric@2@I@Z 1006af40 f   NpPhysics.obj
 0001:00069f50       ?registerCloth@NpPhysics@physx@@QAEXXZ 1006af50 f   NpPhysics.obj
 0001:00069f90       ?getTolerancesScale@NpPhysics@physx@@UBEABVPxTolerancesScale@2@XZ 1006af90 f   NpPhysics.obj
 0001:00069fa0       ?getFoundation@NpPhysics@physx@@UAEAAVPxFoundation@2@XZ 1006afa0 f   NpPhysics.obj
 0001:00069fb0       ?getVisualDebugger@NpPhysics@physx@@UAEPAVPxVisualDebugger@2@XZ 1006afb0 f   NpPhysics.obj
 0001:00069fc0       ?getPvdConnectionManager@NpPhysics@physx@@UAEPAVPvdConnectionManager@comm@debugger@2@XZ 1006afc0 f   NpPhysics.obj
 0001:00069fd0       ?getProfileZone@NpPhysics@physx@@UAEAAVPxProfileZone@2@XZ 1006afd0 f   NpPhysics.obj
 0001:00069fe0       ?getProfileZoneManager@NpPhysics@physx@@UAEPAVPxProfileZoneManager@2@XZ 1006afe0 f   NpPhysics.obj
 0001:00069ff0       ?lockScene@NpPhysics@physx@@QAE_NXZ 1006aff0 f   NpPhysics.obj
 0001:0006a040       ?unlockScene@NpPhysics@physx@@QAE_NXZ 1006b040 f   NpPhysics.obj
 0001:0006a050       ?destroySceneLock@NpPhysics@physx@@QAEXXZ 1006b050 f   NpPhysics.obj
 0001:0006a0a0       ?registerDeletionListener@NpPhysics@physx@@UAEXAAVPxDeletionListener@2@ABV?$PxFlags@W4Enum@PxDeletionEventFlag@physx@@E@2@_N@Z 1006b0a0 f   NpPhysics.obj
 0001:0006a190       ?unregisterDeletionListener@NpPhysics@physx@@UAEXAAVPxDeletionListener@2@@Z 1006b190 f   NpPhysics.obj
 0001:0006a200       ?registerDeletionListenerObjects@NpPhysics@physx@@UAEXAAVPxDeletionListener@2@PBQBVPxBase@2@I@Z 1006b200 f   NpPhysics.obj
 0001:0006a2d0       ?unregisterDeletionListenerObjects@NpPhysics@physx@@UAEXAAVPxDeletionListener@2@PBQBVPxBase@2@I@Z 1006b2d0 f   NpPhysics.obj
 0001:0006a380       ?notifyDeletionListeners@NpPhysics@physx@@QAEXPBVPxBase@2@PAXW4Enum@PxDeletionEventFlag@2@@Z 1006b380 f   NpPhysics.obj
 0001:0006a400       ?removeMaterialFromTable@NpPhysics@physx@@QAEXAAVNpMaterial@2@@Z 1006b400 f   NpPhysics.obj
 0001:0006a4b0       ?updateMaterial@NpPhysics@physx@@QAEXAAVNpMaterial@2@@Z 1006b4b0 f   NpPhysics.obj
 0001:0006a500       ?sendMaterialTable@NpPhysics@physx@@QAE_NAAVNpScene@2@@Z 1006b500 f   NpPhysics.obj
 0001:0006a560       ?addMaterial@NpPhysics@physx@@QAEPAVNpMaterial@2@PAV32@@Z 1006b560 f   NpPhysics.obj
 0001:0006a5f0       ?initOffsetTables@NpPhysics@physx@@SAXAAUPxvOffsetTable@2@@Z 1006b5f0 f   NpPhysics.obj
 0001:0006ad40       ??$__vcrt_va_start_verify_argument_type@QBD@@YAXXZ 1006bd40 f i NpPhysics.obj
 0001:0006ad50       ??0NpDelListenerEntry@NpPhysics@physx@@QAE@ABV?$PxFlags@W4Enum@PxDeletionEventFlag@physx@@E@2@_N@Z 1006bd50 f i NpPhysics.obj
 0001:0006ade0       ??0NpMaterialManager@physx@@QAE@XZ 1006bde0 f i NpPhysics.obj
 0001:0006ae80       ??1GuMeshFactoryListener@physx@@MAE@XZ 1006be80 f i NpPhysics.obj
 0001:0006ae90       ??1PxPhysics@physx@@UAE@XZ 1006be90 f i NpPhysics.obj
 0001:0006aea0       ??1PxPhysicsInsertionCallback@physx@@MAE@XZ 1006bea0 f i NpPhysics.obj
 0001:0006aeb0       ??1PxProfileNameProvider@physx@@MAE@XZ 1006beb0 f i NpPhysics.obj
 0001:0006aec0       ??_EGuMeshFactoryListener@physx@@MAEPAXI@Z 1006bec0 f i NpPhysics.obj
 0001:0006aec0       ??_GGuMeshFactoryListener@physx@@MAEPAXI@Z 1006bec0 f i NpPhysics.obj
 0001:0006aef0       ??_EMeshDeletionListener@NpPhysics@physx@@UAEPAXI@Z 1006bef0 f i NpPhysics.obj
 0001:0006aef0       ??_GMeshDeletionListener@NpPhysics@physx@@UAEPAXI@Z 1006bef0 f i NpPhysics.obj
 0001:0006af20       ??_GNpPhysics@physx@@EAEPAXI@Z 1006bf20 f i NpPhysics.obj
 0001:0006af20       ??_ENpPhysics@physx@@EAEPAXI@Z 1006bf20 f i NpPhysics.obj
 0001:0006af70       ??_GNpPhysicsInsertionCallback@physx@@UAEPAXI@Z 1006bf70 f i NpPhysics.obj
 0001:0006af70       ??_ENpPhysicsInsertionCallback@physx@@UAEPAXI@Z 1006bf70 f i NpPhysics.obj
 0001:0006afa0       ??_EPxPhysics@physx@@UAEPAXI@Z 1006bfa0 f i NpPhysics.obj
 0001:0006afa0       ??_GPxPhysics@physx@@UAEPAXI@Z 1006bfa0 f i NpPhysics.obj
 0001:0006afd0       ??_EPxPhysicsInsertionCallback@physx@@MAEPAXI@Z 1006bfd0 f i NpPhysics.obj
 0001:0006afd0       ??_GPxPhysicsInsertionCallback@physx@@MAEPAXI@Z 1006bfd0 f i NpPhysics.obj
 0001:0006b000       ?clear@?$HashBase@V?$Pair@QAVPxDeletionListener@physx@@PAUNpDelListenerEntry@NpPhysics@2@@shdfnd@physx@@PAVPxDeletionListener@3@U?$Hash@PAVPxDeletionListener@physx@@@23@UGetKey@?$HashMapBase@PAVPxDeletionListener@physx@@PAUNpDelListenerEntry@NpPhysics@2@U?$Hash@PAVPxDeletionListener@physx@@@shdfnd@2@VAllocator@62@@internal@23@VAllocator@23@$00@internal@shdfnd@physx@@QAEXXZ 1006c000 f i NpPhysics.obj
 0001:0006b080       ?create@?$HashBase@PBVPxBase@physx@@PBV12@U?$Hash@PBVPxBase@physx@@@shdfnd@2@UGetKey@?$HashSetBase@PBVPxBase@physx@@U?$Hash@PBVPxBase@physx@@@shdfnd@2@VAllocator@42@$0A@@internal@42@VAllocator@42@$0A@@internal@shdfnd@physx@@QAEPAPBVPxBase@4@ABQBV54@AA_N@Z 1006c080 f i NpPhysics.obj
 0001:0006b200       ?create@?$HashBase@V?$Pair@QAVPxDeletionListener@physx@@PAUNpDelListenerEntry@NpPhysics@2@@shdfnd@physx@@PAVPxDeletionListener@3@U?$Hash@PAVPxDeletionListener@physx@@@23@UGetKey@?$HashMapBase@PAVPxDeletionListener@physx@@PAUNpDelListenerEntry@NpPhysics@2@U?$Hash@PAVPxDeletionListener@physx@@@shdfnd@2@VAllocator@62@@internal@23@VAllocator@23@$00@internal@shdfnd@physx@@QAEPAV?$Pair@QAVPxDeletionListener@physx@@PAUNpDelListenerEntry@NpPhysics@2@@34@ABQAVPxDeletionListener@4@AA_N@Z 1006c200 f i NpPhysics.obj
 0001:0006b350       ?erase@?$HashBase@PBVPxBase@physx@@PBV12@U?$Hash@PBVPxBase@physx@@@shdfnd@2@UGetKey@?$HashSetBase@PBVPxBase@physx@@U?$Hash@PBVPxBase@physx@@@shdfnd@2@VAllocator@42@$0A@@internal@42@VAllocator@42@$0A@@internal@shdfnd@physx@@QAE_NABQBVPxBase@4@@Z 1006c350 f i NpPhysics.obj
 0001:0006b420       ?erase@?$HashBase@V?$Pair@QAVPxDeletionListener@physx@@PAUNpDelListenerEntry@NpPhysics@2@@shdfnd@physx@@PAVPxDeletionListener@3@U?$Hash@PAVPxDeletionListener@physx@@@23@UGetKey@?$HashMapBase@PAVPxDeletionListener@physx@@PAUNpDelListenerEntry@NpPhysics@2@U?$Hash@PAVPxDeletionListener@physx@@@shdfnd@2@VAllocator@62@@internal@23@VAllocator@23@$00@internal@shdfnd@physx@@QAE_NABQAVPxDeletionListener@4@@Z 1006c420 f i NpPhysics.obj
 0001:0006b500       ?find@?$HashBase@PBVPxBase@physx@@PBV12@U?$Hash@PBVPxBase@physx@@@shdfnd@2@UGetKey@?$HashSetBase@PBVPxBase@physx@@U?$Hash@PBVPxBase@physx@@@shdfnd@2@VAllocator@42@$0A@@internal@42@VAllocator@42@$0A@@internal@shdfnd@physx@@QBEPBQBVPxBase@4@ABQBV54@@Z 1006c500 f i NpPhysics.obj
 0001:0006b5c0       ?find@?$HashBase@V?$Pair@QAVPxDeletionListener@physx@@PAUNpDelListenerEntry@NpPhysics@2@@shdfnd@physx@@PAVPxDeletionListener@3@U?$Hash@PAVPxDeletionListener@physx@@@23@UGetKey@?$HashMapBase@PAVPxDeletionListener@physx@@PAUNpDelListenerEntry@NpPhysics@2@U?$Hash@PAVPxDeletionListener@physx@@@shdfnd@2@VAllocator@62@@internal@23@VAllocator@23@$00@internal@shdfnd@physx@@QBEPBV?$Pair@QAVPxDeletionListener@physx@@PAUNpDelListenerEntry@NpPhysics@2@@34@ABQAVPxDeletionListener@4@@Z 1006c5c0 f i NpPhysics.obj
 0001:0006b670       ?freeListAdd@?$HashBase@PBVPxBase@physx@@PBV12@U?$Hash@PBVPxBase@physx@@@shdfnd@2@UGetKey@?$HashSetBase@PBVPxBase@physx@@U?$Hash@PBVPxBase@physx@@@shdfnd@2@VAllocator@42@$0A@@internal@42@VAllocator@42@$0A@@internal@shdfnd@physx@@AAEXII@Z 1006c670 f i NpPhysics.obj
 0001:0006b770       ?getPhysicsInsertionCallback@NpPhysics@physx@@UAEAAVPxPhysicsInsertionCallback@2@XZ 1006c770 f i NpPhysics.obj
 0001:0006b780       ?growAndPushBack@?$Array@IVNamedAllocator@shdfnd@physx@@@shdfnd@physx@@IAEAAIABI@Z 1006c780 f i NpPhysics.obj
 0001:0006b870       ?growAndPushBack@?$Array@PAVNpScene@physx@@VNamedAllocator@shdfnd@2@@shdfnd@physx@@IAEAAPAVNpScene@3@ABQAV43@@Z 1006c870 f i NpPhysics.obj
 0001:0006b960       ?insertObject@NpPhysicsInsertionCallback@physx@@UAE_NAAVPxBase@2@@Z 1006c960 f i NpPhysics.obj
 0001:0006ba20       ?isValid@PxSceneDesc@physx@@QBE_NXZ 1006ca20 f i NpPhysics.obj
 0001:0006bcd0       ?onGuMeshFactoryBufferRelease@MeshDeletionListener@NpPhysics@physx@@UAEXPBVPxBase@3@G_N@Z 1006ccd0 f i NpPhysics.obj
 0001:0006bd00       ?releaseMaterials@NpMaterialManager@physx@@QAEXXZ 1006cd00 f i NpPhysics.obj
 0001:0006bdb0       ?replaceWithLast@?$HashBase@V?$Pair@QAVPxDeletionListener@physx@@PAUNpDelListenerEntry@NpPhysics@2@@shdfnd@physx@@PAVPxDeletionListener@3@U?$Hash@PAVPxDeletionListener@physx@@@23@UGetKey@?$HashMapBase@PAVPxDeletionListener@physx@@PAUNpDelListenerEntry@NpPhysics@2@U?$Hash@PAVPxDeletionListener@physx@@@shdfnd@2@VAllocator@62@@internal@23@VAllocator@23@$00@internal@shdfnd@physx@@AAEXI@Z 1006cdb0 f i NpPhysics.obj
 0001:0006be70       ?reserveInternal@?$HashBase@PBVPxBase@physx@@PBV12@U?$Hash@PBVPxBase@physx@@@shdfnd@2@UGetKey@?$HashSetBase@PBVPxBase@physx@@U?$Hash@PBVPxBase@physx@@@shdfnd@2@VAllocator@42@$0A@@internal@42@VAllocator@42@$0A@@internal@shdfnd@physx@@AAEXI@Z 1006ce70 f i NpPhysics.obj
 0001:0006c140       ?reserveInternal@?$HashBase@V?$Pair@QAVPxDeletionListener@physx@@PAUNpDelListenerEntry@NpPhysics@2@@shdfnd@physx@@PAVPxDeletionListener@3@U?$Hash@PAVPxDeletionListener@physx@@@23@UGetKey@?$HashMapBase@PAVPxDeletionListener@physx@@PAUNpDelListenerEntry@NpPhysics@2@U?$Hash@PAVPxDeletionListener@physx@@@shdfnd@2@VAllocator@62@@internal@23@VAllocator@23@$00@internal@shdfnd@physx@@AAEXI@Z 1006d140 f i NpPhysics.obj
 0001:0006c310       ?resize@NpMaterialManager@physx@@AAEXXZ 1006d310 f i NpPhysics.obj
 0001:0006c390       ___local_stdio_printf_options 1006d390 f i NpPhysics.obj
 0001:0006c3a0       _sprintf                   1006d3a0 f i NpPhysics.obj
 0001:0006c3e0       ??0PvdSceneQueryCollector@Pvd@physx@@QAE@AAVScene@Scb@2@_N@Z 1006d3e0 f   NpPvdSceneQueryCollector.obj
 0001:0006c560       ??1PvdSceneQueryCollector@Pvd@physx@@QAE@XZ 1006d560 f   NpPvdSceneQueryCollector.obj
 0001:0006c680       ?release@PvdSceneQueryCollector@Pvd@physx@@QAEXXZ 1006d680 f   NpPvdSceneQueryCollector.obj
 0001:0006c700       ?raycastAny@PvdSceneQueryCollector@Pvd@physx@@QAEXABVPxVec3@3@0MPBUPxQueryHit@3@_NUPxFilterData@3@I@Z 1006d700 f   NpPvdSceneQueryCollector.obj
 0001:0006c820       ?raycastSingle@PvdSceneQueryCollector@Pvd@physx@@QAEXABVPxVec3@3@0MPBUPxRaycastHit@3@_NUPxFilterData@3@I@Z 1006d820 f   NpPvdSceneQueryCollector.obj
 0001:0006c940       ?raycastMultiple@PvdSceneQueryCollector@Pvd@physx@@QAEXABVPxVec3@3@0MPBUPxRaycastHit@3@IUPxFilterData@3@I@Z 1006d940 f   NpPvdSceneQueryCollector.obj
 0001:0006cac0       ?sweepAny@PvdSceneQueryCollector@Pvd@physx@@QAEXABVPxGeometry@3@ABVPxTransform@3@ABVPxVec3@3@MPBUPxQueryHit@3@_NUPxFilterData@3@I@Z 1006dac0 f   NpPvdSceneQueryCollector.obj
 0001:0006cc90       ?sweepAny@PvdSceneQueryCollector@Pvd@physx@@QAEXPAPBVPxGeometry@3@PBVPxTransform@3@PBUPxFilterData@3@IABVPxVec3@3@MPBUPxQueryHit@3@_NI@Z 1006dc90 f   NpPvdSceneQueryCollector.obj
 0001:0006cdc0       ?sweepSingle@PvdSceneQueryCollector@Pvd@physx@@QAEXABVPxGeometry@3@ABVPxTransform@3@ABVPxVec3@3@MPBUPxSweepHit@3@_NUPxFilterData@3@I@Z 1006ddc0 f   NpPvdSceneQueryCollector.obj
 0001:0006cf90       ?sweepSingle@PvdSceneQueryCollector@Pvd@physx@@QAEXPAPBVPxGeometry@3@PBVPxTransform@3@PBUPxFilterData@3@IABVPxVec3@3@MPBUPxSweepHit@3@_NI@Z 1006df90 f   NpPvdSceneQueryCollector.obj
 0001:0006d0c0       ?sweepMultiple@PvdSceneQueryCollector@Pvd@physx@@QAEXABVPxGeometry@3@ABVPxTransform@3@ABVPxVec3@3@MPBUPxSweepHit@3@IUPxFilterData@3@I@Z 1006e0c0 f   NpPvdSceneQueryCollector.obj
 0001:0006d2e0       ?sweepMultiple@PvdSceneQueryCollector@Pvd@physx@@QAEXPAPBVPxGeometry@3@PBVPxTransform@3@PBUPxFilterData@3@IABVPxVec3@3@MPBUPxSweepHit@3@II@Z 1006e2e0 f   NpPvdSceneQueryCollector.obj
 0001:0006d470       ?overlapMultiple@PvdSceneQueryCollector@Pvd@physx@@QAEXABVPxGeometry@3@ABVPxTransform@3@PBUPxOverlapHit@3@IUPxFilterData@3@I@Z 1006e470 f   NpPvdSceneQueryCollector.obj
 0001:0006d670       ?raycastAnyWithLock@PvdSceneQueryCollector@Pvd@physx@@QAEXABVPxVec3@3@0MPBUPxQueryHit@3@_NUPxFilterData@3@I@Z 1006e670 f   NpPvdSceneQueryCollector.obj
 0001:0006d6c0       ?raycastSingleWithLock@PvdSceneQueryCollector@Pvd@physx@@QAEXABVPxVec3@3@0MPBUPxRaycastHit@3@_NUPxFilterData@3@I@Z 1006e6c0 f   NpPvdSceneQueryCollector.obj
 0001:0006d710       ?raycastMultipleWithLock@PvdSceneQueryCollector@Pvd@physx@@QAEXABVPxVec3@3@0MPBUPxRaycastHit@3@IUPxFilterData@3@I@Z 1006e710 f   NpPvdSceneQueryCollector.obj
 0001:0006d760       ?sweepAnyWithLock@PvdSceneQueryCollector@Pvd@physx@@QAEXABVPxGeometry@3@ABVPxTransform@3@ABVPxVec3@3@MPBUPxQueryHit@3@_NUPxFilterData@3@I@Z 1006e760 f   NpPvdSceneQueryCollector.obj
 0001:0006d7b0       ?sweepAnyWithLock@PvdSceneQueryCollector@Pvd@physx@@QAEXPAPBVPxGeometry@3@PBVPxTransform@3@PBUPxFilterData@3@IABVPxVec3@3@MPBUPxQueryHit@3@_NI@Z 1006e7b0 f   NpPvdSceneQueryCollector.obj
 0001:0006d800       ?sweepSingleWithLock@PvdSceneQueryCollector@Pvd@physx@@QAEXABVPxGeometry@3@ABVPxTransform@3@ABVPxVec3@3@MPBUPxSweepHit@3@_NUPxFilterData@3@I@Z 1006e800 f   NpPvdSceneQueryCollector.obj
 0001:0006d850       ?sweepSingleWithLock@PvdSceneQueryCollector@Pvd@physx@@QAEXPAPBVPxGeometry@3@PBVPxTransform@3@PBUPxFilterData@3@IABVPxVec3@3@MPBUPxSweepHit@3@_NI@Z 1006e850 f   NpPvdSceneQueryCollector.obj
 0001:0006d8a0       ?sweepMultipleWithLock@PvdSceneQueryCollector@Pvd@physx@@QAEXABVPxGeometry@3@ABVPxTransform@3@ABVPxVec3@3@MPBUPxSweepHit@3@IUPxFilterData@3@I@Z 1006e8a0 f   NpPvdSceneQueryCollector.obj
 0001:0006d8f0       ?sweepMultipleWithLock@PvdSceneQueryCollector@Pvd@physx@@QAEXPAPBVPxGeometry@3@PBVPxTransform@3@PBUPxFilterData@3@IABVPxVec3@3@MPBUPxSweepHit@3@II@Z 1006e8f0 f   NpPvdSceneQueryCollector.obj
 0001:0006d940       ?overlapMultipleWithLock@PvdSceneQueryCollector@Pvd@physx@@QAEXABVPxGeometry@3@ABVPxTransform@3@PBUPxOverlapHit@3@IUPxFilterData@3@I@Z 1006e940 f   NpPvdSceneQueryCollector.obj
 0001:0006d980       ?collectBatchedRaycastHits@PvdSceneQueryCollector@Pvd@physx@@QAEXPBU?$PxBatchQueryResult@UPxRaycastHit@physx@@@3@II@Z 1006e980 f   NpPvdSceneQueryCollector.obj
 0001:0006db00       ?collectBatchedOverlapHits@PvdSceneQueryCollector@Pvd@physx@@QAEXPBU?$PxBatchQueryResult@UPxOverlapHit@physx@@@3@II@Z 1006eb00 f   NpPvdSceneQueryCollector.obj
 0001:0006dce0       ?collectBatchedSweepHits@PvdSceneQueryCollector@Pvd@physx@@QAEXPBU?$PxBatchQueryResult@UPxSweepHit@physx@@@3@II@Z 1006ece0 f   NpPvdSceneQueryCollector.obj
 0001:0006de60       ?pushBack@PvdSceneQueryCollector@Pvd@physx@@IAEXAAUPvdReference@23@ABVPxGeometry@3@@Z 1006ee60 f   NpPvdSceneQueryCollector.obj
 0001:0006dea0       ?pushBack@PvdSceneQueryCollector@Pvd@physx@@IAEXAAUPvdReference@23@PAPBVPxGeometry@3@I@Z 1006eea0 f   NpPvdSceneQueryCollector.obj
 0001:0006dff0       ?pushBack@PvdSceneQueryCollector@Pvd@physx@@IAEXAAUPvdReference@23@ABVPxTransform@3@@Z 1006eff0 f   NpPvdSceneQueryCollector.obj
 0001:0006e080       ?pushBack@PvdSceneQueryCollector@Pvd@physx@@IAEXAAUPvdReference@23@PBVPxTransform@3@I@Z 1006f080 f   NpPvdSceneQueryCollector.obj
 0001:0006e120       ?pushBack@PvdSceneQueryCollector@Pvd@physx@@IAEXAAUPvdReference@23@ABUPxFilterData@3@@Z 1006f120 f   NpPvdSceneQueryCollector.obj
 0001:0006e180       ?pushBack@PvdSceneQueryCollector@Pvd@physx@@IAEXAAUPvdReference@23@PBUPxFilterData@3@I@Z 1006f180 f   NpPvdSceneQueryCollector.obj
 0001:0006e220       ?doPushBack@PvdSceneQueryCollector@Pvd@physx@@IAEXABVPxGeometry@3@@Z 1006f220 f   NpPvdSceneQueryCollector.obj
 0001:0006eac0       ??0PvdOverlap@Pvd@physx@@QAE@ABU012@@Z 1006fac0 f i NpPvdSceneQueryCollector.obj
 0001:0006eb50       ??0PvdRaycast@Pvd@physx@@QAE@ABU012@@Z 1006fb50 f i NpPvdSceneQueryCollector.obj
 0001:0006ebc0       ??0PvdSqHit@Pvd@physx@@QAE@ABU012@@Z 1006fbc0 f i NpPvdSceneQueryCollector.obj
 0001:0006ec40       ??0PvdSqHit@Pvd@physx@@QAE@ABUPxQueryHit@2@@Z 1006fc40 f i NpPvdSceneQueryCollector.obj
 0001:0006ecc0       ??0PvdSqHit@Pvd@physx@@QAE@ABUPxRaycastHit@2@@Z 1006fcc0 f i NpPvdSceneQueryCollector.obj
 0001:0006ed90       ??0PvdSqHit@Pvd@physx@@QAE@ABUPxSweepHit@2@@Z 1006fd90 f i NpPvdSceneQueryCollector.obj
 0001:0006ee50       ??0PvdSweep@Pvd@physx@@QAE@ABU012@@Z 1006fe50 f i NpPvdSceneQueryCollector.obj
 0001:0006eee0       ??1?$Array@VPxGeometryHolder@physx@@VNamedAllocator@shdfnd@2@@shdfnd@physx@@QAE@XZ 1006fee0 f i NpPvdSceneQueryCollector.obj
 0001:0006ef10       ??4PxConvexMeshGeometry@physx@@QAEAAV01@ABV01@@Z 1006ff10 f i NpPvdSceneQueryCollector.obj
 0001:0006ef60       ??_F?$Array@VPxGeometryHolder@physx@@VNamedAllocator@shdfnd@2@@shdfnd@physx@@QAEXXZ 1006ff60 f i NpPvdSceneQueryCollector.obj
 0001:0006efb0       ??_I@YGXPAXIIP6EX0@Z@Z     1006ffb0 f i NpPvdSceneQueryCollector.obj
 0001:0006eff0       ?copy@?$Array@UPvdOverlap@Pvd@physx@@VNamedAllocator@shdfnd@3@@shdfnd@physx@@KAXPAUPvdOverlap@Pvd@3@0PBU453@@Z 1006fff0 f i NpPvdSceneQueryCollector.obj
 0001:0006f0b0       ?copy@?$Array@UPvdRaycast@Pvd@physx@@VNamedAllocator@shdfnd@3@@shdfnd@physx@@KAXPAUPvdRaycast@Pvd@3@0PBU453@@Z 100700b0 f i NpPvdSceneQueryCollector.obj
 0001:0006f160       ?copy@?$Array@UPvdSqHit@Pvd@physx@@VNamedAllocator@shdfnd@3@@shdfnd@physx@@KAXPAUPvdSqHit@Pvd@3@0PBU453@@Z 10070160 f i NpPvdSceneQueryCollector.obj
 0001:0006f210       ?copy@?$Array@UPvdSweep@Pvd@physx@@VNamedAllocator@shdfnd@3@@shdfnd@physx@@KAXPAUPvdSweep@Pvd@3@0PBU453@@Z 10070210 f i NpPvdSceneQueryCollector.obj
 0001:0006f2e0       ?copy@?$Array@VPxTransform@physx@@VNamedAllocator@shdfnd@2@@shdfnd@physx@@KAXPAVPxTransform@3@0PBV43@@Z 100702e0 f i NpPvdSceneQueryCollector.obj
 0001:0006f420       ?growAndPushBack@?$Array@UPvdOverlap@Pvd@physx@@VNamedAllocator@shdfnd@3@@shdfnd@physx@@IAEAAUPvdOverlap@Pvd@3@ABU453@@Z 10070420 f i NpPvdSceneQueryCollector.obj
 0001:0006f500       ?growAndPushBack@?$Array@UPvdRaycast@Pvd@physx@@VNamedAllocator@shdfnd@3@@shdfnd@physx@@IAEAAUPvdRaycast@Pvd@3@ABU453@@Z 10070500 f i NpPvdSceneQueryCollector.obj
 0001:0006f640       ?growAndPushBack@?$Array@UPvdSqHit@Pvd@physx@@VNamedAllocator@shdfnd@3@@shdfnd@physx@@IAEAAUPvdSqHit@Pvd@3@ABU453@@Z 10070640 f i NpPvdSceneQueryCollector.obj
 0001:0006f750       ?growAndPushBack@?$Array@UPvdSweep@Pvd@physx@@VNamedAllocator@shdfnd@3@@shdfnd@physx@@IAEAAUPvdSweep@Pvd@3@ABU453@@Z 10070750 f i NpPvdSceneQueryCollector.obj
 0001:0006f840       ?growAndPushBack@?$Array@UPxFilterData@physx@@VNamedAllocator@shdfnd@2@@shdfnd@physx@@IAEAAUPxFilterData@3@ABU43@@Z 10070840 f i NpPvdSceneQueryCollector.obj
 0001:0006f940       ?growAndPushBack@?$Array@VPxGeometryHolder@physx@@VNamedAllocator@shdfnd@2@@shdfnd@physx@@IAEAAVPxGeometryHolder@3@ABV43@@Z 10070940 f i NpPvdSceneQueryCollector.obj
 0001:0006fa70       ?growAndPushBack@?$Array@VPxTransform@physx@@VNamedAllocator@shdfnd@2@@shdfnd@physx@@IAEAAVPxTransform@3@ABV43@@Z 10070a70 f i NpPvdSceneQueryCollector.obj
 0001:0006fba0       ??0NpReadCheck@physx@@QAE@PBVNpScene@1@PBD@Z 10070ba0 f   NpReadCheck.obj
 0001:0006fc40       ??1NpReadCheck@physx@@QAE@XZ 10070c40 f   NpReadCheck.obj
 0001:0006fd00       ?NpRigidDynamicGetShapes@physx@@YAIAAVBody@Scb@1@AAPBQAX@Z 10070d00 f   NpRigidDynamic.obj
 0001:0006fd30       ?requires@NpRigidDynamic@physx@@UAEXAAVPxProcessPxBaseCallback@2@@Z 10070d30 f   NpRigidDynamic.obj
 0001:0006fd80       ?createObject@NpRigidDynamic@physx@@SAPAV12@AAPAEAAVPxDeserializationContext@2@@Z 10070d80 f   NpRigidDynamic.obj
 0001:0006fde0       ??1NpRigidDynamic@physx@@UAE@XZ 10070de0 f   NpRigidDynamic.obj
 0001:0006fe20       ?release@NpRigidDynamic@physx@@UAEXXZ 10070e20 f   NpRigidDynamic.obj
 0001:0006ff10       ?setGlobalPose@NpRigidDynamic@physx@@UAEXABVPxTransform@2@_N@Z 10070f10 f   NpRigidDynamic.obj
 0001:000703a0       ?setKinematicTarget@NpRigidDynamic@physx@@UAEXABVPxTransform@2@@Z 100713a0 f   NpRigidDynamic.obj
 0001:00070810       ?getKinematicTarget@NpRigidDynamic@physx@@UAE_NAAVPxTransform@2@@Z 10071810 f   NpRigidDynamic.obj
 0001:00070c10       ?setCMassLocalPose@NpRigidDynamic@physx@@UAEXABVPxTransform@2@@Z 10071c10 f   NpRigidDynamic.obj
 0001:00071370       ?setLinearDamping@NpRigidDynamic@physx@@UAEXM@Z 10072370 f   NpRigidDynamic.obj
 0001:00071460       ?getLinearDamping@NpRigidDynamic@physx@@UBEMXZ 10072460 f   NpRigidDynamic.obj
 0001:000714d0       ?setAngularDamping@NpRigidDynamic@physx@@UAEXM@Z 100724d0 f   NpRigidDynamic.obj
 0001:000715c0       ?getAngularDamping@NpRigidDynamic@physx@@UBEMXZ 100725c0 f   NpRigidDynamic.obj
 0001:00071630       ?setLinearVelocity@NpRigidDynamic@physx@@UAEXABVPxVec3@2@_N@Z 10072630 f   NpRigidDynamic.obj
 0001:00071870       ?setAngularVelocity@NpRigidDynamic@physx@@UAEXABVPxVec3@2@_N@Z 10072870 f   NpRigidDynamic.obj
 0001:00071ab0       ?setMaxAngularVelocity@NpRigidDynamic@physx@@UAEXM@Z 10072ab0 f   NpRigidDynamic.obj
 0001:00071ba0       ?getMaxAngularVelocity@NpRigidDynamic@physx@@UBEMXZ 10072ba0 f   NpRigidDynamic.obj
 0001:00071c10       ?addForce@NpRigidDynamic@physx@@UAEXABVPxVec3@2@W4Enum@PxForceMode@2@_N@Z 10072c10 f   NpRigidDynamic.obj
 0001:00071ec0       ?clearForce@NpRigidDynamic@physx@@UAEXW4Enum@PxForceMode@2@@Z 10072ec0 f   NpRigidDynamic.obj
 0001:00072040       ?addTorque@NpRigidDynamic@physx@@UAEXABVPxVec3@2@W4Enum@PxForceMode@2@_N@Z 10073040 f   NpRigidDynamic.obj
 0001:000722f0       ?clearTorque@NpRigidDynamic@physx@@UAEXW4Enum@PxForceMode@2@@Z 100732f0 f   NpRigidDynamic.obj
 0001:00072470       ?isSleeping@NpRigidDynamic@physx@@UBE_NXZ 10073470 f   NpRigidDynamic.obj
 0001:00072500       ?getSleepThreshold@NpRigidDynamic@physx@@UBEMXZ 10073500 f   NpRigidDynamic.obj
 0001:00072550       ?setSleepThreshold@NpRigidDynamic@physx@@UAEXM@Z 10073550 f   NpRigidDynamic.obj
 0001:00072640       ?getStabilizationThreshold@NpRigidDynamic@physx@@UBEMXZ 10073640 f   NpRigidDynamic.obj
 0001:000726a0       ?setStabilizationThreshold@NpRigidDynamic@physx@@UAEXM@Z 100736a0 f   NpRigidDynamic.obj
 0001:00072790       ?setWakeCounter@NpRigidDynamic@physx@@UAEXM@Z 10073790 f   NpRigidDynamic.obj
 0001:00072950       ?getWakeCounter@NpRigidDynamic@physx@@UBEMXZ 10073950 f   NpRigidDynamic.obj
 0001:00072990       ?wakeUp@NpRigidDynamic@physx@@UAEXXZ 10073990 f   NpRigidDynamic.obj
 0001:00072b20       ?putToSleep@NpRigidDynamic@physx@@UAEXXZ 10073b20 f   NpRigidDynamic.obj
 0001:00072ca0       ?setSolverIterationCounts@NpRigidDynamic@physx@@UAEXII@Z 10073ca0 f   NpRigidDynamic.obj
 0001:00072dc0       ?getSolverIterationCounts@NpRigidDynamic@physx@@UBEXAAI0@Z 10073dc0 f   NpRigidDynamic.obj
 0001:00072e20       ?setContactReportThreshold@NpRigidDynamic@physx@@UAEXM@Z 10073e20 f   NpRigidDynamic.obj
 0001:00072f10       ?getContactReportThreshold@NpRigidDynamic@physx@@UBEMXZ 10073f10 f   NpRigidDynamic.obj
 0001:00072f70       ??0NpRigidDynamic@physx@@QAE@ABVPxTransform@1@@Z 10073f70 f   NpRigidDynamic.obj
 0001:00072fd0       ?switchToNoSim@NpRigidDynamic@physx@@UAEXXZ 10073fd0 f   NpRigidDynamic.obj
 0001:000730e0       ?switchFromNoSim@NpRigidDynamic@physx@@UAEXXZ 100740e0 f   NpRigidDynamic.obj
 0001:00073100       ?wakeUpInternalNoKinematicTest@NpRigidDynamic@physx@@QAEXAAVBody@Scb@2@_N1@Z 10074100 f   NpRigidDynamic.obj
 0001:00073170       ?visualize@NpRigidDynamic@physx@@QAEXAAVRenderOutput@Cm@2@PAVNpScene@2@@Z 10074170 f   NpRigidDynamic.obj
 0001:00074190       ??0?$NpActorTemplate@VPxRigidDynamic@physx@@@physx@@QAE@GV?$PxFlags@W4Enum@PxBaseFlag@physx@@G@1@PBDPAX@Z 10075190 f i NpRigidDynamic.obj
 0001:000741f0       ??0?$NpRigidActorTemplate@VPxRigidDynamic@physx@@@physx@@QAE@GV?$PxFlags@W4Enum@PxBaseFlag@physx@@G@1@@Z 100751f0 f i NpRigidDynamic.obj
 0001:00074250       ??0?$NpRigidBodyTemplate@VPxRigidDynamic@physx@@@physx@@QAE@GV?$PxFlags@W4Enum@PxBaseFlag@physx@@G@1@W4Enum@PxActorType@1@ABVPxTransform@1@@Z 10075250 f i NpRigidDynamic.obj
 0001:000742d0       ??0?$NpRigidBodyTemplate@VPxRigidDynamic@physx@@@physx@@QAE@V?$PxFlags@W4Enum@PxBaseFlag@physx@@G@1@@Z 100752d0 f i NpRigidDynamic.obj
 0001:00074370       ??1?$NpActorTemplate@VPxRigidDynamic@physx@@@physx@@UAE@XZ 10075370 f i NpRigidDynamic.obj
 0001:000743a0       ??1?$NpRigidActorTemplate@VPxRigidDynamic@physx@@@physx@@UAE@XZ 100753a0 f i NpRigidDynamic.obj
 0001:000743e0       ??1?$NpRigidBodyTemplate@VPxRigidDynamic@physx@@@physx@@UAE@XZ 100753e0 f i NpRigidDynamic.obj
 0001:00074430       ??1PxRigidDynamic@physx@@MAE@XZ 10075430 f i NpRigidDynamic.obj
 0001:00074440       ??_G?$NpActorTemplate@VPxRigidDynamic@physx@@@physx@@UAEPAXI@Z 10075440 f i NpRigidDynamic.obj
 0001:00074440       ??_E?$NpActorTemplate@VPxRigidDynamic@physx@@@physx@@UAEPAXI@Z 10075440 f i NpRigidDynamic.obj
 0001:000744b0       ??_E?$NpRigidActorTemplate@VPxRigidDynamic@physx@@@physx@@UAEPAXI@Z 100754b0 f i NpRigidDynamic.obj
 0001:000744b0       ??_G?$NpRigidActorTemplate@VPxRigidDynamic@physx@@@physx@@UAEPAXI@Z 100754b0 f i NpRigidDynamic.obj
 0001:00074530       ??_E?$NpRigidBodyTemplate@VPxRigidDynamic@physx@@@physx@@UAEPAXI@Z 10075530 f i NpRigidDynamic.obj
 0001:00074530       ??_G?$NpRigidBodyTemplate@VPxRigidDynamic@physx@@@physx@@UAEPAXI@Z 10075530 f i NpRigidDynamic.obj
 0001:000745c0       ??_ENpRigidDynamic@physx@@UAEPAXI@Z 100755c0 f i NpRigidDynamic.obj
 0001:000745c0       ??_GNpRigidDynamic@physx@@UAEPAXI@Z 100755c0 f i NpRigidDynamic.obj
 0001:00074650       ??_EPxRigidDynamic@physx@@MAEPAXI@Z 10075650 f i NpRigidDynamic.obj
 0001:00074650       ??_GPxRigidDynamic@physx@@MAEPAXI@Z 10075650 f i NpRigidDynamic.obj
 0001:00074680       ?addSpatialForce@?$NpRigidBodyTemplate@VPxRigidDynamic@physx@@@physx@@IAEXPBVPxVec3@2@0W4Enum@PxForceMode@2@@Z 10075680 f i NpRigidDynamic.obj
 0001:00074990       ?attachShape@?$NpRigidActorTemplate@VPxRigidDynamic@physx@@@physx@@UAEXAAVPxShape@2@@Z 10075990 f i NpRigidDynamic.obj
 0001:00074a60       ?attachShape@?$NpRigidBodyTemplate@VPxRigidDynamic@physx@@@physx@@UAEXAAVPxShape@2@@Z 10075a60 f i NpRigidDynamic.obj
 0001:00074bc0       ?clearSpatialForce@?$NpRigidBodyTemplate@VPxRigidDynamic@physx@@@physx@@IAEXW4Enum@PxForceMode@2@_N1@Z 10075bc0 f i NpRigidDynamic.obj
 0001:00074c20       ?createShape@?$NpRigidBodyTemplate@VPxRigidDynamic@physx@@@physx@@UAEPAVPxShape@2@ABVPxGeometry@2@PBQAVPxMaterial@2@GV?$PxFlags@W4Enum@PxShapeFlag@physx@@E@2@@Z 10075c20 f i NpRigidDynamic.obj
 0001:00074d90       ?detachShape@?$NpRigidActorTemplate@VPxRigidDynamic@physx@@@physx@@UAEXAAVPxShape@2@_N@Z 10075d90 f i NpRigidDynamic.obj
 0001:00074e50       ?exportExtraData@?$NpActorTemplate@VPxRigidDynamic@physx@@@physx@@UAEXAAVPxSerializationContext@2@@Z 10075e50 f i NpRigidDynamic.obj
 0001:00074e60       ?exportExtraData@?$NpRigidActorTemplate@VPxRigidDynamic@physx@@@physx@@UAEXAAVPxSerializationContext@2@@Z 10075e60 f i NpRigidDynamic.obj
 0001:00074e90       ?getActorFlags@?$NpActorTemplate@VPxRigidDynamic@physx@@@physx@@UBE?AV?$PxFlags@W4Enum@PxActorFlag@physx@@G@2@XZ 10075e90 f i NpRigidDynamic.obj
 0001:00074f10       ?getActorFlags@Actor@Scb@physx@@QBE?AV?$PxFlags@W4Enum@PxActorFlag@physx@@G@3@XZ 10075f10 f i NpRigidDynamic.obj
 0001:00074f60       ?getAggregate@?$NpActorTemplate@VPxRigidDynamic@physx@@@physx@@UBEPAVPxAggregate@2@XZ 10075f60 f i NpRigidDynamic.obj
 0001:00074f70       ?getAngularVelocity@?$NpRigidBodyTemplate@VPxRigidDynamic@physx@@@physx@@UBE?AVPxVec3@2@XZ 10075f70 f i NpRigidDynamic.obj
 0001:00074fe0       ?getCMassLocalPose@?$NpRigidBodyTemplate@VPxRigidDynamic@physx@@@physx@@UBE?AVPxTransform@2@XZ 10075fe0 f i NpRigidDynamic.obj
 0001:00075080       ?getClientBehaviorFlags@?$NpActorTemplate@VPxRigidDynamic@physx@@@physx@@UBE?AV?$PxFlags@W4Enum@PxActorClientBehaviorFlag@physx@@E@2@XZ 10076080 f i NpRigidDynamic.obj
 0001:00075100       ?getConcreteTypeName@PxRigidDynamic@physx@@UBEPBDXZ 10076100 f i NpRigidDynamic.obj
 0001:00075110       ?getConstraints@?$NpRigidActorTemplate@VPxRigidDynamic@physx@@@physx@@UBEIPAPAVPxConstraint@2@II@Z 10076110 f i NpRigidDynamic.obj
 0001:00075170       ?getDominanceGroup@?$NpActorTemplate@VPxRigidDynamic@physx@@@physx@@UBEEXZ 10076170 f i NpRigidDynamic.obj
 0001:00075200       ?getGlobalPose@NpRigidDynamic@physx@@UBE?AVPxTransform@2@XZ 10076200 f i NpRigidDynamic.obj
 0001:000756e0       ?getInvMass@?$NpRigidBodyTemplate@VPxRigidDynamic@physx@@@physx@@UBEMXZ 100766e0 f i NpRigidDynamic.obj
 0001:00075760       ?getLinearVelocity@?$NpRigidBodyTemplate@VPxRigidDynamic@physx@@@physx@@UBE?AVPxVec3@2@XZ 10076760 f i NpRigidDynamic.obj
 0001:000757d0       ?getMass@?$NpRigidBodyTemplate@VPxRigidDynamic@physx@@@physx@@UBEMXZ 100767d0 f i NpRigidDynamic.obj
 0001:00075880       ?getMassSpaceInertiaTensor@?$NpRigidBodyTemplate@VPxRigidDynamic@physx@@@physx@@UBE?AVPxVec3@2@XZ 10076880 f i NpRigidDynamic.obj
 0001:00075960       ?getMassSpaceInvInertiaTensor@?$NpRigidBodyTemplate@VPxRigidDynamic@physx@@@physx@@UBE?AVPxVec3@2@XZ 10076960 f i NpRigidDynamic.obj
 0001:000759e0       ?getMaxDepenetrationVelocity@?$NpRigidBodyTemplate@VPxRigidDynamic@physx@@@physx@@UBEMXZ 100769e0 f i NpRigidDynamic.obj
 0001:00075a40       ?getMinCCDAdvanceCoefficient@?$NpRigidBodyTemplate@VPxRigidDynamic@physx@@@physx@@UBEMXZ 10076a40 f i NpRigidDynamic.obj
 0001:00075a90       ?getName@?$NpActorTemplate@VPxRigidDynamic@physx@@@physx@@UBEPBDXZ 10076a90 f i NpRigidDynamic.obj
 0001:00075ad0       ?getNbConstraints@?$NpRigidActorTemplate@VPxRigidDynamic@physx@@@physx@@UBEIXZ 10076ad0 f i NpRigidDynamic.obj
 0001:00075b20       ?getNbShapes@?$NpRigidActorTemplate@VPxRigidDynamic@physx@@@physx@@UBEIXZ 10076b20 f i NpRigidDynamic.obj
 0001:00075b60       ?getOwnerClient@?$NpActorTemplate@VPxRigidDynamic@physx@@@physx@@UBEEXZ 10076b60 f i NpRigidDynamic.obj
 0001:00075b90       ?getRigidBodyFlags@?$NpRigidBodyTemplate@VPxRigidDynamic@physx@@@physx@@UBE?AV?$PxFlags@W4Enum@PxRigidBodyFlag@physx@@E@2@XZ 10076b90 f i NpRigidDynamic.obj
 0001:00075c00       ?getRigidDynamicFlags@?$NpRigidBodyTemplate@VPxRigidDynamic@physx@@@physx@@UBE?AV?$PxFlags@W4Enum@PxRigidBodyFlag@physx@@E@2@XZ 10076c00 f i NpRigidDynamic.obj
 0001:00075c70       ?getScene@?$NpActorTemplate@VPxRigidDynamic@physx@@@physx@@UBEPAVPxScene@2@XZ 10076c70 f i NpRigidDynamic.obj
 0001:00075c80       ?getShapes@?$NpRigidActorTemplate@VPxRigidDynamic@physx@@@physx@@UBEIPAPAVPxShape@2@II@Z 10076c80 f i NpRigidDynamic.obj
 0001:00075ce0       ?getType@NpRigidDynamic@physx@@UBE?AW4Enum@PxActorType@2@XZ 10076ce0 f i NpRigidDynamic.obj
 0001:00075cf0       ?getWorldBounds@?$NpRigidActorTemplate@VPxRigidDynamic@physx@@@physx@@UBE?AVPxBounds3@2@M@Z 10076cf0 f i NpRigidDynamic.obj
 0001:00075e50       ?importExtraData@?$NpRigidActorTemplate@VPxRigidDynamic@physx@@@physx@@QAEXAAVPxDeserializationContext@2@@Z 10076e50 f i NpRigidDynamic.obj
 0001:00075e80       ?isKindOf@PxRigidDynamic@physx@@MBE_NPBD@Z 10076e80 f i NpRigidDynamic.obj
 0001:00075ef0       ?release@?$NpActorTemplate@VPxRigidDynamic@physx@@@physx@@UAEXXZ 10076ef0 f i NpRigidDynamic.obj
 0001:00075f00       ?release@?$NpRigidActorTemplate@VPxRigidDynamic@physx@@@physx@@UAEXXZ 10076f00 f i NpRigidDynamic.obj
 0001:00075f40       ?requires@?$NpRigidActorTemplate@VPxRigidDynamic@physx@@@physx@@UAEXAAVPxProcessPxBaseCallback@2@@Z 10076f40 f i NpRigidDynamic.obj
 0001:00075fa0       ?resolveReferences@?$NpActorTemplate@VPxRigidDynamic@physx@@@physx@@UAEXAAVPxDeserializationContext@2@@Z 10076fa0 f i NpRigidDynamic.obj
 0001:00075fb0       ?resolveReferences@?$NpRigidActorTemplate@VPxRigidDynamic@physx@@@physx@@UAEXAAVPxDeserializationContext@2@@Z 10076fb0 f i NpRigidDynamic.obj
 0001:00076040       ?setActorFlag@?$NpActorTemplate@VPxRigidDynamic@physx@@@physx@@UAEXW4Enum@PxActorFlag@2@_N@Z 10077040 f i NpRigidDynamic.obj
 0001:00076110       ?setActorFlag@?$NpRigidActorTemplate@VPxRigidDynamic@physx@@@physx@@UAEXW4Enum@PxActorFlag@2@_N@Z 10077110 f i NpRigidDynamic.obj
 0001:00076390       ?setActorFlags@?$NpActorTemplate@VPxRigidDynamic@physx@@@physx@@UAEXV?$PxFlags@W4Enum@PxActorFlag@physx@@G@2@@Z 10077390 f i NpRigidDynamic.obj
 0001:000763f0       ?setActorFlags@?$NpRigidActorTemplate@VPxRigidDynamic@physx@@@physx@@UAEXV?$PxFlags@W4Enum@PxActorFlag@physx@@G@2@@Z 100773f0 f i NpRigidDynamic.obj
 0001:000765f0       ?setAngularDamping@Body@Scb@physx@@QAEXM@Z 100775f0 f i NpRigidDynamic.obj
 0001:000766c0       ?setCMassLocalPoseInternal@?$NpRigidBodyTemplate@VPxRigidDynamic@physx@@@physx@@IAEXABVPxTransform@2@@Z 100776c0 f i NpRigidDynamic.obj
 0001:000769a0       ?setClientBehaviorFlags@?$NpActorTemplate@VPxRigidDynamic@physx@@@physx@@UAEXV?$PxFlags@W4Enum@PxActorClientBehaviorFlag@physx@@E@2@@Z 100779a0 f i NpRigidDynamic.obj
 0001:00076a00       ?setClientBehaviorFlags@?$NpRigidActorTemplate@VPxRigidDynamic@physx@@@physx@@UAEXV?$PxFlags@W4Enum@PxActorClientBehaviorFlag@physx@@E@2@@Z 10077a00 f i NpRigidDynamic.obj
 0001:00076a90       ?setContactReportThreshold@Body@Scb@physx@@QAEXM@Z 10077a90 f i NpRigidDynamic.obj
 0001:00076b50       ?setDominanceGroup@?$NpActorTemplate@VPxRigidDynamic@physx@@@physx@@UAEXE@Z 10077b50 f i NpRigidDynamic.obj
 0001:00076bb0       ?setFreezeThreshold@Body@Scb@physx@@QAEXM@Z 10077bb0 f i NpRigidDynamic.obj
 0001:00076c70       ?setKinematicTarget@Body@Scb@physx@@QAEXABVPxTransform@3@@Z 10077c70 f i NpRigidDynamic.obj
 0001:00076e30       ?setLinearDamping@Body@Scb@physx@@QAEXM@Z 10077e30 f i NpRigidDynamic.obj
 0001:00076f00       ?setMass@?$NpRigidBodyTemplate@VPxRigidDynamic@physx@@@physx@@UAEXM@Z 10077f00 f i NpRigidDynamic.obj
 0001:000770d0       ?setMassSpaceInertiaTensor@?$NpRigidBodyTemplate@VPxRigidDynamic@physx@@@physx@@UAEXABVPxVec3@2@@Z 100780d0 f i NpRigidDynamic.obj
 0001:00077340       ?setMaxAngVelSq@Body@Scb@physx@@QAEXM@Z 10078340 f i NpRigidDynamic.obj
 0001:00077410       ?setMaxDepenetrationVelocity@?$NpRigidBodyTemplate@VPxRigidDynamic@physx@@@physx@@UAEXM@Z 10078410 f i NpRigidDynamic.obj
 0001:00077480       ?setMinCCDAdvanceCoefficient@?$NpRigidBodyTemplate@VPxRigidDynamic@physx@@@physx@@UAEXM@Z 10078480 f i NpRigidDynamic.obj
 0001:000774a0       ?setName@?$NpActorTemplate@VPxRigidDynamic@physx@@@physx@@UAEXPBD@Z 100784a0 f i NpRigidDynamic.obj
 0001:00077550       ?setOwnerClient@?$NpActorTemplate@VPxRigidDynamic@physx@@@physx@@UAEXE@Z 10078550 f i NpRigidDynamic.obj
 0001:000775c0       ?setRigidBodyFlag@?$NpRigidBodyTemplate@VPxRigidDynamic@physx@@@physx@@UAEXW4Enum@PxRigidBodyFlag@2@_N@Z 100785c0 f i NpRigidDynamic.obj
 0001:00077940       ?setRigidBodyFlags@?$NpRigidBodyTemplate@VPxRigidDynamic@physx@@@physx@@UAEXV?$PxFlags@W4Enum@PxRigidBodyFlag@physx@@E@2@@Z 10078940 f i NpRigidDynamic.obj
 0001:00077d00       ?setRigidDynamicFlag@?$NpRigidBodyTemplate@VPxRigidDynamic@physx@@@physx@@UAEXW4Enum@PxRigidBodyFlag@2@_N@Z 10078d00 f i NpRigidDynamic.obj
 0001:00077d10       ?setRigidDynamicFlags@?$NpRigidBodyTemplate@VPxRigidDynamic@physx@@@physx@@UAEXV?$PxFlags@W4Enum@PxRigidBodyFlag@physx@@E@2@@Z 10078d10 f i NpRigidDynamic.obj
 0001:00077d30       ?setSleepThreshold@Body@Scb@physx@@QAEXM@Z 10078d30 f i NpRigidDynamic.obj
 0001:00077df0       ?setSolverIterationCounts@Body@Scb@physx@@QAEXG@Z 10078df0 f i NpRigidDynamic.obj
 0001:00077eb0       ?switchFromNoSim@?$NpRigidActorTemplate@VPxRigidDynamic@physx@@@physx@@UAEXXZ 10078eb0 f i NpRigidDynamic.obj
 0001:00077ec0       ?switchToNoSim@?$NpRigidActorTemplate@VPxRigidDynamic@physx@@@physx@@UAEXXZ 10078ec0 f i NpRigidDynamic.obj
 0001:00077ed0       ?updateShaderComs@?$NpRigidActorTemplate@VPxRigidDynamic@physx@@@physx@@QAEXXZ 10078ed0 f i NpRigidDynamic.obj
 0001:00077f40       ?visualize@?$NpRigidActorTemplate@VPxRigidDynamic@physx@@@physx@@QAEXAAVRenderOutput@Cm@2@PAVNpScene@2@@Z 10078f40 f i NpRigidDynamic.obj
 0001:00077f60       ?visualize@?$NpRigidBodyTemplate@VPxRigidDynamic@physx@@@physx@@QAEXAAVRenderOutput@Cm@2@PAVNpScene@2@@Z 10078f60 f i NpRigidDynamic.obj
 0001:000783b0       ?NpRigidStaticGetShapes@physx@@YAIAAVRigidStatic@Scb@1@AAPBQAX@Z 100793b0 f   NpRigidStatic.obj
 0001:000783f0       ?requires@NpRigidStatic@physx@@UAEXAAVPxProcessPxBaseCallback@2@@Z 100793f0 f   NpRigidStatic.obj
 0001:00078440       ?createObject@NpRigidStatic@physx@@SAPAV12@AAPAEAAVPxDeserializationContext@2@@Z 10079440 f   NpRigidStatic.obj
 0001:00078490       ??1NpRigidStatic@physx@@UAE@XZ 10079490 f   NpRigidStatic.obj
 0001:000784d0       ?release@NpRigidStatic@physx@@UAEXXZ 100794d0 f   NpRigidStatic.obj
 0001:000785c0       ?createShape@NpRigidStatic@physx@@UAEPAVPxShape@2@ABVPxGeometry@2@PBQAVPxMaterial@2@GV?$PxFlags@W4Enum@PxShapeFlag@physx@@E@2@@Z 100795c0 f   NpRigidStatic.obj
 0001:00078680       ?setGlobalPose@NpRigidStatic@physx@@UAEXABVPxTransform@2@_N@Z 10079680 f   NpRigidStatic.obj
 0001:00078810       ?getGlobalPose@NpRigidStatic@physx@@UBE?AVPxTransform@2@XZ 10079810 f   NpRigidStatic.obj
 0001:00078880       ??0NpRigidStatic@physx@@QAE@ABVPxTransform@1@@Z 10079880 f   NpRigidStatic.obj
 0001:000788e0       ?switchToNoSim@NpRigidStatic@physx@@UAEXXZ 100798e0 f   NpRigidStatic.obj
 0001:00078900       ?switchFromNoSim@NpRigidStatic@physx@@UAEXXZ 10079900 f   NpRigidStatic.obj
 0001:00078920       ?checkConstraintValidity@NpRigidStatic@physx@@QBE_NXZ 10079920 f   NpRigidStatic.obj
 0001:00078970       ?visualize@NpRigidStatic@physx@@QAEXAAVRenderOutput@Cm@2@PAVNpScene@2@@Z 10079970 f   NpRigidStatic.obj
 0001:00078c40       ??0?$NpActorTemplate@VPxRigidStatic@physx@@@physx@@QAE@GV?$PxFlags@W4Enum@PxBaseFlag@physx@@G@1@PBDPAX@Z 10079c40 f i NpRigidStatic.obj
 0001:00078ca0       ??0?$NpRigidActorTemplate@VPxRigidStatic@physx@@@physx@@QAE@GV?$PxFlags@W4Enum@PxBaseFlag@physx@@G@1@@Z 10079ca0 f i NpRigidStatic.obj
 0001:00078d00       ??0NpRigidStatic@physx@@QAE@V?$PxFlags@W4Enum@PxBaseFlag@physx@@G@1@@Z 10079d00 f i NpRigidStatic.obj
 0001:00078d80       ??0RigidStatic@Scb@physx@@QAE@ABVPxTransform@2@@Z 10079d80 f i NpRigidStatic.obj
 0001:00078e10       ??1?$NpActorTemplate@VPxRigidStatic@physx@@@physx@@UAE@XZ 10079e10 f i NpRigidStatic.obj
 0001:00078e40       ??1?$NpRigidActorTemplate@VPxRigidStatic@physx@@@physx@@UAE@XZ 10079e40 f i NpRigidStatic.obj
 0001:00078e80       ??1PxRigidStatic@physx@@MAE@XZ 10079e80 f i NpRigidStatic.obj
 0001:00078e90       ??_E?$NpActorTemplate@VPxRigidStatic@physx@@@physx@@UAEPAXI@Z 10079e90 f i NpRigidStatic.obj
 0001:00078e90       ??_G?$NpActorTemplate@VPxRigidStatic@physx@@@physx@@UAEPAXI@Z 10079e90 f i NpRigidStatic.obj
 0001:00078f00       ??_G?$NpRigidActorTemplate@VPxRigidStatic@physx@@@physx@@UAEPAXI@Z 10079f00 f i NpRigidStatic.obj
 0001:00078f00       ??_E?$NpRigidActorTemplate@VPxRigidStatic@physx@@@physx@@UAEPAXI@Z 10079f00 f i NpRigidStatic.obj
 0001:00078f80       ??_GNpRigidStatic@physx@@UAEPAXI@Z 10079f80 f i NpRigidStatic.obj
 0001:00078f80       ??_ENpRigidStatic@physx@@UAEPAXI@Z 10079f80 f i NpRigidStatic.obj
 0001:00079010       ??_GPxRigidStatic@physx@@MAEPAXI@Z 1007a010 f i NpRigidStatic.obj
 0001:00079010       ??_EPxRigidStatic@physx@@MAEPAXI@Z 1007a010 f i NpRigidStatic.obj
 0001:00079040       ?attachShape@?$NpRigidActorTemplate@VPxRigidStatic@physx@@@physx@@UAEXAAVPxShape@2@@Z 1007a040 f i NpRigidStatic.obj
 0001:00079110       ?detachShape@?$NpRigidActorTemplate@VPxRigidStatic@physx@@@physx@@UAEXAAVPxShape@2@_N@Z 1007a110 f i NpRigidStatic.obj
 0001:000791d0       ?exportExtraData@?$NpActorTemplate@VPxRigidStatic@physx@@@physx@@UAEXAAVPxSerializationContext@2@@Z 1007a1d0 f i NpRigidStatic.obj
 0001:000791e0       ?exportExtraData@?$NpRigidActorTemplate@VPxRigidStatic@physx@@@physx@@UAEXAAVPxSerializationContext@2@@Z 1007a1e0 f i NpRigidStatic.obj
 0001:00079210       ?getActorFlags@?$NpActorTemplate@VPxRigidStatic@physx@@@physx@@UBE?AV?$PxFlags@W4Enum@PxActorFlag@physx@@G@2@XZ 1007a210 f i NpRigidStatic.obj
 0001:00079290       ?getAggregate@?$NpActorTemplate@VPxRigidStatic@physx@@@physx@@UBEPAVPxAggregate@2@XZ 1007a290 f i NpRigidStatic.obj
 0001:000792a0       ?getClientBehaviorFlags@?$NpActorTemplate@VPxRigidStatic@physx@@@physx@@UBE?AV?$PxFlags@W4Enum@PxActorClientBehaviorFlag@physx@@E@2@XZ 1007a2a0 f i NpRigidStatic.obj
 0001:00079320       ?getConcreteTypeName@PxRigidStatic@physx@@UBEPBDXZ 1007a320 f i NpRigidStatic.obj
 0001:00079330       ?getConstraints@?$NpRigidActorTemplate@VPxRigidStatic@physx@@@physx@@UBEIPAPAVPxConstraint@2@II@Z 1007a330 f i NpRigidStatic.obj
 0001:00079390       ?getDominanceGroup@?$NpActorTemplate@VPxRigidStatic@physx@@@physx@@UBEEXZ 1007a390 f i NpRigidStatic.obj
 0001:00079420       ?getName@?$NpActorTemplate@VPxRigidStatic@physx@@@physx@@UBEPBDXZ 1007a420 f i NpRigidStatic.obj
 0001:00079460       ?getNbConstraints@?$NpRigidActorTemplate@VPxRigidStatic@physx@@@physx@@UBEIXZ 1007a460 f i NpRigidStatic.obj
 0001:000794b0       ?getNbShapes@?$NpRigidActorTemplate@VPxRigidStatic@physx@@@physx@@UBEIXZ 1007a4b0 f i NpRigidStatic.obj
 0001:000794f0       ?getOwnerClient@?$NpActorTemplate@VPxRigidStatic@physx@@@physx@@UBEEXZ 1007a4f0 f i NpRigidStatic.obj
 0001:00079520       ?getScene@?$NpActorTemplate@VPxRigidStatic@physx@@@physx@@UBEPAVPxScene@2@XZ 1007a520 f i NpRigidStatic.obj
 0001:00079530       ?getShapes@?$NpRigidActorTemplate@VPxRigidStatic@physx@@@physx@@UBEIPAPAVPxShape@2@II@Z 1007a530 f i NpRigidStatic.obj
 0001:00079590       ?getType@NpRigidStatic@physx@@UBE?AW4Enum@PxActorType@2@XZ 1007a590 f i NpRigidStatic.obj
 0001:000795a0       ?getWorldBounds@?$NpRigidActorTemplate@VPxRigidStatic@physx@@@physx@@UBE?AVPxBounds3@2@M@Z 1007a5a0 f i NpRigidStatic.obj
 0001:00079700       ?importExtraData@?$NpRigidActorTemplate@VPxRigidStatic@physx@@@physx@@QAEXAAVPxDeserializationContext@2@@Z 1007a700 f i NpRigidStatic.obj
 0001:00079730       ?isKindOf@PxRigidStatic@physx@@MBE_NPBD@Z 1007a730 f i NpRigidStatic.obj
 0001:000797e0       ?release@?$NpActorTemplate@VPxRigidStatic@physx@@@physx@@UAEXXZ 1007a7e0 f i NpRigidStatic.obj
 0001:000797f0       ?release@?$NpRigidActorTemplate@VPxRigidStatic@physx@@@physx@@UAEXXZ 1007a7f0 f i NpRigidStatic.obj
 0001:00079830       ?requires@?$NpRigidActorTemplate@VPxRigidStatic@physx@@@physx@@UAEXAAVPxProcessPxBaseCallback@2@@Z 1007a830 f i NpRigidStatic.obj
 0001:00079890       ?resolveReferences@?$NpActorTemplate@VPxRigidStatic@physx@@@physx@@UAEXAAVPxDeserializationContext@2@@Z 1007a890 f i NpRigidStatic.obj
 0001:000798a0       ?resolveReferences@?$NpRigidActorTemplate@VPxRigidStatic@physx@@@physx@@UAEXAAVPxDeserializationContext@2@@Z 1007a8a0 f i NpRigidStatic.obj
 0001:00079930       ?setActor2World@RigidStatic@Scb@physx@@QAEXABVPxTransform@3@@Z 1007a930 f i NpRigidStatic.obj
 0001:00079a20       ?setActorFlag@?$NpActorTemplate@VPxRigidStatic@physx@@@physx@@UAEXW4Enum@PxActorFlag@2@_N@Z 1007aa20 f i NpRigidStatic.obj
 0001:00079af0       ?setActorFlag@?$NpRigidActorTemplate@VPxRigidStatic@physx@@@physx@@UAEXW4Enum@PxActorFlag@2@_N@Z 1007aaf0 f i NpRigidStatic.obj
 0001:00079d70       ?setActorFlags@?$NpActorTemplate@VPxRigidStatic@physx@@@physx@@UAEXV?$PxFlags@W4Enum@PxActorFlag@physx@@G@2@@Z 1007ad70 f i NpRigidStatic.obj
 0001:00079dd0       ?setActorFlags@?$NpRigidActorTemplate@VPxRigidStatic@physx@@@physx@@UAEXV?$PxFlags@W4Enum@PxActorFlag@physx@@G@2@@Z 1007add0 f i NpRigidStatic.obj
 0001:00079fd0       ?setClientBehaviorFlags@?$NpActorTemplate@VPxRigidStatic@physx@@@physx@@UAEXV?$PxFlags@W4Enum@PxActorClientBehaviorFlag@physx@@E@2@@Z 1007afd0 f i NpRigidStatic.obj
 0001:0007a030       ?setClientBehaviorFlags@?$NpRigidActorTemplate@VPxRigidStatic@physx@@@physx@@UAEXV?$PxFlags@W4Enum@PxActorClientBehaviorFlag@physx@@E@2@@Z 1007b030 f i NpRigidStatic.obj
 0001:0007a0c0       ?setDominanceGroup@?$NpActorTemplate@VPxRigidStatic@physx@@@physx@@UAEXE@Z 1007b0c0 f i NpRigidStatic.obj
 0001:0007a120       ?setName@?$NpActorTemplate@VPxRigidStatic@physx@@@physx@@UAEXPBD@Z 1007b120 f i NpRigidStatic.obj
 0001:0007a1d0       ?setOwnerClient@?$NpActorTemplate@VPxRigidStatic@physx@@@physx@@UAEXE@Z 1007b1d0 f i NpRigidStatic.obj
 0001:0007a240       ?switchFromNoSim@?$NpRigidActorTemplate@VPxRigidStatic@physx@@@physx@@UAEXXZ 1007b240 f i NpRigidStatic.obj
 0001:0007a250       ?switchToNoSim@?$NpRigidActorTemplate@VPxRigidStatic@physx@@@physx@@UAEXXZ 1007b250 f i NpRigidStatic.obj
 0001:0007a260       ?updateShaderComs@?$NpRigidActorTemplate@VPxRigidStatic@physx@@@physx@@QAEXXZ 1007b260 f i NpRigidStatic.obj
 0001:0007a2d0       ?visualize@?$NpRigidActorTemplate@VPxRigidStatic@physx@@@physx@@QAEXAAVRenderOutput@Cm@2@PAVNpScene@2@@Z 1007b2d0 f i NpRigidStatic.obj
 0001:0007a2f0       ??0NpSceneQueries@physx@@QAE@ABVPxSceneDesc@1@@Z 1007b2f0 f   NpScene.obj
 0001:0007a370       ??1NpSceneQueries@physx@@UAE@XZ 1007b370 f   NpScene.obj
 0001:0007a3b0       ?release@NpScene@physx@@UAEXXZ 1007b3b0 f   NpScene.obj
 0001:0007a450       ?setFlag@NpScene@physx@@UAEXW4Enum@PxSceneFlag@2@_N@Z 1007b450 f   NpScene.obj
 0001:0007a4f0       ?getFlags@NpScene@physx@@UBE?AV?$PxFlags@W4Enum@PxSceneFlag@physx@@G@2@XZ 1007b4f0 f   NpScene.obj
 0001:0007a550       ?setGravity@NpScene@physx@@UAEXABVPxVec3@2@@Z 1007b550 f   NpScene.obj
 0001:0007a590       ?getGravity@NpScene@physx@@UBE?AVPxVec3@2@XZ 1007b590 f   NpScene.obj
 0001:0007a610       ?setBounceThresholdVelocity@NpScene@physx@@UAEXM@Z 1007b610 f   NpScene.obj
 0001:0007a690       ?getBounceThresholdVelocity@NpScene@physx@@UBEMXZ 1007b690 f   NpScene.obj
 0001:0007a6f0       ?getContactCorrelationDistance@NpScene@physx@@UBEMXZ 1007b6f0 f   NpScene.obj
 0001:0007a700       ?getFrictionOffsetThreshold@NpScene@physx@@UBEMXZ 1007b700 f   NpScene.obj
 0001:0007a710       ?setLimits@NpScene@physx@@UAEXABVPxSceneLimits@2@@Z 1007b710 f   NpScene.obj
 0001:0007a790       ?getLimits@NpScene@physx@@UBE?AVPxSceneLimits@2@XZ 1007b790 f   NpScene.obj
 0001:0007a7e0       ?addActor@NpScene@physx@@UAEXAAVPxActor@2@@Z 1007b7e0 f   NpScene.obj
 0001:0007a930       ?removeActor@NpScene@physx@@UAEXAAVPxActor@2@_N@Z 1007b930 f   NpScene.obj
 0001:0007aa30       ?getNbConstraints@NpScene@physx@@UBEIXZ 1007ba30 f   NpScene.obj
 0001:0007aa60       ?getConstraints@NpScene@physx@@UBEIPAPAVPxConstraint@2@II@Z 1007ba60 f   NpScene.obj
 0001:0007aad0       ?addArticulation@NpScene@physx@@UAEXAAVPxArticulation@2@@Z 1007bad0 f   NpScene.obj
 0001:0007ac10       ?removeArticulation@NpScene@physx@@UAEXAAVPxArticulation@2@_N@Z 1007bc10 f   NpScene.obj
 0001:0007ad10       ?getNbArticulations@NpScene@physx@@UBEIXZ 1007bd10 f   NpScene.obj
 0001:0007ad40       ?getArticulations@NpScene@physx@@UBEIPAPAVPxArticulation@2@II@Z 1007bd40 f   NpScene.obj
 0001:0007adb0       ?addAggregate@NpScene@physx@@UAEXAAVPxAggregate@2@@Z 1007bdb0 f   NpScene.obj
 0001:0007af70       ?removeAggregate@NpScene@physx@@UAEXAAVPxAggregate@2@_N@Z 1007bf70 f   NpScene.obj
 0001:0007b190       ?getNbAggregates@NpScene@physx@@UBEIXZ 1007c190 f   NpScene.obj
 0001:0007b1c0       ?getAggregates@NpScene@physx@@UBEIPAPAVPxAggregate@2@II@Z 1007c1c0 f   NpScene.obj
 0001:0007b230       ?addCollection@NpScene@physx@@UAEXABVPxCollection@2@@Z 1007c230 f   NpScene.obj
 0001:0007b430       ?setDominanceGroupPair@NpScene@physx@@UAEXEEABUPxDominanceGroupPair@2@@Z 1007c430 f   NpScene.obj
 0001:0007b550       ?getDominanceGroupPair@NpScene@physx@@UBE?AUPxDominanceGroupPair@2@EE@Z 1007c550 f   NpScene.obj
 0001:0007b5e0       ?getNbActors@NpScene@physx@@UBEIV?$PxFlags@W4Enum@PxActorTypeFlag@physx@@G@2@@Z 1007c5e0 f   NpScene.obj
 0001:0007b720       ?getActors@NpScene@physx@@UBEIV?$PxFlags@W4Enum@PxActorTypeFlag@physx@@G@2@PAPAVPxActor@2@II@Z 1007c720 f   NpScene.obj
 0001:0007b880       ?getActiveTransforms@NpScene@physx@@UAEPBUPxActiveTransform@2@AAIE@Z 1007c880 f   NpScene.obj
 0001:0007b900       ?getSimulationStatistics@NpScene@physx@@UBEXAAVPxSimulationStatistics@2@@Z 1007c900 f   NpScene.obj
 0001:0007b970       ?createClient@NpScene@physx@@UAEEXZ 1007c970 f   NpScene.obj
 0001:0007b9f0       ?setClientBehaviorFlags@NpScene@physx@@UAEXEV?$PxFlags@W4Enum@PxClientBehaviorFlag@physx@@E@2@@Z 1007c9f0 f   NpScene.obj
 0001:0007bab0       ?getClientBehaviorFlags@NpScene@physx@@UBE?AV?$PxFlags@W4Enum@PxClientBehaviorFlag@physx@@E@2@E@Z 1007cab0 f   NpScene.obj
 0001:0007bb60       ?setFrictionType@NpScene@physx@@UAEXW4Enum@PxFrictionType@2@@Z 1007cb60 f   NpScene.obj
 0001:0007bbd0       ?getFrictionType@NpScene@physx@@UBE?AW4Enum@PxFrictionType@2@XZ 1007cbd0 f   NpScene.obj
 0001:0007bc00       ?setClothInterCollisionDistance@NpScene@physx@@UAEXM@Z 1007cc00 f   NpScene.obj
 0001:0007bc90       ?getClothInterCollisionDistance@NpScene@physx@@UBEMXZ 1007cc90 f   NpScene.obj
 0001:0007bcd0       ?setClothInterCollisionStiffness@NpScene@physx@@UAEXM@Z 1007ccd0 f   NpScene.obj
 0001:0007bd60       ?getClothInterCollisionStiffness@NpScene@physx@@UBEMXZ 1007cd60 f   NpScene.obj
 0001:0007bda0       ?setClothInterCollisionNbIterations@NpScene@physx@@UAEXI@Z 1007cda0 f   NpScene.obj
 0001:0007be10       ?getClothInterCollisionNbIterations@NpScene@physx@@UBEIXZ 1007ce10 f   NpScene.obj
 0001:0007be40       ?setSimulationEventCallback@NpScene@physx@@UAEXPAVPxSimulationEventCallback@2@E@Z 1007ce40 f   NpScene.obj
 0001:0007beb0       ?getSimulationEventCallback@NpScene@physx@@UBEPAVPxSimulationEventCallback@2@E@Z 1007ceb0 f   NpScene.obj
 0001:0007bef0       ?setContactModifyCallback@NpScene@physx@@UAEXPAVPxContactModifyCallback@2@@Z 1007cef0 f   NpScene.obj
 0001:0007bf60       ?getContactModifyCallback@NpScene@physx@@UBEPAVPxContactModifyCallback@2@XZ 1007cf60 f   NpScene.obj
 0001:0007bf90       ?setCCDContactModifyCallback@NpScene@physx@@UAEXPAVPxCCDContactModifyCallback@2@@Z 1007cf90 f   NpScene.obj
 0001:0007c000       ?getCCDContactModifyCallback@NpScene@physx@@UBEPAVPxCCDContactModifyCallback@2@XZ 1007d000 f   NpScene.obj
 0001:0007c030       ?setBroadPhaseCallback@NpScene@physx@@UAEXPAVPxBroadPhaseCallback@2@E@Z 1007d030 f   NpScene.obj
 0001:0007c0a0       ?getBroadPhaseCallback@NpScene@physx@@UBEPAVPxBroadPhaseCallback@2@E@Z 1007d0a0 f   NpScene.obj
 0001:0007c0e0       ?setCCDMaxPasses@NpScene@physx@@UAEXI@Z 1007d0e0 f   NpScene.obj
 0001:0007c150       ?getCCDMaxPasses@NpScene@physx@@UBEIXZ 1007d150 f   NpScene.obj
 0001:0007c180       ?getFilterShaderData@NpScene@physx@@UBEPBXXZ 1007d180 f   NpScene.obj
 0001:0007c1b0       ?getFilterShaderDataSize@NpScene@physx@@UBEIXZ 1007d1b0 f   NpScene.obj
 0001:0007c1e0       ?getFilterShader@NpScene@physx@@UBEP6A?AV?$PxFlags@W4Enum@PxFilterFlag@physx@@G@2@IUPxFilterData@2@I0AAV?$PxFlags@W4Enum@PxPairFlag@physx@@G@2@PBXI@ZXZ 1007d1e0 f   NpScene.obj
 0001:0007c210       ?getFilterCallback@NpScene@physx@@UBEPAVPxSimulationFilterCallback@2@XZ 1007d210 f   NpScene.obj
 0001:0007c240       ?resetFiltering@NpScene@physx@@UAEXAAVPxActor@2@@Z 1007d240 f   NpScene.obj
 0001:0007c3e0       ?resetFiltering@NpScene@physx@@UAEXAAVPxRigidActor@2@PBQAVPxShape@2@I@Z 1007d3e0 f   NpScene.obj
 0001:0007c530       ?getPhysics@NpScene@physx@@UAEAAVPxPhysics@2@XZ 1007d530 f   NpScene.obj
 0001:0007c540       ?simulate@NpScene@physx@@UAEXMPAVPxBaseTask@2@PAXI_N@Z 1007d540 f   NpScene.obj
 0001:0007ca10       ?solve@NpScene@physx@@UAEXMPAVPxBaseTask@2@PAXI_N@Z 1007da10 f   NpScene.obj
 0001:0007ca40       ?collide@NpScene@physx@@UAEXMPAVPxBaseTask@2@PAXI@Z 1007da40 f   NpScene.obj
 0001:0007ca70       ?checkResults@NpScene@physx@@UAE_N_N@Z 1007da70 f   NpScene.obj
 0001:0007ca80       ?checkCollision@NpScene@physx@@UAE_N_N@Z 1007da80 f   NpScene.obj
 0001:0007ca90       ?fetchResults@NpScene@physx@@UAE_N_NPAI@Z 1007da90 f   NpScene.obj
 0001:0007d310       ?flushSimulation@NpScene@physx@@UAEX_N@Z 1007e310 f   NpScene.obj
 0001:0007d440       ?flushQueryUpdates@NpScene@physx@@UAEXXZ 1007e440 f   NpScene.obj
 0001:0007d570       ?getRenderBuffer@NpScene@physx@@UAEABVPxRenderBuffer@2@XZ 1007e570 f   NpScene.obj
 0001:0007d5b0       ?createBatchQuery@NpScene@physx@@UAEPAVPxBatchQuery@2@ABVPxBatchQueryDesc@2@@Z 1007e5b0 f   NpScene.obj
 0001:0007d750       ?releaseBatchQuery@NpScene@physx@@QAEXPAVPxBatchQuery@2@@Z 1007e750 f   NpScene.obj
 0001:0007d840       ?createVolumeCache@NpScene@physx@@UAEPAVPxVolumeCache@2@II@Z 1007e840 f   NpScene.obj
 0001:0007d8e0       ?releaseVolumeCache@NpScene@physx@@QAEXPAVNpVolumeCache@2@@Z 1007e8e0 f   NpScene.obj
 0001:0007d910       ?setDynamicTreeRebuildRateHint@NpScene@physx@@UAEXI@Z 1007e910 f   NpScene.obj
 0001:0007d950       ?getDynamicTreeRebuildRateHint@NpScene@physx@@UBEIXZ 1007e950 f   NpScene.obj
 0001:0007d980       ?forceDynamicTreeRebuild@NpScene@physx@@UAEX_N0@Z 1007e980 f   NpScene.obj
 0001:0007da80       ?setSolverBatchSize@NpScene@physx@@UAEXI@Z 1007ea80 f   NpScene.obj
 0001:0007db00       ?getSolverBatchSize@NpScene@physx@@UBEIXZ 1007eb00 f   NpScene.obj
 0001:0007db50       ?setVisualizationParameter@NpScene@physx@@UAE_NW4Enum@PxVisualizationParameter@2@M@Z 1007eb50 f   NpScene.obj
 0001:0007dc70       ?getVisualizationParameter@NpScene@physx@@UBEMW4Enum@PxVisualizationParameter@2@@Z 1007ec70 f   NpScene.obj
 0001:0007dce0       ?setVisualizationCullingBox@NpScene@physx@@UAEXABVPxBounds3@2@@Z 1007ece0 f   NpScene.obj
 0001:0007dee0       ?getVisualizationCullingBox@NpScene@physx@@UBEABVPxBounds3@2@XZ 1007eee0 f   NpScene.obj
 0001:0007df40       ?setNbContactDataBlocks@NpScene@physx@@UAEXI@Z 1007ef40 f   NpScene.obj
 0001:0007df80       ?getNbContactDataBlocksUsed@NpScene@physx@@UBEIXZ 1007ef80 f   NpScene.obj
 0001:0007dfc0       ?getMaxNbContactDataBlocksUsed@NpScene@physx@@UBEIXZ 1007efc0 f   NpScene.obj
 0001:0007e000       ?getContactReportStreamBufferSize@NpScene@physx@@UBEIXZ 1007f000 f   NpScene.obj
 0001:0007e010       ?getTimestamp@NpScene@physx@@UBEIXZ 1007f010 f   NpScene.obj
 0001:0007e020       ?getSceneQueryStaticTimestamp@NpScene@physx@@UBEIXZ 1007f020 f   NpScene.obj
 0001:0007e030       ?getCpuDispatcher@NpScene@physx@@UBEPAVPxCpuDispatcher@2@XZ 1007f030 f   NpScene.obj
 0001:0007e040       ?getGpuDispatcher@NpScene@physx@@UBEPAVPxGpuDispatcher@2@XZ 1007f040 f   NpScene.obj
 0001:0007e050       ?getSpuDispatcher@NpScene@physx@@UBEPAVPxSpuDispatcher@2@XZ 1007f050 f   NpScene.obj
 0001:0007e060       ?getStaticStructure@NpScene@physx@@UBE?AW4Enum@PxPruningStructure@2@XZ 1007f060 f   NpScene.obj
 0001:0007e070       ?getDynamicStructure@NpScene@physx@@UBE?AW4Enum@PxPruningStructure@2@XZ 1007f070 f   NpScene.obj
 0001:0007e080       ?getMeshContactMargin@NpScene@physx@@UBEMXZ 1007f080 f   NpScene.obj
 0001:0007e090       ?getBroadPhaseType@NpScene@physx@@UBE?AW4Enum@PxBroadPhaseType@2@XZ 1007f090 f   NpScene.obj
 0001:0007e0c0       ?getBroadPhaseCaps@NpScene@physx@@UBE_NAAUPxBroadPhaseCaps@2@@Z 1007f0c0 f   NpScene.obj
 0001:0007e100       ?getNbBroadPhaseRegions@NpScene@physx@@UBEIXZ 1007f100 f   NpScene.obj
 0001:0007e130       ?getBroadPhaseRegions@NpScene@physx@@UBEIPAUPxBroadPhaseRegionInfo@2@II@Z 1007f130 f   NpScene.obj
 0001:0007e170       ?addBroadPhaseRegion@NpScene@physx@@UAEIABUPxBroadPhaseRegion@2@_N@Z 1007f170 f   NpScene.obj
 0001:0007e360       ?removeBroadPhaseRegion@NpScene@physx@@UAE_NI@Z 1007f360 f   NpScene.obj
 0001:0007e3a0       ?addActors@NpScene@physx@@UAEXPBQAVPxActor@2@I@Z 1007f3a0 f   NpScene.obj
 0001:0007eaa0       ?removeActors@NpScene@physx@@UAEXPBQAVPxActor@2@I_N@Z 1007faa0 f   NpScene.obj
 0001:0007eff0       ?lockRead@NpScene@physx@@UAEXPBDI@Z 1007fff0 f   NpScene.obj
 0001:0007f050       ?unlockRead@NpScene@physx@@UAEXXZ 10080050 f   NpScene.obj
 0001:0007f0e0       ?lockWrite@NpScene@physx@@UAEXPBDI@Z 100800e0 f   NpScene.obj
 0001:0007f180       ?unlockWrite@NpScene@physx@@UAEXXZ 10080180 f   NpScene.obj
 0001:0007f210       ?getWakeCounterResetValue@NpScene@physx@@UBEMXZ 10080210 f   NpScene.obj
 0001:0007f250       ?shiftOrigin@NpScene@physx@@UAEXABVPxVec3@2@@Z 10080250 f   NpScene.obj
 0001:0007f7e0       ??0NpScene@physx@@QAE@ABVPxSceneDesc@1@@Z 100807e0 f   NpScene.obj
 0001:0007fce0       ??1NpScene@physx@@UAE@XZ   10080ce0 f   NpScene.obj
 0001:00080250       ?prepareSolve@NpScene@physx@@QAEXMPAXI@Z 10081250 f   NpScene.obj
 0001:00080560       ?prepareCollide@NpScene@physx@@QAEXM@Z 10081560 f   NpScene.obj
 0001:000805e0       ?addActorInternal@NpScene@physx@@QAEXAAVPxActor@2@@Z 100815e0 f   NpScene.obj
 0001:00080700       ?removeActorInternal@NpScene@physx@@QAEXAAVPxActor@2@_N1@Z 10081700 f   NpScene.obj
 0001:000807b0       ?addArticulationInternal@NpScene@physx@@QAEXAAVPxArticulation@2@@Z 100817b0 f   NpScene.obj
 0001:00080d40       ?removeArticulationInternal@NpScene@physx@@QAEXAAVPxArticulation@2@_N1@Z 10081d40 f   NpScene.obj
 0001:00080f10       ?addMaterial@NpScene@physx@@QAE_NAAVNpMaterial@2@@Z 10081f10 f   NpScene.obj
 0001:00080f30       ?updateMaterial@NpScene@physx@@QAEXAAVNpMaterial@2@@Z 10081f30 f   NpScene.obj
 0001:00080f40       ?removeMaterial@NpScene@physx@@QAEXAAVNpMaterial@2@@Z 10081f40 f   NpScene.obj
 0001:00080f50       ?executeScene@NpScene@physx@@QAEXPAVPxBaseTask@2@@Z 10081f50 f   NpScene.obj
 0001:00080f70       ?executeCollide@NpScene@physx@@QAEXPAVPxBaseTask@2@@Z 10081f70 f   NpScene.obj
 0001:00080f90       ?executeSolve@NpScene@physx@@QAEXPAVPxBaseTask@2@@Z 10081f90 f   NpScene.obj
 0001:00080fb0       ?loadFromDesc@NpScene@physx@@QAE_NABVPxSceneDesc@2@@Z 10081fb0 f   NpScene.obj
 0001:00081010       ?removeFromRigidActorList@NpScene@physx@@QAEXABI@Z 10082010 f   NpScene.obj
 0001:00081080       ?removeFromParticleBaseList@NpScene@physx@@QAEXAAVPxParticleBase@2@@Z 10082080 f   NpScene.obj
 0001:000810d0       ?addArticulationLink@NpScene@physx@@QAEXAAVNpArticulationLink@2@@Z 100820d0 f   NpScene.obj
 0001:00081120       ?addArticulationLinkBody@NpScene@physx@@QAEXAAVNpArticulationLink@2@@Z 10082120 f   NpScene.obj
 0001:00081150       ?addArticulationLinkConstraint@NpScene@physx@@QAEXAAVNpArticulationLink@2@@Z 10082150 f   NpScene.obj
 0001:00081190       ?removeArticulationLink@NpScene@physx@@QAEXAAVNpArticulationLink@2@_N@Z 10082190 f   NpScene.obj
 0001:000811f0       ?startWrite@NpScene@physx@@QAE_N_N@Z 100821f0 f   NpScene.obj
 0001:000812d0       ?stopWrite@NpScene@physx@@QAEX_N@Z 100822d0 f   NpScene.obj
 0001:00081350       ?startRead@NpScene@physx@@QBE_NXZ 10082350 f   NpScene.obj
 0001:00081420       ?stopRead@NpScene@physx@@QBEXXZ 10082420 f   NpScene.obj
 0001:00081490       ?checkPositionSanity@NpScene@physx@@QBEXABVPxRigidActor@2@ABVPxTransform@2@PBD@Z 10082490 f   NpScene.obj
 0001:00081520       ?addCloth@NpScene@physx@@QAEXAAVNpCloth@2@@Z 10082520 f   NpScene.obj
 0001:00081610       ?removeCloth@NpScene@physx@@QAEXAAVNpCloth@2@@Z 10082610 f   NpScene.obj
 0001:00081710       ?checkResultsInternal@NpScene@physx@@AAE_N_N@Z 10082710 f   NpScene.obj
 0001:000817e0       ?checkCollisionInternal@NpScene@physx@@AAE_N_N@Z 100827e0 f   NpScene.obj
 0001:000818b0       ?addRigidStatic@NpScene@physx@@AAEXAAVNpRigidStatic@2@@Z 100828b0 f   NpScene.obj
 0001:00081950       ?removeRigidStatic@NpScene@physx@@AAEXAAVNpRigidStatic@2@_N1@Z 10082950 f   NpScene.obj
 0001:000819f0       ?addRigidDynamic@NpScene@physx@@AAEXAAVNpRigidDynamic@2@@Z 100829f0 f   NpScene.obj
 0001:00081a90       ?removeRigidDynamic@NpScene@physx@@AAEXAAVNpRigidDynamic@2@_N1@Z 10082a90 f   NpScene.obj
 0001:00081b30       ?addParticleSystem@NpScene@physx@@AAEXAAVNpParticleSystem@2@@Z 10082b30 f   NpScene.obj
 0001:00081c20       ?removeParticleSystem@NpScene@physx@@AAEXAAVNpParticleSystem@2@@Z 10082c20 f   NpScene.obj
 0001:00081d20       ?addParticleFluid@NpScene@physx@@AAEXAAVNpParticleFluid@2@@Z 10082d20 f   NpScene.obj
 0001:00081e10       ?removeParticleFluid@NpScene@physx@@AAEXAAVNpParticleFluid@2@@Z 10082e10 f   NpScene.obj
 0001:00081f10       ?visualize@NpScene@physx@@AAEXXZ 10082f10 f   NpScene.obj
 0001:000821f0       ?updateDirtyShaders@NpScene@physx@@AAEXXZ 100831f0 f   NpScene.obj
 0001:000822c0       ?fireCallBacksPreSync@NpScene@physx@@AAEXXZ 100832c0 f   NpScene.obj
 0001:00082480       ?updateScbStateAndSetupSq@NpScene@physx@@AAEXABVPxRigidActor@2@AAVActor@Scb@2@AAVNpShapeManager@2@_NPAVPxBounds3@2@@Z 10083480 f   NpScene.obj
 0001:00082560       ?NpGetPxScene@physx@@YAPAVPxScene@1@AAVScene@Scb@1@@Z 10083560 f   NpScene.obj
 0001:00084610       ??$?0VScene@Scb@physx@@@?$CmProfileZone@$00@physx@@QAE@AAVScene@Scb@1@G@Z 10085610 f i NpScene.obj
 0001:00084670       ??$allocArrayBuffer@PAVShape@Scb@physx@@@Scene@Scb@physx@@AAEPAPAVShape@12@AAV?$Array@PAVShape@Scb@physx@@VNamedAllocator@shdfnd@3@@shdfnd@2@IAAI@Z 10085670 f i NpScene.obj
 0001:000846b0       ??$append@UPxDebugLine@physx@@@RenderBuffer@Cm@physx@@AAEXAAV?$Array@UPxDebugLine@physx@@VNamedAllocator@shdfnd@2@@shdfnd@2@PBUPxDebugLine@2@I@Z 100856b0 f i NpScene.obj
 0001:00084780       ??$append@UPxDebugPoint@physx@@@RenderBuffer@Cm@physx@@AAEXAAV?$Array@UPxDebugPoint@physx@@VNamedAllocator@shdfnd@2@@shdfnd@2@PBUPxDebugPoint@2@I@Z 10085780 f i NpScene.obj
 0001:00084820       ??$append@UPxDebugText@physx@@@RenderBuffer@Cm@physx@@AAEXAAV?$Array@UPxDebugText@physx@@VNamedAllocator@shdfnd@2@@shdfnd@2@PBUPxDebugText@2@I@Z 10085820 f i NpScene.obj
 0001:000848f0       ??$append@UPxDebugTriangle@physx@@@RenderBuffer@Cm@physx@@AAEXAAV?$Array@UPxDebugTriangle@physx@@VNamedAllocator@shdfnd@2@@shdfnd@2@PBUPxDebugTriangle@2@I@Z 100858f0 f i NpScene.obj
 0001:00084a00       ??0?$InlineArray@PAVShapeSim@Sc@physx@@$0EA@VNamedAllocator@shdfnd@3@@shdfnd@physx@@QAE@ABVNamedAllocator@12@@Z 10085a00 f i NpScene.obj
 0001:00084af0       ??0?$InlineArray@VPxBounds3@physx@@$07VNamedAllocator@shdfnd@2@@shdfnd@physx@@QAE@ABVNamedAllocator@12@@Z 10085af0 f i NpScene.obj
 0001:00084be0       ??0EventProfiler@Cm@physx@@QAE@PAVPxProfileEventSender@2@_K@Z 10085be0 f i NpScene.obj
 0001:00084c80       ??0Iter@?$HashBase@PAVNpVolumeCache@physx@@PAV12@U?$Hash@PAVNpVolumeCache@physx@@@shdfnd@2@UGetKey@?$HashSetBase@PAVNpVolumeCache@physx@@U?$Hash@PAVNpVolumeCache@physx@@@shdfnd@2@VAllocator@42@$0A@@internal@42@VAllocator@42@$0A@@internal@shdfnd@physx@@QAE@AAV1234@@Z 10085c80 f i NpScene.obj
 0001:00084cf0       ??0RenderBuffer@Cm@physx@@QAE@XZ 10085cf0 f i NpScene.obj
 0001:00084e40       ??1?$Array@V?$DelegateTask@VScene@Sc@physx@@$1?ccdBroadPhase@123@AAEXPAVPxBaseTask@3@@Z@Cm@physx@@VNamedAllocator@shdfnd@3@@shdfnd@physx@@QAE@XZ 10085e40 f i NpScene.obj
 0001:00084eb0       ??1?$Array@V?$DelegateTask@VScene@Sc@physx@@$1?postCCDPass@123@AAEXPAVPxBaseTask@3@@Z@Cm@physx@@VNamedAllocator@shdfnd@3@@shdfnd@physx@@QAE@XZ 10085eb0 f i NpScene.obj
 0001:00084f20       ??1?$Array@V?$DelegateTask@VScene@Sc@physx@@$1?updateCCDSinglePass@123@AAEXPAVPxBaseTask@3@@Z@Cm@physx@@VNamedAllocator@shdfnd@3@@shdfnd@physx@@QAE@XZ 10085f20 f i NpScene.obj
 0001:00084f90       ??1?$PoolBase@U?$Block@E$0BAA@@Cm@physx@@VNamedAllocator@shdfnd@3@@shdfnd@physx@@QAE@XZ 10085f90 f i NpScene.obj
 0001:00085080       ??1?$PoolBase@U?$Block@E$0BIA@@Cm@physx@@VNamedAllocator@shdfnd@3@@shdfnd@physx@@QAE@XZ 10086080 f i NpScene.obj
 0001:00085170       ??1?$PoolBase@U?$Block@E$0IA@@Cm@physx@@VNamedAllocator@shdfnd@3@@shdfnd@physx@@QAE@XZ 10086170 f i NpScene.obj
 0001:00085260       ??1FanoutTask@Cm@physx@@UAE@XZ 10086260 f i NpScene.obj
 0001:00085320       ??1FlushPool@Cm@physx@@QAE@XZ 10086320 f i NpScene.obj
 0001:000853b0       ??1PxRenderBuffer@physx@@UAE@XZ 100863b0 f i NpScene.obj
 0001:000853c0       ??1PxScene@physx@@MAE@XZ   100863c0 f i NpScene.obj
 0001:000853d0       ??1RenderBuffer@Cm@physx@@UAE@XZ 100863d0 f i NpScene.obj
 0001:000854b0       ??1Scene@Sc@physx@@QAE@XZ  100864b0 f i NpScene.obj
 0001:000859e0       ??1Scene@Scb@physx@@QAE@XZ 100869e0 f i NpScene.obj
 0001:00085c40       ??_G?$DelegateTask@VNpScene@physx@@$H?executeCollide@12@QAEXPAVPxBaseTask@2@@ZA@@Cm@physx@@UAEPAXI@Z 10086c40 f i NpScene.obj
 0001:00085c40       ??_E?$DelegateTask@VNpScene@physx@@$H?executeCollide@12@QAEXPAVPxBaseTask@2@@ZA@@Cm@physx@@UAEPAXI@Z 10086c40 f i NpScene.obj
 0001:00085ca0       ??_E?$DelegateTask@VNpScene@physx@@$H?executeScene@12@QAEXPAVPxBaseTask@2@@ZA@@Cm@physx@@UAEPAXI@Z 10086ca0 f i NpScene.obj
 0001:00085ca0       ??_G?$DelegateTask@VNpScene@physx@@$H?executeScene@12@QAEXPAVPxBaseTask@2@@ZA@@Cm@physx@@UAEPAXI@Z 10086ca0 f i NpScene.obj
 0001:00085d00       ??_E?$DelegateTask@VNpScene@physx@@$H?executeSolve@12@QAEXPAVPxBaseTask@2@@ZA@@Cm@physx@@UAEPAXI@Z 10086d00 f i NpScene.obj
 0001:00085d00       ??_G?$DelegateTask@VNpScene@physx@@$H?executeSolve@12@QAEXPAVPxBaseTask@2@@ZA@@Cm@physx@@UAEPAXI@Z 10086d00 f i NpScene.obj
 0001:00085d60       ??_ENpScene@physx@@UAEPAXI@Z 10086d60 f i NpScene.obj
 0001:00085d60       ??_GNpScene@physx@@UAEPAXI@Z 10086d60 f i NpScene.obj
 0001:00085db0       ??_ENpSceneQueries@physx@@UAEPAXI@Z 10086db0 f i NpScene.obj
 0001:00085db0       ??_GNpSceneQueries@physx@@UAEPAXI@Z 10086db0 f i NpScene.obj
 0001:00085e20       ??_GPxLightCpuTask@physx@@UAEPAXI@Z 10086e20 f i NpScene.obj
 0001:00085e20       ??_EPxLightCpuTask@physx@@UAEPAXI@Z 10086e20 f i NpScene.obj
 0001:00085e60       ??_EPxRenderBuffer@physx@@UAEPAXI@Z 10086e60 f i NpScene.obj
 0001:00085e60       ??_GPxRenderBuffer@physx@@UAEPAXI@Z 10086e60 f i NpScene.obj
 0001:00085e90       ??_EPxScene@physx@@MAEPAXI@Z 10086e90 f i NpScene.obj
 0001:00085e90       ??_GPxScene@physx@@MAEPAXI@Z 10086e90 f i NpScene.obj
 0001:00085ec0       ??_GRenderBuffer@Cm@physx@@UAEPAXI@Z 10086ec0 f i NpScene.obj
 0001:00085ec0       ??_ERenderBuffer@Cm@physx@@UAEPAXI@Z 10086ec0 f i NpScene.obj
 0001:00085f10       ??_ESceneCompletion@NpScene@physx@@UAEPAXI@Z 10086f10 f i NpScene.obj
 0001:00085f10       ??_GSceneCompletion@NpScene@physx@@UAEPAXI@Z 10086f10 f i NpScene.obj
 0001:00085f50       ??_ETask@Cm@physx@@UAEPAXI@Z 10086f50 f i NpScene.obj
 0001:00085f50       ??_GTask@Cm@physx@@UAEPAXI@Z 10086f50 f i NpScene.obj
 0001:00085f90       ?addReference@PxLightCpuTask@physx@@UAEXXZ 10086f90 f i NpScene.obj
 0001:00085fa0       ?allocate@?$Array@VPxBounds3@physx@@V?$InlineAllocator@$0MA@VNamedAllocator@shdfnd@physx@@@shdfnd@2@@shdfnd@physx@@IAEPAVPxBounds3@3@I@Z 10086fa0 f i NpScene.obj
 0001:00086030       ?append@RenderBuffer@Cm@physx@@UAEXABVPxRenderBuffer@3@@Z 10087030 f i NpScene.obj
 0001:000860d0       ?clear@RenderBuffer@Cm@physx@@UAEXXZ 100870d0 f i NpScene.obj
 0001:00086100       ?copy@?$Array@UPxDebugLine@physx@@VNamedAllocator@shdfnd@2@@shdfnd@physx@@KAXPAUPxDebugLine@3@0PBU43@@Z 10087100 f i NpScene.obj
 0001:00086190       ?copy@?$Array@UPxDebugPoint@physx@@VNamedAllocator@shdfnd@2@@shdfnd@physx@@KAXPAUPxDebugPoint@3@0PBU43@@Z 10087190 f i NpScene.obj
 0001:00086200       ?copy@?$Array@UPxDebugText@physx@@VNamedAllocator@shdfnd@2@@shdfnd@physx@@KAXPAUPxDebugText@3@0PBU43@@Z 10087200 f i NpScene.obj
 0001:00086280       ?copy@?$Array@UPxDebugTriangle@physx@@VNamedAllocator@shdfnd@2@@shdfnd@physx@@KAXPAUPxDebugTriangle@3@0PBU43@@Z 10087280 f i NpScene.obj
 0001:00086320       ?copy@?$Array@VPxBounds3@physx@@V?$InlineAllocator@$0MA@VNamedAllocator@shdfnd@physx@@@shdfnd@2@@shdfnd@physx@@KAXPAVPxBounds3@3@0PBV43@@Z 10087320 f i NpScene.obj
 0001:000863a0       ?create@?$HashBase@PAVNpVolumeCache@physx@@PAV12@U?$Hash@PAVNpVolumeCache@physx@@@shdfnd@2@UGetKey@?$HashSetBase@PAVNpVolumeCache@physx@@U?$Hash@PAVNpVolumeCache@physx@@@shdfnd@2@VAllocator@42@$0A@@internal@42@VAllocator@42@$0A@@internal@shdfnd@physx@@QAEPAPAVNpVolumeCache@4@ABQAV54@AA_N@Z 100873a0 f i NpScene.obj
 0001:00086520       ?createClient@Scene@Scb@physx@@QAEEXZ 10087520 f i NpScene.obj
 0001:000865a0       ?disposeElements@?$PoolBase@U?$Block@E$0BAA@@Cm@physx@@VNamedAllocator@shdfnd@3@@shdfnd@physx@@IAEXXZ 100875a0 f i NpScene.obj
 0001:00086740       ?disposeElements@?$PoolBase@U?$Block@E$0BIA@@Cm@physx@@VNamedAllocator@shdfnd@3@@shdfnd@physx@@IAEXXZ 10087740 f i NpScene.obj
 0001:000868e0       ?disposeElements@?$PoolBase@U?$Block@E$0IA@@Cm@physx@@VNamedAllocator@shdfnd@3@@shdfnd@physx@@IAEXXZ 100878e0 f i NpScene.obj
 0001:00086a80       ?erase@?$HashBase@PAVNpVolumeCache@physx@@PAV12@U?$Hash@PAVNpVolumeCache@physx@@@shdfnd@2@UGetKey@?$HashSetBase@PAVNpVolumeCache@physx@@U?$Hash@PAVNpVolumeCache@physx@@@shdfnd@2@VAllocator@42@$0A@@internal@42@VAllocator@42@$0A@@internal@shdfnd@physx@@QAE_NABQAVNpVolumeCache@4@@Z 10087a80 f i NpScene.obj
 0001:00086b50       ?find@?$HashBase@V?$Pair@$$CBUEventIdContextPair@nvtx@@_K@shdfnd@physx@@UEventIdContextPair@nvtx@@U?$Hash@UEventIdContextPair@nvtx@@@5@UGetKey@?$HashMapBase@UEventIdContextPair@nvtx@@_KU?$Hash@UEventIdContextPair@nvtx@@@2@VAllocator@shdfnd@physx@@@internal@23@VAllocator@23@$00@internal@shdfnd@physx@@QBEPBV?$Pair@$$CBUEventIdContextPair@nvtx@@_K@34@ABUEventIdContextPair@nvtx@@@Z 10087b50 f i NpScene.obj
 0001:00086c10       ?flush@NpScene@physx@@UAEX_N@Z 10087c10 f i NpScene.obj
 0001:00086c20       ?flush@Scene@Scb@physx@@QAEX_N@Z 10087c20 f i NpScene.obj
 0001:00086ce0       ?freeListAdd@?$HashBase@PAVNpVolumeCache@physx@@PAV12@U?$Hash@PAVNpVolumeCache@physx@@@shdfnd@2@UGetKey@?$HashSetBase@PAVNpVolumeCache@physx@@U?$Hash@PAVNpVolumeCache@physx@@@shdfnd@2@VAllocator@42@$0A@@internal@42@VAllocator@42@$0A@@internal@shdfnd@physx@@AAEXII@Z 10087ce0 f i NpScene.obj
 0001:00086de0       ?getDominanceGroupPair@Scene@Scb@physx@@QBE?AUPxDominanceGroupPair@3@EE@Z 10087de0 f i NpScene.obj
 0001:00086e70       ?getDominancePair@SceneBuffer@Scb@physx@@QBE_NIIAAUPxDominanceGroupPair@3@@Z 10087e70 f i NpScene.obj
 0001:00086f50       ?getLines@RenderBuffer@Cm@physx@@UBEPBUPxDebugLine@3@XZ 10087f50 f i NpScene.obj
 0001:00086f60       ?getName@?$DelegateTask@VNpScene@physx@@$H?executeCollide@12@QAEXPAVPxBaseTask@2@@ZA@@Cm@physx@@UBEPBDXZ 10087f60 f i NpScene.obj
 0001:00086f70       ?getName@?$DelegateTask@VNpScene@physx@@$H?executeScene@12@QAEXPAVPxBaseTask@2@@ZA@@Cm@physx@@UBEPBDXZ 10087f70 f i NpScene.obj
 0001:00086f80       ?getName@?$DelegateTask@VNpScene@physx@@$H?executeSolve@12@QAEXPAVPxBaseTask@2@@ZA@@Cm@physx@@UBEPBDXZ 10087f80 f i NpScene.obj
 0001:00086f90       ?getName@SceneCompletion@NpScene@physx@@UBEPBDXZ 10087f90 f i NpScene.obj
 0001:00086fa0       ?getNbLines@RenderBuffer@Cm@physx@@UBEIXZ 10087fa0 f i NpScene.obj
 0001:00086fb0       ?getNbPoints@RenderBuffer@Cm@physx@@UBEIXZ 10087fb0 f i NpScene.obj
 0001:00086fc0       ?getNbTexts@RenderBuffer@Cm@physx@@UBEIXZ 10087fc0 f i NpScene.obj
 0001:00086fd0       ?getNbTriangles@RenderBuffer@Cm@physx@@UBEIXZ 10087fd0 f i NpScene.obj
 0001:00086fe0       ?getPoints@RenderBuffer@Cm@physx@@UBEPBUPxDebugPoint@3@XZ 10087fe0 f i NpScene.obj
 0001:00086ff0       ?getReference@PxLightCpuTask@physx@@UBEHXZ 10087ff0 f i NpScene.obj
 0001:00087000       ?getTaskManager@NpScene@physx@@UAEPAVPxTaskManager@2@XZ 10088000 f i NpScene.obj
 0001:00087010       ?getTaskManager@NpScene@physx@@UBEPAVPxTaskManager@2@XZ 10088010 f i NpScene.obj
 0001:00087020       ?getTexts@RenderBuffer@Cm@physx@@UBEPBUPxDebugText@3@XZ 10088020 f i NpScene.obj
 0001:00087030       ?getTriangles@RenderBuffer@Cm@physx@@UBEPBUPxDebugTriangle@3@XZ 10088030 f i NpScene.obj
 0001:00087040       ?growAndPushBack@?$Array@PAVNpBatchQuery@physx@@VNamedAllocator@shdfnd@2@@shdfnd@physx@@IAEAAPAVNpBatchQuery@3@ABQAV43@@Z 10088040 f i NpScene.obj
 0001:00087130       ?growAndPushBack@?$Array@PAVNpVolumeCache@physx@@VNamedAllocator@shdfnd@2@@shdfnd@physx@@IAEAAPAVNpVolumeCache@3@ABQAV43@@Z 10088130 f i NpScene.obj
 0001:00087220       ?growAndPushBack@?$Array@PAVPxAggregate@physx@@VNamedAllocator@shdfnd@2@@shdfnd@physx@@IAEAAPAVPxAggregate@3@ABQAV43@@Z 10088220 f i NpScene.obj
 0001:00087310       ?growAndPushBack@?$Array@PAVPxArticulation@physx@@VNamedAllocator@shdfnd@2@@shdfnd@physx@@IAEAAPAVPxArticulation@3@ABQAV43@@Z 10088310 f i NpScene.obj
 0001:00087400       ?growAndPushBack@?$Array@PAVPxCloth@physx@@VNamedAllocator@shdfnd@2@@shdfnd@physx@@IAEAAPAVPxCloth@3@ABQAV43@@Z 10088400 f i NpScene.obj
 0001:000874f0       ?growAndPushBack@?$Array@PAVPxParticleBase@physx@@VNamedAllocator@shdfnd@2@@shdfnd@physx@@IAEAAPAVPxParticleBase@3@ABQAV43@@Z 100884f0 f i NpScene.obj
 0001:000875e0       ?growAndPushBack@?$Array@PAVPxRigidActor@physx@@VNamedAllocator@shdfnd@2@@shdfnd@physx@@IAEAAPAVPxRigidActor@3@ABQAV43@@Z 100885e0 f i NpScene.obj
 0001:000876d0       ?growAndPushBack@?$Array@UPxDebugLine@physx@@VNamedAllocator@shdfnd@2@@shdfnd@physx@@IAEAAUPxDebugLine@3@ABU43@@Z 100886d0 f i NpScene.obj
 0001:000877f0       ?growAndPushBack@?$Array@UPxDebugPoint@physx@@VNamedAllocator@shdfnd@2@@shdfnd@physx@@IAEAAUPxDebugPoint@3@ABU43@@Z 100887f0 f i NpScene.obj
 0001:000878f0       ?growAndPushBack@?$Array@UPxDebugText@physx@@VNamedAllocator@shdfnd@2@@shdfnd@physx@@IAEAAUPxDebugText@3@ABU43@@Z 100888f0 f i NpScene.obj
 0001:00087a10       ?growAndPushBack@?$Array@UPxDebugTriangle@physx@@VNamedAllocator@shdfnd@2@@shdfnd@physx@@IAEAAUPxDebugTriangle@3@ABU43@@Z 10088a10 f i NpScene.obj
 0001:00087b60       ?hash@shdfnd@physx@@YAI_K@Z 10088b60 f i NpScene.obj
 0001:00087c10       ?isAddedShape@RigidObject@Scb@physx@@QAE_NAAVShape@23@@Z 10088c10 f i NpScene.obj
 0001:00087ca0       ?recreate@?$Array@GVNamedAllocator@shdfnd@physx@@@shdfnd@physx@@IAEXI@Z 10088ca0 f i NpScene.obj
 0001:00087d50       ?recreate@?$Array@PAVNpVolumeCache@physx@@VNamedAllocator@shdfnd@2@@shdfnd@physx@@IAEXI@Z 10088d50 f i NpScene.obj
 0001:00087e10       ?recreate@?$Array@PAVPxRigidActor@physx@@VNamedAllocator@shdfnd@2@@shdfnd@physx@@IAEXI@Z 10088e10 f i NpScene.obj
 0001:00087ed0       ?recreate@?$Array@PAVShape@Scb@physx@@VNamedAllocator@shdfnd@3@@shdfnd@physx@@IAEXI@Z 10088ed0 f i NpScene.obj
 0001:00087f90       ?recreate@?$Array@PAXVNamedAllocator@shdfnd@physx@@@shdfnd@physx@@IAEXI@Z 10088f90 f i NpScene.obj
 0001:00088050       ?recreate@?$Array@UPxDebugLine@physx@@VNamedAllocator@shdfnd@2@@shdfnd@physx@@IAEXI@Z 10089050 f i NpScene.obj
 0001:00088100       ?recreate@?$Array@UPxDebugPoint@physx@@VNamedAllocator@shdfnd@2@@shdfnd@physx@@IAEXI@Z 10089100 f i NpScene.obj
 0001:000881b0       ?recreate@?$Array@UPxDebugText@physx@@VNamedAllocator@shdfnd@2@@shdfnd@physx@@IAEXI@Z 100891b0 f i NpScene.obj
 0001:00088260       ?recreate@?$Array@UPxDebugTriangle@physx@@VNamedAllocator@shdfnd@2@@shdfnd@physx@@IAEXI@Z 10089260 f i NpScene.obj
 0001:00088310       ?recreate@?$Array@VPxBounds3@physx@@V?$InlineAllocator@$0MA@VNamedAllocator@shdfnd@physx@@@shdfnd@2@@shdfnd@physx@@IAEXI@Z 10089310 f i NpScene.obj
 0001:000883b0       ?release@PxLightCpuTask@physx@@UAEXXZ 100893b0 f i NpScene.obj
 0001:000883c0       ?release@SceneCompletion@NpScene@physx@@UAEXXZ 100893c0 f i NpScene.obj
 0001:000883f0       ?removeReference@PxLightCpuTask@physx@@UAEXXZ 100893f0 f i NpScene.obj
 0001:00088400       ?reserveInternal@?$HashBase@PAVNpVolumeCache@physx@@PAV12@U?$Hash@PAVNpVolumeCache@physx@@@shdfnd@2@UGetKey@?$HashSetBase@PAVNpVolumeCache@physx@@U?$Hash@PAVNpVolumeCache@physx@@@shdfnd@2@VAllocator@42@$0A@@internal@42@VAllocator@42@$0A@@internal@shdfnd@physx@@AAEXI@Z 10089400 f i NpScene.obj
 0001:000886d0       ?reserveInternal@?$HashBase@V?$Pair@$$CBUEventIdContextPair@nvtx@@_K@shdfnd@physx@@UEventIdContextPair@nvtx@@U?$Hash@UEventIdContextPair@nvtx@@@5@UGetKey@?$HashMapBase@UEventIdContextPair@nvtx@@_KU?$Hash@UEventIdContextPair@nvtx@@@2@VAllocator@shdfnd@physx@@@internal@23@VAllocator@23@$00@internal@shdfnd@physx@@AAEXI@Z 100896d0 f i NpScene.obj
 0001:00088940       ?resetFiltering@?$NpRigidActorTemplate@VPxArticulationLink@physx@@@physx@@QAE_NAAVRigidObject@Scb@2@PBQAVPxShape@2@I@Z 10089940 f i NpScene.obj
 0001:00088c90       ?resetFiltering@?$NpRigidActorTemplate@VPxRigidDynamic@physx@@@physx@@QAE_NAAVRigidObject@Scb@2@PBQAVPxShape@2@I@Z 10089c90 f i NpScene.obj
 0001:00088fe0       ?resetFiltering@?$NpRigidActorTemplate@VPxRigidStatic@physx@@@physx@@QAE_NAAVRigidObject@Scb@2@PBQAVPxShape@2@I@Z 10089fe0 f i NpScene.obj
 0001:00089330       ?resetFiltering@ParticleSystem@Scb@physx@@QAEXXZ 1008a330 f i NpScene.obj
 0001:000893c0       ?resetFiltering@RigidObject@Scb@physx@@QAEXPBQAVShape@23@I@Z 1008a3c0 f i NpScene.obj
 0001:00089650       ?resize@?$Array@GVNamedAllocator@shdfnd@physx@@@shdfnd@physx@@QAEXIABG@Z 1008a650 f i NpScene.obj
 0001:000896b0       ?resize@?$Array@PAVShape@Scb@physx@@VNamedAllocator@shdfnd@3@@shdfnd@physx@@QAEXIABQAVShape@Scb@3@@Z 1008a6b0 f i NpScene.obj
 0001:00089710       ?resize@?$Array@PAXVNamedAllocator@shdfnd@physx@@@shdfnd@physx@@QAEXIABQAX@Z 1008a710 f i NpScene.obj
 0001:00089770       ?resizeUninitialized@?$Array@VPxBounds3@physx@@V?$InlineAllocator@$0MA@VNamedAllocator@shdfnd@physx@@@shdfnd@2@@shdfnd@physx@@QAEXI@Z 1008a770 f i NpScene.obj
 0001:000897b0       ?run@Task@Cm@physx@@UAEXXZ 1008a7b0 f i NpScene.obj
 0001:000897f0       ?runInternal@?$DelegateTask@VNpScene@physx@@$H?executeCollide@12@QAEXPAVPxBaseTask@2@@ZA@@Cm@physx@@UAEXXZ 1008a7f0 f i NpScene.obj
 0001:00089800       ?runInternal@?$DelegateTask@VNpScene@physx@@$H?executeScene@12@QAEXPAVPxBaseTask@2@@ZA@@Cm@physx@@UAEXXZ 1008a800 f i NpScene.obj
 0001:00089810       ?runInternal@?$DelegateTask@VNpScene@physx@@$H?executeSolve@12@QAEXPAVPxBaseTask@2@@ZA@@Cm@physx@@UAEXXZ 1008a810 f i NpScene.obj
 0001:00089820       ?runInternal@SceneCompletion@NpScene@physx@@UAEXXZ 1008a820 f i NpScene.obj
 0001:00089830       ?setDominanceGroupPair@Scene@Scb@physx@@QAEXEEABUPxDominanceGroupPair@3@@Z 1008a830 f i NpScene.obj
 0001:000898b0       ?setDominancePair@SceneBuffer@Scb@physx@@QAEXIIABUPxDominanceGroupPair@3@@Z 1008a8b0 f i NpScene.obj
 0001:00089970       ?setFlags@Scene@Scb@physx@@QAEXV?$PxFlags@W4Enum@PxSceneFlag@physx@@G@3@@Z 1008a970 f i NpScene.obj
 0001:00089a10       ?setGravity@Scene@Scb@physx@@QAEXABVPxVec3@3@@Z 1008aa10 f i NpScene.obj
 0001:00089ab0       ?shift@RenderBuffer@Cm@physx@@QAEXABVPxVec3@3@@Z 1008aab0 f i NpScene.obj
 0001:00089ce0       ?raycast@NpSceneQueries@physx@@UBE_NABVPxVec3@2@0MAAU?$PxHitCallback@UPxRaycastHit@physx@@@2@V?$PxFlags@W4Enum@PxHitFlag@physx@@G@2@ABUPxQueryFilterData@2@PAVPxQueryFilterCallback@2@PBUPxQueryCache@2@@Z 1008ace0 f   NpSceneQueries.obj
 0001:00089e30       ?sweep@NpSceneQueries@physx@@UBE_NABVPxGeometry@2@ABVPxTransform@2@ABVPxVec3@2@MAAU?$PxHitCallback@UPxSweepHit@physx@@@2@V?$PxFlags@W4Enum@PxHitFlag@physx@@G@2@ABUPxQueryFilterData@2@PAVPxQueryFilterCallback@2@PBUPxQueryCache@2@M@Z 1008ae30 f   NpSceneQueries.obj
 0001:0008a030       ?overlap@NpSceneQueries@physx@@UBE_NABVPxGeometry@2@ABVPxTransform@2@AAU?$PxHitCallback@UPxOverlapHit@physx@@@2@ABUPxQueryFilterData@2@PAVPxQueryFilterCallback@2@@Z 1008b030 f   NpSceneQueries.obj
 0001:0008a4c0       ??$multiQuery@UPxOverlapHit@physx@@@NpSceneQueries@physx@@QBE_NABUMultiQueryInput@1@AAU?$PxHitCallback@UPxOverlapHit@physx@@@1@V?$PxFlags@W4Enum@PxHitFlag@physx@@G@1@PBUPxQueryCache@1@ABUPxQueryFilterData@1@PAVPxQueryFilterCallback@1@PAUBatchQueryFilterData@1@@Z 1008b4c0 f i NpSceneQueries.obj
 0001:0008a800       ??$multiQuery@UPxRaycastHit@physx@@@NpSceneQueries@physx@@QBE_NABUMultiQueryInput@1@AAU?$PxHitCallback@UPxRaycastHit@physx@@@1@V?$PxFlags@W4Enum@PxHitFlag@physx@@G@1@PBUPxQueryCache@1@ABUPxQueryFilterData@1@PAVPxQueryFilterCallback@1@PAUBatchQueryFilterData@1@@Z 1008b800 f i NpSceneQueries.obj
 0001:0008ad20       ??$multiQuery@UPxSweepHit@physx@@@NpSceneQueries@physx@@QBE_NABUMultiQueryInput@1@AAU?$PxHitCallback@UPxSweepHit@physx@@@1@V?$PxFlags@W4Enum@PxHitFlag@physx@@G@1@PBUPxQueryCache@1@ABUPxQueryFilterData@1@PAVPxQueryFilterCallback@1@PAUBatchQueryFilterData@1@@Z 1008bd20 f i NpSceneQueries.obj
 0001:0008b2f0       ??0?$CapturePvdOnReturn@UPxOverlapHit@physx@@@@QAE@PBVNpSceneQueries@physx@@ABUMultiQueryInput@2@V?$PxFlags@W4Enum@PxHitFlag@physx@@G@2@PBUPxQueryCache@2@ABUPxQueryFilterData@2@PAVPxQueryFilterCallback@2@PAUBatchQueryFilterData@2@AAU?$PxHitCallback@UPxOverlapHit@physx@@@2@@Z 1008c2f0 f i NpSceneQueries.obj
 0001:0008b3d0       ??0?$CapturePvdOnReturn@UPxRaycastHit@physx@@@@QAE@PBVNpSceneQueries@physx@@ABUMultiQueryInput@2@V?$PxFlags@W4Enum@PxHitFlag@physx@@G@2@PBUPxQueryCache@2@ABUPxQueryFilterData@2@PAVPxQueryFilterCallback@2@PAUBatchQueryFilterData@2@AAU?$PxHitCallback@UPxRaycastHit@physx@@@2@@Z 1008c3d0 f i NpSceneQueries.obj
 0001:0008b4d0       ??0?$CapturePvdOnReturn@UPxSweepHit@physx@@@@QAE@PBVNpSceneQueries@physx@@ABUMultiQueryInput@2@V?$PxFlags@W4Enum@PxHitFlag@physx@@G@2@PBUPxQueryCache@2@ABUPxQueryFilterData@2@PAVPxQueryFilterCallback@2@PAUBatchQueryFilterData@2@AAU?$PxHitCallback@UPxSweepHit@physx@@@2@@Z 1008c4d0 f i NpSceneQueries.obj
 0001:0008b5d0       ??0?$MultiQueryCallback@UPxOverlapHit@physx@@@@QAE@ABVNpSceneQueries@physx@@ABUMultiQueryInput@2@_NAAU?$PxHitCallback@UPxOverlapHit@physx@@@2@V?$PxFlags@W4Enum@PxHitFlag@physx@@G@2@ABUPxQueryFilterData@2@PAVPxQueryFilterCallback@2@MPAUBatchQueryFilterData@2@@Z 1008c5d0 f i NpSceneQueries.obj
 0001:0008b680       ??0?$MultiQueryCallback@UPxRaycastHit@physx@@@@QAE@ABVNpSceneQueries@physx@@ABUMultiQueryInput@2@_NAAU?$PxHitCallback@UPxRaycastHit@physx@@@2@V?$PxFlags@W4Enum@PxHitFlag@physx@@G@2@ABUPxQueryFilterData@2@PAVPxQueryFilterCallback@2@MPAUBatchQueryFilterData@2@@Z 1008c680 f i NpSceneQueries.obj
 0001:0008b730       ??0?$MultiQueryCallback@UPxSweepHit@physx@@@@QAE@ABVNpSceneQueries@physx@@ABUMultiQueryInput@2@_NAAU?$PxHitCallback@UPxSweepHit@physx@@@2@V?$PxFlags@W4Enum@PxHitFlag@physx@@G@2@ABUPxQueryFilterData@2@PAVPxQueryFilterCallback@2@MPAUBatchQueryFilterData@2@@Z 1008c730 f i NpSceneQueries.obj
 0001:0008b7e0       ??0?$PxHitBuffer@UPxRaycastHit@physx@@@physx@@QAE@PAUPxRaycastHit@1@I@Z 1008c7e0 f i NpSceneQueries.obj
 0001:0008b860       ??0?$PxHitBuffer@UPxSweepHit@physx@@@physx@@QAE@PAUPxSweepHit@1@I@Z 1008c860 f i NpSceneQueries.obj
 0001:0008b8d0       ??0Capsule@Gu@physx@@QAE@ABVPxVec3@2@0M@Z 1008c8d0 f i NpSceneQueries.obj
 0001:0008b920       ??0PxOverlapHit@physx@@QAE@XZ 1008c920 f i NpSceneQueries.obj
 0001:0008b940       ??0PxQuat@physx@@QAE@ABVPxMat33@1@@Z 1008c940 f i NpSceneQueries.obj
 0001:0008bc00       ??0PxRaycastHit@physx@@QAE@ABU01@@Z 1008cc00 f i NpSceneQueries.obj
 0001:0008bc90       ??0PxRaycastHit@physx@@QAE@XZ 1008cc90 f i NpSceneQueries.obj
 0001:0008bce0       ??0PxSweepHit@physx@@QAE@ABU01@@Z 1008cce0 f i NpSceneQueries.obj
 0001:0008bd50       ??0PxSweepHit@physx@@QAE@XZ 1008cd50 f i NpSceneQueries.obj
 0001:0008bda0       ??0ShapeData@Sq@physx@@QAE@ABVPxGeometry@2@ABVPxTransform@2@M@Z 1008cda0 f i NpSceneQueries.obj
 0001:0008c400       ??1?$CapturePvdOnReturn@UPxOverlapHit@physx@@@@UAE@XZ 1008d400 f i NpSceneQueries.obj
 0001:0008c5c0       ??1?$CapturePvdOnReturn@UPxRaycastHit@physx@@@@UAE@XZ 1008d5c0 f i NpSceneQueries.obj
 0001:0008c830       ??1?$CapturePvdOnReturn@UPxSweepHit@physx@@@@UAE@XZ 1008d830 f i NpSceneQueries.obj
 0001:0008cac0       ??1?$IssueCallbacksOnReturn@UPxOverlapHit@physx@@@@QAE@XZ 1008dac0 f i NpSceneQueries.obj
 0001:0008cb30       ??1?$IssueCallbacksOnReturn@UPxRaycastHit@physx@@@@QAE@XZ 1008db30 f i NpSceneQueries.obj
 0001:0008cbb0       ??1?$IssueCallbacksOnReturn@UPxSweepHit@physx@@@@QAE@XZ 1008dbb0 f i NpSceneQueries.obj
 0001:0008cc30       ??1PrunerCallback@Sq@physx@@UAE@XZ 1008dc30 f i NpSceneQueries.obj
 0001:0008cc40       ??4PxBounds3@physx@@QAEAAV01@ABV01@@Z 1008dc40 f i NpSceneQueries.obj
 0001:0008cc80       ??4PxSweepHit@physx@@QAEAAU01@ABU01@@Z 1008dc80 f i NpSceneQueries.obj
 0001:0008ccf0       ??_E?$CapturePvdOnReturn@UPxOverlapHit@physx@@@@UAEPAXI@Z 1008dcf0 f i NpSceneQueries.obj
 0001:0008ccf0       ??_G?$CapturePvdOnReturn@UPxOverlapHit@physx@@@@UAEPAXI@Z 1008dcf0 f i NpSceneQueries.obj
 0001:0008cd20       ??_G?$CapturePvdOnReturn@UPxRaycastHit@physx@@@@UAEPAXI@Z 1008dd20 f i NpSceneQueries.obj
 0001:0008cd20       ??_E?$CapturePvdOnReturn@UPxRaycastHit@physx@@@@UAEPAXI@Z 1008dd20 f i NpSceneQueries.obj
 0001:0008cd50       ??_E?$CapturePvdOnReturn@UPxSweepHit@physx@@@@UAEPAXI@Z 1008dd50 f i NpSceneQueries.obj
 0001:0008cd50       ??_G?$CapturePvdOnReturn@UPxSweepHit@physx@@@@UAEPAXI@Z 1008dd50 f i NpSceneQueries.obj
 0001:0008cd80       ??_E?$MultiQueryCallback@UPxOverlapHit@physx@@@@UAEPAXI@Z 1008dd80 f i NpSceneQueries.obj
 0001:0008cd80       ??_G?$MultiQueryCallback@UPxOverlapHit@physx@@@@UAEPAXI@Z 1008dd80 f i NpSceneQueries.obj
 0001:0008cdb0       ??_G?$MultiQueryCallback@UPxRaycastHit@physx@@@@UAEPAXI@Z 1008ddb0 f i NpSceneQueries.obj
 0001:0008cdb0       ??_E?$MultiQueryCallback@UPxRaycastHit@physx@@@@UAEPAXI@Z 1008ddb0 f i NpSceneQueries.obj
 0001:0008cde0       ??_E?$MultiQueryCallback@UPxSweepHit@physx@@@@UAEPAXI@Z 1008dde0 f i NpSceneQueries.obj
 0001:0008cde0       ??_G?$MultiQueryCallback@UPxSweepHit@physx@@@@UAEPAXI@Z 1008dde0 f i NpSceneQueries.obj
 0001:0008ce10       ??_GPrunerCallback@Sq@physx@@UAEPAXI@Z 1008de10 f i NpSceneQueries.obj
 0001:0008ce10       ??_EPrunerCallback@Sq@physx@@UAEPAXI@Z 1008de10 f i NpSceneQueries.obj
 0001:0008ce40       ?copy@?$Array@UPxRaycastHit@physx@@VNamedAllocator@shdfnd@2@@shdfnd@physx@@KAXPAUPxRaycastHit@3@0PBU43@@Z 1008de40 f i NpSceneQueries.obj
 0001:0008cf00       ?copy@?$Array@UPxSweepHit@physx@@VNamedAllocator@shdfnd@2@@shdfnd@physx@@KAXPAUPxSweepHit@3@0PBU43@@Z 1008df00 f i NpSceneQueries.obj
 0001:0008cfa0       ?growAndPushBack@?$Array@UPxOverlapHit@physx@@VNamedAllocator@shdfnd@2@@shdfnd@physx@@IAEAAUPxOverlapHit@3@ABU43@@Z 1008dfa0 f i NpSceneQueries.obj
 0001:0008d0a0       ?growAndPushBack@?$Array@UPxRaycastHit@physx@@VNamedAllocator@shdfnd@2@@shdfnd@physx@@IAEAAUPxRaycastHit@3@ABU43@@Z 1008e0a0 f i NpSceneQueries.obj
 0001:0008d180       ?growAndPushBack@?$Array@UPxSweepHit@physx@@VNamedAllocator@shdfnd@2@@shdfnd@physx@@IAEAAUPxSweepHit@3@ABU43@@Z 1008e180 f i NpSceneQueries.obj
 0001:0008d2d0       ?invoke@?$MultiQueryCallback@UPxOverlapHit@physx@@@@UAE_NAAMPBUPrunerPayload@Sq@physx@@I@Z 1008e2d0 f i NpSceneQueries.obj
 0001:0008d8f0       ?invoke@?$MultiQueryCallback@UPxRaycastHit@physx@@@@UAE_NAAMPBUPrunerPayload@Sq@physx@@I@Z 1008e8f0 f i NpSceneQueries.obj
 0001:0008e460       ?invoke@?$MultiQueryCallback@UPxSweepHit@physx@@@@UAE_NAAMPBUPrunerPayload@Sq@physx@@I@Z 1008f460 f i NpSceneQueries.obj
 0001:0008f430       ?processTouches@?$CapturePvdOnReturn@UPxOverlapHit@physx@@@@UAE_NPBUPxOverlapHit@physx@@I@Z 10090430 f i NpSceneQueries.obj
 0001:0008f4b0       ?processTouches@?$CapturePvdOnReturn@UPxRaycastHit@physx@@@@UAE_NPBUPxRaycastHit@physx@@I@Z 100904b0 f i NpSceneQueries.obj
 0001:0008f5b0       ?processTouches@?$CapturePvdOnReturn@UPxSweepHit@physx@@@@UAE_NPBUPxSweepHit@physx@@I@Z 100905b0 f i NpSceneQueries.obj
 0001:0008f680       _PxRegisterPhysicsSerializers 10090680 f   NpSerializerAdapter.obj
 0001:0008fab0       _PxUnregisterPhysicsSerializers 10090ab0 f   NpSerializerAdapter.obj
 0001:0008ff10       ??1PxProcessPxBaseCallback@physx@@UAE@XZ 10090f10 f i NpSerializerAdapter.obj
 0001:0008ff20       ??1PxSerializer@physx@@UAE@XZ 10090f20 f i NpSerializerAdapter.obj
 0001:0008ff30       ??_E?$PxSerializerDefaultAdapter@VConvexMesh@Gu@physx@@@physx@@UAEPAXI@Z 10090f30 f i NpSerializerAdapter.obj
 0001:0008ff30       ??_G?$PxSerializerDefaultAdapter@VConvexMesh@Gu@physx@@@physx@@UAEPAXI@Z 10090f30 f i NpSerializerAdapter.obj
 0001:0008ff60       ??_G?$PxSerializerDefaultAdapter@VHeightField@Gu@physx@@@physx@@UAEPAXI@Z 10090f60 f i NpSerializerAdapter.obj
 0001:0008ff60       ??_E?$PxSerializerDefaultAdapter@VHeightField@Gu@physx@@@physx@@UAEPAXI@Z 10090f60 f i NpSerializerAdapter.obj
 0001:0008ff90       ??_E?$PxSerializerDefaultAdapter@VNpAggregate@physx@@@physx@@UAEPAXI@Z 10090f90 f i NpSerializerAdapter.obj
 0001:0008ff90       ??_G?$PxSerializerDefaultAdapter@VNpAggregate@physx@@@physx@@UAEPAXI@Z 10090f90 f i NpSerializerAdapter.obj
 0001:0008ffc0       ??_E?$PxSerializerDefaultAdapter@VNpArticulation@physx@@@physx@@UAEPAXI@Z 10090fc0 f i NpSerializerAdapter.obj
 0001:0008ffc0       ??_G?$PxSerializerDefaultAdapter@VNpArticulation@physx@@@physx@@UAEPAXI@Z 10090fc0 f i NpSerializerAdapter.obj
 0001:0008fff0       ??_E?$PxSerializerDefaultAdapter@VNpArticulationJoint@physx@@@physx@@UAEPAXI@Z 10090ff0 f i NpSerializerAdapter.obj
 0001:0008fff0       ??_G?$PxSerializerDefaultAdapter@VNpArticulationJoint@physx@@@physx@@UAEPAXI@Z 10090ff0 f i NpSerializerAdapter.obj
 0001:00090020       ??_G?$PxSerializerDefaultAdapter@VNpArticulationLink@physx@@@physx@@UAEPAXI@Z 10091020 f i NpSerializerAdapter.obj
 0001:00090020       ??_E?$PxSerializerDefaultAdapter@VNpArticulationLink@physx@@@physx@@UAEPAXI@Z 10091020 f i NpSerializerAdapter.obj
 0001:00090050       ??_E?$PxSerializerDefaultAdapter@VNpCloth@physx@@@physx@@UAEPAXI@Z 10091050 f i NpSerializerAdapter.obj
 0001:00090050       ??_G?$PxSerializerDefaultAdapter@VNpCloth@physx@@@physx@@UAEPAXI@Z 10091050 f i NpSerializerAdapter.obj
 0001:00090080       ??_E?$PxSerializerDefaultAdapter@VNpClothFabric@physx@@@physx@@UAEPAXI@Z 10091080 f i NpSerializerAdapter.obj
 0001:00090080       ??_G?$PxSerializerDefaultAdapter@VNpClothFabric@physx@@@physx@@UAEPAXI@Z 10091080 f i NpSerializerAdapter.obj
 0001:000900b0       ??_G?$PxSerializerDefaultAdapter@VNpConstraint@physx@@@physx@@UAEPAXI@Z 100910b0 f i NpSerializerAdapter.obj
 0001:000900b0       ??_E?$PxSerializerDefaultAdapter@VNpConstraint@physx@@@physx@@UAEPAXI@Z 100910b0 f i NpSerializerAdapter.obj
 0001:000900e0       ??_G?$PxSerializerDefaultAdapter@VNpMaterial@physx@@@physx@@UAEPAXI@Z 100910e0 f i NpSerializerAdapter.obj
 0001:000900e0       ??_E?$PxSerializerDefaultAdapter@VNpMaterial@physx@@@physx@@UAEPAXI@Z 100910e0 f i NpSerializerAdapter.obj
 0001:00090110       ??_G?$PxSerializerDefaultAdapter@VNpParticleFluid@physx@@@physx@@UAEPAXI@Z 10091110 f i NpSerializerAdapter.obj
 0001:00090110       ??_E?$PxSerializerDefaultAdapter@VNpParticleFluid@physx@@@physx@@UAEPAXI@Z 10091110 f i NpSerializerAdapter.obj
 0001:00090140       ??_G?$PxSerializerDefaultAdapter@VNpParticleSystem@physx@@@physx@@UAEPAXI@Z 10091140 f i NpSerializerAdapter.obj
 0001:00090140       ??_E?$PxSerializerDefaultAdapter@VNpParticleSystem@physx@@@physx@@UAEPAXI@Z 10091140 f i NpSerializerAdapter.obj
 0001:00090170       ??_G?$PxSerializerDefaultAdapter@VNpRigidDynamic@physx@@@physx@@UAEPAXI@Z 10091170 f i NpSerializerAdapter.obj
 0001:00090170       ??_E?$PxSerializerDefaultAdapter@VNpRigidDynamic@physx@@@physx@@UAEPAXI@Z 10091170 f i NpSerializerAdapter.obj
 0001:000901a0       ??_G?$PxSerializerDefaultAdapter@VNpRigidStatic@physx@@@physx@@UAEPAXI@Z 100911a0 f i NpSerializerAdapter.obj
 0001:000901a0       ??_E?$PxSerializerDefaultAdapter@VNpRigidStatic@physx@@@physx@@UAEPAXI@Z 100911a0 f i NpSerializerAdapter.obj
 0001:000901d0       ??_E?$PxSerializerDefaultAdapter@VNpShape@physx@@@physx@@UAEPAXI@Z 100911d0 f i NpSerializerAdapter.obj
 0001:000901d0       ??_G?$PxSerializerDefaultAdapter@VNpShape@physx@@@physx@@UAEPAXI@Z 100911d0 f i NpSerializerAdapter.obj
 0001:00090200       ??_G?$PxSerializerDefaultAdapter@VTriangleMesh@Gu@physx@@@physx@@UAEPAXI@Z 10091200 f i NpSerializerAdapter.obj
 0001:00090200       ??_E?$PxSerializerDefaultAdapter@VTriangleMesh@Gu@physx@@@physx@@UAEPAXI@Z 10091200 f i NpSerializerAdapter.obj
 0001:00090230       ??_GPxProcessPxBaseCallback@physx@@UAEPAXI@Z 10091230 f i NpSerializerAdapter.obj
 0001:00090230       ??_EPxProcessPxBaseCallback@physx@@UAEPAXI@Z 10091230 f i NpSerializerAdapter.obj
 0001:00090260       ??_EPxSerializer@physx@@UAEPAXI@Z 10091260 f i NpSerializerAdapter.obj
 0001:00090260       ??_GPxSerializer@physx@@UAEPAXI@Z 10091260 f i NpSerializerAdapter.obj
 0001:00090290       ??_GRequiresCallback@?1??registerReferences@?$PxSerializerDefaultAdapter@VConvexMesh@Gu@physx@@@physx@@UBEXAAVPxBase@3@AAVPxSerializationContext@3@@Z@UAEPAXI@Z 10091290 f i NpSerializerAdapter.obj
 0001:00090290       ??_ERequiresCallback@?1??registerReferences@?$PxSerializerDefaultAdapter@VConvexMesh@Gu@physx@@@physx@@UBEXAAVPxBase@3@AAVPxSerializationContext@3@@Z@UAEPAXI@Z 10091290 f i NpSerializerAdapter.obj
 0001:000902c0       ??_ERequiresCallback@?1??registerReferences@?$PxSerializerDefaultAdapter@VHeightField@Gu@physx@@@physx@@UBEXAAVPxBase@3@AAVPxSerializationContext@3@@Z@UAEPAXI@Z 100912c0 f i NpSerializerAdapter.obj
 0001:000902c0       ??_GRequiresCallback@?1??registerReferences@?$PxSerializerDefaultAdapter@VHeightField@Gu@physx@@@physx@@UBEXAAVPxBase@3@AAVPxSerializationContext@3@@Z@UAEPAXI@Z 100912c0 f i NpSerializerAdapter.obj
 0001:000902f0       ??_ERequiresCallback@?1??registerReferences@?$PxSerializerDefaultAdapter@VNpAggregate@physx@@@physx@@UBEXAAVPxBase@3@AAVPxSerializationContext@3@@Z@UAEPAXI@Z 100912f0 f i NpSerializerAdapter.obj
 0001:000902f0       ??_GRequiresCallback@?1??registerReferences@?$PxSerializerDefaultAdapter@VNpAggregate@physx@@@physx@@UBEXAAVPxBase@3@AAVPxSerializationContext@3@@Z@UAEPAXI@Z 100912f0 f i NpSerializerAdapter.obj
 0001:00090320       ??_GRequiresCallback@?1??registerReferences@?$PxSerializerDefaultAdapter@VNpArticulation@physx@@@physx@@UBEXAAVPxBase@3@AAVPxSerializationContext@3@@Z@UAEPAXI@Z 10091320 f i NpSerializerAdapter.obj
 0001:00090320       ??_ERequiresCallback@?1??registerReferences@?$PxSerializerDefaultAdapter@VNpArticulation@physx@@@physx@@UBEXAAVPxBase@3@AAVPxSerializationContext@3@@Z@UAEPAXI@Z 10091320 f i NpSerializerAdapter.obj
 0001:00090350       ??_GRequiresCallback@?1??registerReferences@?$PxSerializerDefaultAdapter@VNpArticulationJoint@physx@@@physx@@UBEXAAVPxBase@3@AAVPxSerializationContext@3@@Z@UAEPAXI@Z 10091350 f i NpSerializerAdapter.obj
 0001:00090350       ??_ERequiresCallback@?1??registerReferences@?$PxSerializerDefaultAdapter@VNpArticulationJoint@physx@@@physx@@UBEXAAVPxBase@3@AAVPxSerializationContext@3@@Z@UAEPAXI@Z 10091350 f i NpSerializerAdapter.obj
 0001:00090380       ??_ERequiresCallback@?1??registerReferences@?$PxSerializerDefaultAdapter@VNpArticulationLink@physx@@@physx@@UBEXAAVPxBase@3@AAVPxSerializationContext@3@@Z@UAEPAXI@Z 10091380 f i NpSerializerAdapter.obj
 0001:00090380       ??_GRequiresCallback@?1??registerReferences@?$PxSerializerDefaultAdapter@VNpArticulationLink@physx@@@physx@@UBEXAAVPxBase@3@AAVPxSerializationContext@3@@Z@UAEPAXI@Z 10091380 f i NpSerializerAdapter.obj
 0001:000903b0       ??_ERequiresCallback@?1??registerReferences@?$PxSerializerDefaultAdapter@VNpCloth@physx@@@physx@@UBEXAAVPxBase@3@AAVPxSerializationContext@3@@Z@UAEPAXI@Z 100913b0 f i NpSerializerAdapter.obj
 0001:000903b0       ??_GRequiresCallback@?1??registerReferences@?$PxSerializerDefaultAdapter@VNpCloth@physx@@@physx@@UBEXAAVPxBase@3@AAVPxSerializationContext@3@@Z@UAEPAXI@Z 100913b0 f i NpSerializerAdapter.obj
 0001:000903e0       ??_ERequiresCallback@?1??registerReferences@?$PxSerializerDefaultAdapter@VNpClothFabric@physx@@@physx@@UBEXAAVPxBase@3@AAVPxSerializationContext@3@@Z@UAEPAXI@Z 100913e0 f i NpSerializerAdapter.obj
 0001:000903e0       ??_GRequiresCallback@?1??registerReferences@?$PxSerializerDefaultAdapter@VNpClothFabric@physx@@@physx@@UBEXAAVPxBase@3@AAVPxSerializationContext@3@@Z@UAEPAXI@Z 100913e0 f i NpSerializerAdapter.obj
 0001:00090410       ??_GRequiresCallback@?1??registerReferences@?$PxSerializerDefaultAdapter@VNpConstraint@physx@@@physx@@UBEXAAVPxBase@3@AAVPxSerializationContext@3@@Z@UAEPAXI@Z 10091410 f i NpSerializerAdapter.obj
 0001:00090410       ??_ERequiresCallback@?1??registerReferences@?$PxSerializerDefaultAdapter@VNpConstraint@physx@@@physx@@UBEXAAVPxBase@3@AAVPxSerializationContext@3@@Z@UAEPAXI@Z 10091410 f i NpSerializerAdapter.obj
 0001:00090440       ??_ERequiresCallback@?1??registerReferences@?$PxSerializerDefaultAdapter@VNpMaterial@physx@@@physx@@UBEXAAVPxBase@3@AAVPxSerializationContext@3@@Z@UAEPAXI@Z 10091440 f i NpSerializerAdapter.obj
 0001:00090440       ??_GRequiresCallback@?1??registerReferences@?$PxSerializerDefaultAdapter@VNpMaterial@physx@@@physx@@UBEXAAVPxBase@3@AAVPxSerializationContext@3@@Z@UAEPAXI@Z 10091440 f i NpSerializerAdapter.obj
 0001:00090470       ??_GRequiresCallback@?1??registerReferences@?$PxSerializerDefaultAdapter@VNpParticleFluid@physx@@@physx@@UBEXAAVPxBase@3@AAVPxSerializationContext@3@@Z@UAEPAXI@Z 10091470 f i NpSerializerAdapter.obj
 0001:00090470       ??_ERequiresCallback@?1??registerReferences@?$PxSerializerDefaultAdapter@VNpParticleFluid@physx@@@physx@@UBEXAAVPxBase@3@AAVPxSerializationContext@3@@Z@UAEPAXI@Z 10091470 f i NpSerializerAdapter.obj
 0001:000904a0       ??_GRequiresCallback@?1??registerReferences@?$PxSerializerDefaultAdapter@VNpParticleSystem@physx@@@physx@@UBEXAAVPxBase@3@AAVPxSerializationContext@3@@Z@UAEPAXI@Z 100914a0 f i NpSerializerAdapter.obj
 0001:000904a0       ??_ERequiresCallback@?1??registerReferences@?$PxSerializerDefaultAdapter@VNpParticleSystem@physx@@@physx@@UBEXAAVPxBase@3@AAVPxSerializationContext@3@@Z@UAEPAXI@Z 100914a0 f i NpSerializerAdapter.obj
 0001:000904d0       ??_ERequiresCallback@?1??registerReferences@?$PxSerializerDefaultAdapter@VNpRigidDynamic@physx@@@physx@@UBEXAAVPxBase@3@AAVPxSerializationContext@3@@Z@UAEPAXI@Z 100914d0 f i NpSerializerAdapter.obj
 0001:000904d0       ??_GRequiresCallback@?1??registerReferences@?$PxSerializerDefaultAdapter@VNpRigidDynamic@physx@@@physx@@UBEXAAVPxBase@3@AAVPxSerializationContext@3@@Z@UAEPAXI@Z 100914d0 f i NpSerializerAdapter.obj
 0001:00090500       ??_GRequiresCallback@?1??registerReferences@?$PxSerializerDefaultAdapter@VNpRigidStatic@physx@@@physx@@UBEXAAVPxBase@3@AAVPxSerializationContext@3@@Z@UAEPAXI@Z 10091500 f i NpSerializerAdapter.obj
 0001:00090500       ??_ERequiresCallback@?1??registerReferences@?$PxSerializerDefaultAdapter@VNpRigidStatic@physx@@@physx@@UBEXAAVPxBase@3@AAVPxSerializationContext@3@@Z@UAEPAXI@Z 10091500 f i NpSerializerAdapter.obj
 0001:00090530       ??_GRequiresCallback@?1??registerReferences@?$PxSerializerDefaultAdapter@VNpShape@physx@@@physx@@UBEXAAVPxBase@3@AAVPxSerializationContext@3@@Z@UAEPAXI@Z 10091530 f i NpSerializerAdapter.obj
 0001:00090530       ??_ERequiresCallback@?1??registerReferences@?$PxSerializerDefaultAdapter@VNpShape@physx@@@physx@@UBEXAAVPxBase@3@AAVPxSerializationContext@3@@Z@UAEPAXI@Z 10091530 f i NpSerializerAdapter.obj
 0001:00090560       ??_ERequiresCallback@?1??registerReferences@?$PxSerializerDefaultAdapter@VTriangleMesh@Gu@physx@@@physx@@UBEXAAVPxBase@3@AAVPxSerializationContext@3@@Z@UAEPAXI@Z 10091560 f i NpSerializerAdapter.obj
 0001:00090560       ??_GRequiresCallback@?1??registerReferences@?$PxSerializerDefaultAdapter@VTriangleMesh@Gu@physx@@@physx@@UBEXAAVPxBase@3@AAVPxSerializationContext@3@@Z@UAEPAXI@Z 10091560 f i NpSerializerAdapter.obj
 0001:00090590       ?createObject@?$PxSerializerDefaultAdapter@VConvexMesh@Gu@physx@@@physx@@UBEPAVPxBase@2@AAPAEAAVPxDeserializationContext@2@@Z 10091590 f i NpSerializerAdapter.obj
 0001:000905b0       ?createObject@?$PxSerializerDefaultAdapter@VHeightField@Gu@physx@@@physx@@UBEPAVPxBase@2@AAPAEAAVPxDeserializationContext@2@@Z 100915b0 f i NpSerializerAdapter.obj
 0001:000905d0       ?createObject@?$PxSerializerDefaultAdapter@VNpAggregate@physx@@@physx@@UBEPAVPxBase@2@AAPAEAAVPxDeserializationContext@2@@Z 100915d0 f i NpSerializerAdapter.obj
 0001:000905f0       ?createObject@?$PxSerializerDefaultAdapter@VNpArticulation@physx@@@physx@@UBEPAVPxBase@2@AAPAEAAVPxDeserializationContext@2@@Z 100915f0 f i NpSerializerAdapter.obj
 0001:00090610       ?createObject@?$PxSerializerDefaultAdapter@VNpArticulationJoint@physx@@@physx@@UBEPAVPxBase@2@AAPAEAAVPxDeserializationContext@2@@Z 10091610 f i NpSerializerAdapter.obj
 0001:00090630       ?createObject@?$PxSerializerDefaultAdapter@VNpArticulationLink@physx@@@physx@@UBEPAVPxBase@2@AAPAEAAVPxDeserializationContext@2@@Z 10091630 f i NpSerializerAdapter.obj
 0001:00090650       ?createObject@?$PxSerializerDefaultAdapter@VNpCloth@physx@@@physx@@UBEPAVPxBase@2@AAPAEAAVPxDeserializationContext@2@@Z 10091650 f i NpSerializerAdapter.obj
 0001:00090670       ?createObject@?$PxSerializerDefaultAdapter@VNpClothFabric@physx@@@physx@@UBEPAVPxBase@2@AAPAEAAVPxDeserializationContext@2@@Z 10091670 f i NpSerializerAdapter.obj
 0001:00090690       ?createObject@?$PxSerializerDefaultAdapter@VNpConstraint@physx@@@physx@@UBEPAVPxBase@2@AAPAEAAVPxDeserializationContext@2@@Z 10091690 f i NpSerializerAdapter.obj
 0001:000906b0       ?createObject@?$PxSerializerDefaultAdapter@VNpMaterial@physx@@@physx@@UBEPAVPxBase@2@AAPAEAAVPxDeserializationContext@2@@Z 100916b0 f i NpSerializerAdapter.obj
 0001:000906d0       ?createObject@?$PxSerializerDefaultAdapter@VNpParticleFluid@physx@@@physx@@UBEPAVPxBase@2@AAPAEAAVPxDeserializationContext@2@@Z 100916d0 f i NpSerializerAdapter.obj
 0001:000906f0       ?createObject@?$PxSerializerDefaultAdapter@VNpParticleSystem@physx@@@physx@@UBEPAVPxBase@2@AAPAEAAVPxDeserializationContext@2@@Z 100916f0 f i NpSerializerAdapter.obj
 0001:00090710       ?createObject@?$PxSerializerDefaultAdapter@VNpRigidDynamic@physx@@@physx@@UBEPAVPxBase@2@AAPAEAAVPxDeserializationContext@2@@Z 10091710 f i NpSerializerAdapter.obj
 0001:00090730       ?createObject@?$PxSerializerDefaultAdapter@VNpRigidStatic@physx@@@physx@@UBEPAVPxBase@2@AAPAEAAVPxDeserializationContext@2@@Z 10091730 f i NpSerializerAdapter.obj
 0001:00090750       ?createObject@?$PxSerializerDefaultAdapter@VNpShape@physx@@@physx@@UBEPAVPxBase@2@AAPAEAAVPxDeserializationContext@2@@Z 10091750 f i NpSerializerAdapter.obj
 0001:00090770       ?createObject@?$PxSerializerDefaultAdapter@VTriangleMesh@Gu@physx@@@physx@@UBEPAVPxBase@2@AAPAEAAVPxDeserializationContext@2@@Z 10091770 f i NpSerializerAdapter.obj
 0001:00090790       ?exportData@?$PxSerializerDefaultAdapter@VConvexMesh@Gu@physx@@@physx@@UBEXAAVPxBase@2@AAVPxSerializationContext@2@@Z 10091790 f i NpSerializerAdapter.obj
 0001:000907b0       ?exportData@?$PxSerializerDefaultAdapter@VHeightField@Gu@physx@@@physx@@UBEXAAVPxBase@2@AAVPxSerializationContext@2@@Z 100917b0 f i NpSerializerAdapter.obj
 0001:000907d0       ?exportData@?$PxSerializerDefaultAdapter@VNpAggregate@physx@@@physx@@UBEXAAVPxBase@2@AAVPxSerializationContext@2@@Z 100917d0 f i NpSerializerAdapter.obj
 0001:000907f0       ?exportData@?$PxSerializerDefaultAdapter@VNpArticulation@physx@@@physx@@UBEXAAVPxBase@2@AAVPxSerializationContext@2@@Z 100917f0 f i NpSerializerAdapter.obj
 0001:00090810       ?exportData@?$PxSerializerDefaultAdapter@VNpArticulationJoint@physx@@@physx@@UBEXAAVPxBase@2@AAVPxSerializationContext@2@@Z 10091810 f i NpSerializerAdapter.obj
 0001:00090830       ?exportData@?$PxSerializerDefaultAdapter@VNpArticulationLink@physx@@@physx@@UBEXAAVPxBase@2@AAVPxSerializationContext@2@@Z 10091830 f i NpSerializerAdapter.obj
 0001:00090850       ?exportData@?$PxSerializerDefaultAdapter@VNpCloth@physx@@@physx@@UBEXAAVPxBase@2@AAVPxSerializationContext@2@@Z 10091850 f i NpSerializerAdapter.obj
 0001:00090870       ?exportData@?$PxSerializerDefaultAdapter@VNpClothFabric@physx@@@physx@@UBEXAAVPxBase@2@AAVPxSerializationContext@2@@Z 10091870 f i NpSerializerAdapter.obj
 0001:00090890       ?exportData@?$PxSerializerDefaultAdapter@VNpConstraint@physx@@@physx@@UBEXAAVPxBase@2@AAVPxSerializationContext@2@@Z 10091890 f i NpSerializerAdapter.obj
 0001:000908b0       ?exportData@?$PxSerializerDefaultAdapter@VNpMaterial@physx@@@physx@@UBEXAAVPxBase@2@AAVPxSerializationContext@2@@Z 100918b0 f i NpSerializerAdapter.obj
 0001:000908d0       ?exportData@?$PxSerializerDefaultAdapter@VNpParticleFluid@physx@@@physx@@UBEXAAVPxBase@2@AAVPxSerializationContext@2@@Z 100918d0 f i NpSerializerAdapter.obj
 0001:000908f0       ?exportData@?$PxSerializerDefaultAdapter@VNpParticleSystem@physx@@@physx@@UBEXAAVPxBase@2@AAVPxSerializationContext@2@@Z 100918f0 f i NpSerializerAdapter.obj
 0001:00090910       ?exportData@?$PxSerializerDefaultAdapter@VNpRigidDynamic@physx@@@physx@@UBEXAAVPxBase@2@AAVPxSerializationContext@2@@Z 10091910 f i NpSerializerAdapter.obj
 0001:000909b0       ?exportData@?$PxSerializerDefaultAdapter@VNpRigidStatic@physx@@@physx@@UBEXAAVPxBase@2@AAVPxSerializationContext@2@@Z 100919b0 f i NpSerializerAdapter.obj
 0001:000909d0       ?exportData@?$PxSerializerDefaultAdapter@VNpShape@physx@@@physx@@UBEXAAVPxBase@2@AAVPxSerializationContext@2@@Z 100919d0 f i NpSerializerAdapter.obj
 0001:000909f0       ?exportData@?$PxSerializerDefaultAdapter@VTriangleMesh@Gu@physx@@@physx@@UBEXAAVPxBase@2@AAVPxSerializationContext@2@@Z 100919f0 f i NpSerializerAdapter.obj
 0001:00090a10       ?exportExtraData@?$PxSerializerDefaultAdapter@VConvexMesh@Gu@physx@@@physx@@UBEXAAVPxBase@2@AAVPxSerializationContext@2@@Z 10091a10 f i NpSerializerAdapter.obj
 0001:00090a30       ?exportExtraData@?$PxSerializerDefaultAdapter@VHeightField@Gu@physx@@@physx@@UBEXAAVPxBase@2@AAVPxSerializationContext@2@@Z 10091a30 f i NpSerializerAdapter.obj
 0001:00090a50       ?exportExtraData@?$PxSerializerDefaultAdapter@VNpAggregate@physx@@@physx@@UBEXAAVPxBase@2@AAVPxSerializationContext@2@@Z 10091a50 f i NpSerializerAdapter.obj
 0001:00090a70       ?exportExtraData@?$PxSerializerDefaultAdapter@VNpArticulation@physx@@@physx@@UBEXAAVPxBase@2@AAVPxSerializationContext@2@@Z 10091a70 f i NpSerializerAdapter.obj
 0001:00090a90       ?exportExtraData@?$PxSerializerDefaultAdapter@VNpArticulationJoint@physx@@@physx@@UBEXAAVPxBase@2@AAVPxSerializationContext@2@@Z 10091a90 f i NpSerializerAdapter.obj
 0001:00090aa0       ?exportExtraData@?$PxSerializerDefaultAdapter@VNpArticulationLink@physx@@@physx@@UBEXAAVPxBase@2@AAVPxSerializationContext@2@@Z 10091aa0 f i NpSerializerAdapter.obj
 0001:00090ac0       ?exportExtraData@?$PxSerializerDefaultAdapter@VNpCloth@physx@@@physx@@UBEXAAVPxBase@2@AAVPxSerializationContext@2@@Z 10091ac0 f i NpSerializerAdapter.obj
 0001:00090ae0       ?exportExtraData@?$PxSerializerDefaultAdapter@VNpClothFabric@physx@@@physx@@UBEXAAVPxBase@2@AAVPxSerializationContext@2@@Z 10091ae0 f i NpSerializerAdapter.obj
 0001:00090b00       ?exportExtraData@?$PxSerializerDefaultAdapter@VNpConstraint@physx@@@physx@@UBEXAAVPxBase@2@AAVPxSerializationContext@2@@Z 10091b00 f i NpSerializerAdapter.obj
 0001:00090b10       ?exportExtraData@?$PxSerializerDefaultAdapter@VNpMaterial@physx@@@physx@@UBEXAAVPxBase@2@AAVPxSerializationContext@2@@Z 10091b10 f i NpSerializerAdapter.obj
 0001:00090b20       ?exportExtraData@?$PxSerializerDefaultAdapter@VNpParticleFluid@physx@@@physx@@UBEXAAVPxBase@2@AAVPxSerializationContext@2@@Z 10091b20 f i NpSerializerAdapter.obj
 0001:00090b40       ?exportExtraData@?$PxSerializerDefaultAdapter@VNpParticleSystem@physx@@@physx@@UBEXAAVPxBase@2@AAVPxSerializationContext@2@@Z 10091b40 f i NpSerializerAdapter.obj
 0001:00090b60       ?exportExtraData@?$PxSerializerDefaultAdapter@VNpRigidDynamic@physx@@@physx@@UBEXAAVPxBase@2@AAVPxSerializationContext@2@@Z 10091b60 f i NpSerializerAdapter.obj
 0001:00090b80       ?exportExtraData@?$PxSerializerDefaultAdapter@VNpRigidStatic@physx@@@physx@@UBEXAAVPxBase@2@AAVPxSerializationContext@2@@Z 10091b80 f i NpSerializerAdapter.obj
 0001:00090ba0       ?exportExtraData@?$PxSerializerDefaultAdapter@VNpShape@physx@@@physx@@UBEXAAVPxBase@2@AAVPxSerializationContext@2@@Z 10091ba0 f i NpSerializerAdapter.obj
 0001:00090bc0       ?exportExtraData@?$PxSerializerDefaultAdapter@VTriangleMesh@Gu@physx@@@physx@@UBEXAAVPxBase@2@AAVPxSerializationContext@2@@Z 10091bc0 f i NpSerializerAdapter.obj
 0001:00090be0       ?getClassSize@?$PxSerializerDefaultAdapter@VConvexMesh@Gu@physx@@@physx@@UBEIXZ 10091be0 f i NpSerializerAdapter.obj
 0001:00090bf0       ?getClassSize@?$PxSerializerDefaultAdapter@VHeightField@Gu@physx@@@physx@@UBEIXZ 10091bf0 f i NpSerializerAdapter.obj
 0001:00090c00       ?getClassSize@?$PxSerializerDefaultAdapter@VNpAggregate@physx@@@physx@@UBEIXZ 10091c00 f i NpSerializerAdapter.obj
 0001:00090c10       ?getClassSize@?$PxSerializerDefaultAdapter@VNpArticulation@physx@@@physx@@UBEIXZ 10091c10 f i NpSerializerAdapter.obj
 0001:00090c20       ?getClassSize@?$PxSerializerDefaultAdapter@VNpArticulationJoint@physx@@@physx@@UBEIXZ 10091c20 f i NpSerializerAdapter.obj
 0001:00090c30       ?getClassSize@?$PxSerializerDefaultAdapter@VNpArticulationLink@physx@@@physx@@UBEIXZ 10091c30 f i NpSerializerAdapter.obj
 0001:00090c40       ?getClassSize@?$PxSerializerDefaultAdapter@VNpCloth@physx@@@physx@@UBEIXZ 10091c40 f i NpSerializerAdapter.obj
 0001:00090c50       ?getClassSize@?$PxSerializerDefaultAdapter@VNpClothFabric@physx@@@physx@@UBEIXZ 10091c50 f i NpSerializerAdapter.obj
 0001:00090c60       ?getClassSize@?$PxSerializerDefaultAdapter@VNpConstraint@physx@@@physx@@UBEIXZ 10091c60 f i NpSerializerAdapter.obj
 0001:00090c70       ?getClassSize@?$PxSerializerDefaultAdapter@VNpMaterial@physx@@@physx@@UBEIXZ 10091c70 f i NpSerializerAdapter.obj
 0001:00090c80       ?getClassSize@?$PxSerializerDefaultAdapter@VNpParticleFluid@physx@@@physx@@UBEIXZ 10091c80 f i NpSerializerAdapter.obj
 0001:00090c90       ?getClassSize@?$PxSerializerDefaultAdapter@VNpParticleSystem@physx@@@physx@@UBEIXZ 10091c90 f i NpSerializerAdapter.obj
 0001:00090ca0       ?getClassSize@?$PxSerializerDefaultAdapter@VNpRigidDynamic@physx@@@physx@@UBEIXZ 10091ca0 f i NpSerializerAdapter.obj
 0001:00090cb0       ?getClassSize@?$PxSerializerDefaultAdapter@VNpRigidStatic@physx@@@physx@@UBEIXZ 10091cb0 f i NpSerializerAdapter.obj
 0001:00090cc0       ?getClassSize@?$PxSerializerDefaultAdapter@VNpShape@physx@@@physx@@UBEIXZ 10091cc0 f i NpSerializerAdapter.obj
 0001:00090cd0       ?getClassSize@?$PxSerializerDefaultAdapter@VTriangleMesh@Gu@physx@@@physx@@UBEIXZ 10091cd0 f i NpSerializerAdapter.obj
 0001:00090ce0       ?getConcreteTypeName@?$PxSerializerDefaultAdapter@VConvexMesh@Gu@physx@@@physx@@UBEPBDXZ 10091ce0 f i NpSerializerAdapter.obj
 0001:00090cf0       ?getConcreteTypeName@?$PxSerializerDefaultAdapter@VHeightField@Gu@physx@@@physx@@UBEPBDXZ 10091cf0 f i NpSerializerAdapter.obj
 0001:00090d00       ?getConcreteTypeName@?$PxSerializerDefaultAdapter@VNpAggregate@physx@@@physx@@UBEPBDXZ 10091d00 f i NpSerializerAdapter.obj
 0001:00090d10       ?getConcreteTypeName@?$PxSerializerDefaultAdapter@VNpArticulation@physx@@@physx@@UBEPBDXZ 10091d10 f i NpSerializerAdapter.obj
 0001:00090d20       ?getConcreteTypeName@?$PxSerializerDefaultAdapter@VNpArticulationJoint@physx@@@physx@@UBEPBDXZ 10091d20 f i NpSerializerAdapter.obj
 0001:00090d30       ?getConcreteTypeName@?$PxSerializerDefaultAdapter@VNpArticulationLink@physx@@@physx@@UBEPBDXZ 10091d30 f i NpSerializerAdapter.obj
 0001:00090d40       ?getConcreteTypeName@?$PxSerializerDefaultAdapter@VNpCloth@physx@@@physx@@UBEPBDXZ 10091d40 f i NpSerializerAdapter.obj
 0001:00090d50       ?getConcreteTypeName@?$PxSerializerDefaultAdapter@VNpClothFabric@physx@@@physx@@UBEPBDXZ 10091d50 f i NpSerializerAdapter.obj
 0001:00090d60       ?getConcreteTypeName@?$PxSerializerDefaultAdapter@VNpConstraint@physx@@@physx@@UBEPBDXZ 10091d60 f i NpSerializerAdapter.obj
 0001:00090d70       ?getConcreteTypeName@?$PxSerializerDefaultAdapter@VNpMaterial@physx@@@physx@@UBEPBDXZ 10091d70 f i NpSerializerAdapter.obj
 0001:00090d80       ?getConcreteTypeName@?$PxSerializerDefaultAdapter@VNpParticleFluid@physx@@@physx@@UBEPBDXZ 10091d80 f i NpSerializerAdapter.obj
 0001:00090d90       ?getConcreteTypeName@?$PxSerializerDefaultAdapter@VNpParticleSystem@physx@@@physx@@UBEPBDXZ 10091d90 f i NpSerializerAdapter.obj
 0001:00090da0       ?getConcreteTypeName@?$PxSerializerDefaultAdapter@VNpRigidDynamic@physx@@@physx@@UBEPBDXZ 10091da0 f i NpSerializerAdapter.obj
 0001:00090db0       ?getConcreteTypeName@?$PxSerializerDefaultAdapter@VNpRigidStatic@physx@@@physx@@UBEPBDXZ 10091db0 f i NpSerializerAdapter.obj
 0001:00090dc0       ?getConcreteTypeName@?$PxSerializerDefaultAdapter@VNpShape@physx@@@physx@@UBEPBDXZ 10091dc0 f i NpSerializerAdapter.obj
 0001:00090dd0       ?getConcreteTypeName@?$PxSerializerDefaultAdapter@VTriangleMesh@Gu@physx@@@physx@@UBEPBDXZ 10091dd0 f i NpSerializerAdapter.obj
 0001:00090de0       ?isSubordinate@?$PxSerializerDefaultAdapter@VConvexMesh@Gu@physx@@@physx@@UBE_NXZ 10091de0 f i NpSerializerAdapter.obj
 0001:00090df0       ?isSubordinate@?$PxSerializerDefaultAdapter@VHeightField@Gu@physx@@@physx@@UBE_NXZ 10091df0 f i NpSerializerAdapter.obj
 0001:00090e00       ?isSubordinate@?$PxSerializerDefaultAdapter@VNpAggregate@physx@@@physx@@UBE_NXZ 10091e00 f i NpSerializerAdapter.obj
 0001:00090e10       ?isSubordinate@?$PxSerializerDefaultAdapter@VNpArticulation@physx@@@physx@@UBE_NXZ 10091e10 f i NpSerializerAdapter.obj
 0001:00090e20       ?isSubordinate@?$PxSerializerDefaultAdapter@VNpArticulationJoint@physx@@@physx@@UBE_NXZ 10091e20 f i NpSerializerAdapter.obj
 0001:00090e30       ?isSubordinate@?$PxSerializerDefaultAdapter@VNpArticulationLink@physx@@@physx@@UBE_NXZ 10091e30 f i NpSerializerAdapter.obj
 0001:00090e40       ?isSubordinate@?$PxSerializerDefaultAdapter@VNpCloth@physx@@@physx@@UBE_NXZ 10091e40 f i NpSerializerAdapter.obj
 0001:00090e50       ?isSubordinate@?$PxSerializerDefaultAdapter@VNpClothFabric@physx@@@physx@@UBE_NXZ 10091e50 f i NpSerializerAdapter.obj
 0001:00090e60       ?isSubordinate@?$PxSerializerDefaultAdapter@VNpConstraint@physx@@@physx@@UBE_NXZ 10091e60 f i NpSerializerAdapter.obj
 0001:00090e70       ?isSubordinate@?$PxSerializerDefaultAdapter@VNpMaterial@physx@@@physx@@UBE_NXZ 10091e70 f i NpSerializerAdapter.obj
 0001:00090e80       ?isSubordinate@?$PxSerializerDefaultAdapter@VNpParticleFluid@physx@@@physx@@UBE_NXZ 10091e80 f i NpSerializerAdapter.obj
 0001:00090e90       ?isSubordinate@?$PxSerializerDefaultAdapter@VNpParticleSystem@physx@@@physx@@UBE_NXZ 10091e90 f i NpSerializerAdapter.obj
 0001:00090ea0       ?isSubordinate@?$PxSerializerDefaultAdapter@VNpRigidDynamic@physx@@@physx@@UBE_NXZ 10091ea0 f i NpSerializerAdapter.obj
 0001:00090eb0       ?isSubordinate@?$PxSerializerDefaultAdapter@VNpRigidStatic@physx@@@physx@@UBE_NXZ 10091eb0 f i NpSerializerAdapter.obj
 0001:00090ec0       ?isSubordinate@?$PxSerializerDefaultAdapter@VNpShape@physx@@@physx@@UBE_NXZ 10091ec0 f i NpSerializerAdapter.obj
 0001:00090ed0       ?isSubordinate@?$PxSerializerDefaultAdapter@VTriangleMesh@Gu@physx@@@physx@@UBE_NXZ 10091ed0 f i NpSerializerAdapter.obj
 0001:00091110       ?registerReferences@?$PxSerializerDefaultAdapter@VConvexMesh@Gu@physx@@@physx@@UBEXAAVPxBase@2@AAVPxSerializationContext@2@@Z 10092110 f i NpSerializerAdapter.obj
 0001:00091160       ?registerReferences@?$PxSerializerDefaultAdapter@VHeightField@Gu@physx@@@physx@@UBEXAAVPxBase@2@AAVPxSerializationContext@2@@Z 10092160 f i NpSerializerAdapter.obj
 0001:000911b0       ?registerReferences@?$PxSerializerDefaultAdapter@VNpAggregate@physx@@@physx@@UBEXAAVPxBase@2@AAVPxSerializationContext@2@@Z 100921b0 f i NpSerializerAdapter.obj
 0001:00091200       ?registerReferences@?$PxSerializerDefaultAdapter@VNpArticulation@physx@@@physx@@UBEXAAVPxBase@2@AAVPxSerializationContext@2@@Z 10092200 f i NpSerializerAdapter.obj
 0001:00091250       ?registerReferences@?$PxSerializerDefaultAdapter@VNpArticulationJoint@physx@@@physx@@UBEXAAVPxBase@2@AAVPxSerializationContext@2@@Z 10092250 f i NpSerializerAdapter.obj
 0001:000912a0       ?registerReferences@?$PxSerializerDefaultAdapter@VNpArticulationLink@physx@@@physx@@UBEXAAVPxBase@2@AAVPxSerializationContext@2@@Z 100922a0 f i NpSerializerAdapter.obj
 0001:000912f0       ?registerReferences@?$PxSerializerDefaultAdapter@VNpCloth@physx@@@physx@@UBEXAAVPxBase@2@AAVPxSerializationContext@2@@Z 100922f0 f i NpSerializerAdapter.obj
 0001:00091340       ?registerReferences@?$PxSerializerDefaultAdapter@VNpClothFabric@physx@@@physx@@UBEXAAVPxBase@2@AAVPxSerializationContext@2@@Z 10092340 f i NpSerializerAdapter.obj
 0001:00091390       ?registerReferences@?$PxSerializerDefaultAdapter@VNpConstraint@physx@@@physx@@UBEXAAVPxBase@2@AAVPxSerializationContext@2@@Z 10092390 f i NpSerializerAdapter.obj
 0001:000913e0       ?registerReferences@?$PxSerializerDefaultAdapter@VNpMaterial@physx@@@physx@@UBEXAAVPxBase@2@AAVPxSerializationContext@2@@Z 100923e0 f i NpSerializerAdapter.obj
 0001:00091430       ?registerReferences@?$PxSerializerDefaultAdapter@VNpParticleFluid@physx@@@physx@@UBEXAAVPxBase@2@AAVPxSerializationContext@2@@Z 10092430 f i NpSerializerAdapter.obj
 0001:00091480       ?registerReferences@?$PxSerializerDefaultAdapter@VNpParticleSystem@physx@@@physx@@UBEXAAVPxBase@2@AAVPxSerializationContext@2@@Z 10092480 f i NpSerializerAdapter.obj
 0001:000914d0       ?registerReferences@?$PxSerializerDefaultAdapter@VNpRigidDynamic@physx@@@physx@@UBEXAAVPxBase@2@AAVPxSerializationContext@2@@Z 100924d0 f i NpSerializerAdapter.obj
 0001:00091520       ?registerReferences@?$PxSerializerDefaultAdapter@VNpRigidStatic@physx@@@physx@@UBEXAAVPxBase@2@AAVPxSerializationContext@2@@Z 10092520 f i NpSerializerAdapter.obj
 0001:00091570       ?registerReferences@?$PxSerializerDefaultAdapter@VNpShape@physx@@@physx@@UBEXAAVPxBase@2@AAVPxSerializationContext@2@@Z 10092570 f i NpSerializerAdapter.obj
 0001:000915c0       ?registerReferences@?$PxSerializerDefaultAdapter@VTriangleMesh@Gu@physx@@@physx@@UBEXAAVPxBase@2@AAVPxSerializationContext@2@@Z 100925c0 f i NpSerializerAdapter.obj
 0001:00091610       ?requires@?$PxSerializerDefaultAdapter@VConvexMesh@Gu@physx@@@physx@@UBEXAAVPxBase@2@AAVPxProcessPxBaseCallback@2@@Z 10092610 f i NpSerializerAdapter.obj
 0001:00091630       ?requires@?$PxSerializerDefaultAdapter@VHeightField@Gu@physx@@@physx@@UBEXAAVPxBase@2@AAVPxProcessPxBaseCallback@2@@Z 10092630 f i NpSerializerAdapter.obj
 0001:00091650       ?requires@?$PxSerializerDefaultAdapter@VNpAggregate@physx@@@physx@@UBEXAAVPxBase@2@AAVPxProcessPxBaseCallback@2@@Z 10092650 f i NpSerializerAdapter.obj
 0001:00091670       ?requires@?$PxSerializerDefaultAdapter@VNpArticulation@physx@@@physx@@UBEXAAVPxBase@2@AAVPxProcessPxBaseCallback@2@@Z 10092670 f i NpSerializerAdapter.obj
 0001:00091690       ?requires@?$PxSerializerDefaultAdapter@VNpArticulationJoint@physx@@@physx@@UBEXAAVPxBase@2@AAVPxProcessPxBaseCallback@2@@Z 10092690 f i NpSerializerAdapter.obj
 0001:000916b0       ?requires@?$PxSerializerDefaultAdapter@VNpArticulationLink@physx@@@physx@@UBEXAAVPxBase@2@AAVPxProcessPxBaseCallback@2@@Z 100926b0 f i NpSerializerAdapter.obj
 0001:000916d0       ?requires@?$PxSerializerDefaultAdapter@VNpCloth@physx@@@physx@@UBEXAAVPxBase@2@AAVPxProcessPxBaseCallback@2@@Z 100926d0 f i NpSerializerAdapter.obj
 0001:000916f0       ?requires@?$PxSerializerDefaultAdapter@VNpClothFabric@physx@@@physx@@UBEXAAVPxBase@2@AAVPxProcessPxBaseCallback@2@@Z 100926f0 f i NpSerializerAdapter.obj
 0001:00091710       ?requires@?$PxSerializerDefaultAdapter@VNpConstraint@physx@@@physx@@UBEXAAVPxBase@2@AAVPxProcessPxBaseCallback@2@@Z 10092710 f i NpSerializerAdapter.obj
 0001:00091730       ?requires@?$PxSerializerDefaultAdapter@VNpMaterial@physx@@@physx@@UBEXAAVPxBase@2@AAVPxProcessPxBaseCallback@2@@Z 10092730 f i NpSerializerAdapter.obj
 0001:00091750       ?requires@?$PxSerializerDefaultAdapter@VNpParticleFluid@physx@@@physx@@UBEXAAVPxBase@2@AAVPxProcessPxBaseCallback@2@@Z 10092750 f i NpSerializerAdapter.obj
 0001:00091770       ?requires@?$PxSerializerDefaultAdapter@VNpParticleSystem@physx@@@physx@@UBEXAAVPxBase@2@AAVPxProcessPxBaseCallback@2@@Z 10092770 f i NpSerializerAdapter.obj
 0001:00091790       ?requires@?$PxSerializerDefaultAdapter@VNpRigidDynamic@physx@@@physx@@UBEXAAVPxBase@2@AAVPxProcessPxBaseCallback@2@@Z 10092790 f i NpSerializerAdapter.obj
 0001:000917b0       ?requires@?$PxSerializerDefaultAdapter@VNpRigidStatic@physx@@@physx@@UBEXAAVPxBase@2@AAVPxProcessPxBaseCallback@2@@Z 100927b0 f i NpSerializerAdapter.obj
 0001:000917d0       ?requires@?$PxSerializerDefaultAdapter@VNpShape@physx@@@physx@@UBEXAAVPxBase@2@AAVPxProcessPxBaseCallback@2@@Z 100927d0 f i NpSerializerAdapter.obj
 0001:000917f0       ?requires@?$PxSerializerDefaultAdapter@VTriangleMesh@Gu@physx@@@physx@@UBEXAAVPxBase@2@AAVPxProcessPxBaseCallback@2@@Z 100927f0 f i NpSerializerAdapter.obj
 0001:00091810       ?NpShapeGetScPtrOffset@physx@@YAIXZ 10092810 f   NpShape.obj
 0001:00091820       ?NpShapeIncRefCount@physx@@YAXAAVShape@Scb@1@@Z 10092820 f   NpShape.obj
 0001:00091830       ?NpShapeDecRefCount@physx@@YAXAAVShape@Scb@1@@Z 10092830 f   NpShape.obj
 0001:00091860       ?NpShapeGetScRigidObjectFromScbSLOW@physx@@YAPAVRigidCore@Sc@1@ABVShape@Scb@1@@Z 10092860 f   NpShape.obj
 0001:000918b0       ?exportExtraData@NpShape@physx@@UAEXAAVPxSerializationContext@2@@Z 100928b0 f   NpShape.obj
 0001:000918e0       ?importExtraData@NpShape@physx@@QAEXAAVPxDeserializationContext@2@@Z 100928e0 f   NpShape.obj
 0001:00091920       ?requires@NpShape@physx@@UAEXAAVPxProcessPxBaseCallback@2@@Z 10092920 f   NpShape.obj
 0001:00091a20       ?resolveReferences@NpShape@physx@@QAEXAAVPxDeserializationContext@2@@Z 10092a20 f   NpShape.obj
 0001:00091b50       ?createObject@NpShape@physx@@SAPAV12@AAPAEAAVPxDeserializationContext@2@@Z 10092b50 f   NpShape.obj
 0001:00091bb0       ??0NpShape@physx@@QAE@ABVPxGeometry@1@V?$PxFlags@W4Enum@PxShapeFlag@physx@@E@1@PBGG_N@Z 10092bb0 f   NpShape.obj
 0001:00091c90       ??1NpShape@physx@@UAE@XZ   10092c90 f   NpShape.obj
 0001:00091d80       ?release@NpShape@physx@@UAEXXZ 10092d80 f   NpShape.obj
 0001:00091e90       ?getGeometryType@NpShape@physx@@UBE?AW4Enum@PxGeometryType@2@XZ 10092e90 f   NpShape.obj
 0001:00091ed0       ?setGeometry@NpShape@physx@@UAEXABVPxGeometry@2@@Z 10092ed0 f   NpShape.obj
 0001:000920d0       ?getGeometry@NpShape@physx@@UBE?AVPxGeometryHolder@2@XZ 100930d0 f   NpShape.obj
 0001:00092110       ?getBoxGeometry@NpShape@physx@@UBE_NAAVPxBoxGeometry@2@@Z 10093110 f   NpShape.obj
 0001:000921a0       ?getSphereGeometry@NpShape@physx@@UBE_NAAVPxSphereGeometry@2@@Z 100931a0 f   NpShape.obj
 0001:00092220       ?getCapsuleGeometry@NpShape@physx@@UBE_NAAVPxCapsuleGeometry@2@@Z 10093220 f   NpShape.obj
 0001:000922a0       ?getPlaneGeometry@NpShape@physx@@UBE_NAAVPxPlaneGeometry@2@@Z 100932a0 f   NpShape.obj
 0001:00092320       ?getConvexMeshGeometry@NpShape@physx@@UBE_NAAVPxConvexMeshGeometry@2@@Z 10093320 f   NpShape.obj
 0001:000923d0       ?getTriangleMeshGeometry@NpShape@physx@@UBE_NAAVPxTriangleMeshGeometry@2@@Z 100933d0 f   NpShape.obj
 0001:00092490       ?getHeightFieldGeometry@NpShape@physx@@UBE_NAAVPxHeightFieldGeometry@2@@Z 10093490 f   NpShape.obj
 0001:00092530       ?getActor@NpShape@physx@@UBEPAVPxRigidActor@2@XZ 10093530 f   NpShape.obj
 0001:00092570       ?setLocalPose@NpShape@physx@@UAEXABVPxTransform@2@@Z 10093570 f   NpShape.obj
 0001:00092750       ?getLocalPose@NpShape@physx@@UBE?AVPxTransform@2@XZ 10093750 f   NpShape.obj
 0001:000927d0       ?setSimulationFilterData@NpShape@physx@@UAEXABUPxFilterData@2@@Z 100937d0 f   NpShape.obj
 0001:00092880       ?getSimulationFilterData@NpShape@physx@@UBE?AUPxFilterData@2@XZ 10093880 f   NpShape.obj
 0001:000928e0       ?resetFiltering@NpShape@physx@@UAEXXZ 100938e0 f   NpShape.obj
 0001:00092940       ?setQueryFilterData@NpShape@physx@@UAEXABUPxFilterData@2@@Z 10093940 f   NpShape.obj
 0001:00092a30       ?getQueryFilterData@NpShape@physx@@UBE?AUPxFilterData@2@XZ 10093a30 f   NpShape.obj
 0001:00092a80       ?setMaterials@NpShape@physx@@UAEXPBQAVPxMaterial@2@G@Z 10093a80 f   NpShape.obj
 0001:00092c40       ?getNbMaterials@NpShape@physx@@UBEGXZ 10093c40 f   NpShape.obj
 0001:00092cb0       ?getMaterials@NpShape@physx@@UBEIPAPAVPxMaterial@2@I@Z 10093cb0 f   NpShape.obj
 0001:00092d00       ?getMaterialFromInternalFaceIndex@NpShape@physx@@UBEPAVPxMaterial@2@I@Z 10093d00 f   NpShape.obj
 0001:00092e30       ?setContactOffset@NpShape@physx@@UAEXM@Z 10093e30 f   NpShape.obj
 0001:00092f80       ?getContactOffset@NpShape@physx@@UBEMXZ 10093f80 f   NpShape.obj
 0001:00092fe0       ?setRestOffset@NpShape@physx@@UAEXM@Z 10093fe0 f   NpShape.obj
 0001:00093180       ?getRestOffset@NpShape@physx@@UBEMXZ 10094180 f   NpShape.obj
 0001:000931e0       ?setFlag@NpShape@physx@@UAEXW4Enum@PxShapeFlag@2@_N@Z 100941e0 f   NpShape.obj
 0001:000932c0       ?setFlags@NpShape@physx@@UAEXV?$PxFlags@W4Enum@PxShapeFlag@physx@@E@2@@Z 100942c0 f   NpShape.obj
 0001:00093310       ?getFlags@NpShape@physx@@UBE?AV?$PxFlags@W4Enum@PxShapeFlag@physx@@E@2@XZ 10094310 f   NpShape.obj
 0001:00093370       ?isExclusive@NpShape@physx@@UBE_NXZ 10094370 f   NpShape.obj
 0001:000933c0       ?setName@NpShape@physx@@UAEXPBD@Z 100943c0 f   NpShape.obj
 0001:000934b0       ?getName@NpShape@physx@@UBEPBDXZ 100944b0 f   NpShape.obj
 0001:000934f0       ?onRefCountZero@NpShape@physx@@UAEXXZ 100944f0 f   NpShape.obj
 0001:00093510       ?setFlagsInternal@NpShape@physx@@QAEXV?$PxFlags@W4Enum@PxShapeFlag@physx@@E@2@@Z 10094510 f   NpShape.obj
 0001:000936a0       ?checkMaterialSetup@NpShape@physx@@SA_NABVPxGeometry@2@PBDPBQAVPxMaterial@2@G@Z 100946a0 f   NpShape.obj
 0001:00093720       ?setActor@NpShape@physx@@QAEXPAVPxRigidActor@2@@Z 10094720 f   NpShape.obj
 0001:00093730       ?visualize@NpShape@physx@@UAEXAAVRenderOutput@Cm@2@ABVPxRigidActor@2@@Z 10094730 f   NpShape.obj
 0001:00094010       ?getScRigidObjectExclusive@NpShape@physx@@QBEAAVRigidCore@Sc@2@XZ 10095010 f   NpShape.obj
 0001:00094020       ?releaseInternal@NpShape@physx@@QAEXXZ 10095020 f   NpShape.obj
 0001:00094060       ?getOwnerScene@NpShape@physx@@ABEPAVNpScene@2@XZ 10095060 f   NpShape.obj
 0001:00094080       ?getAPIScene@NpShape@physx@@ABEPAVNpScene@2@XZ 10095080 f   NpShape.obj
 0001:00094090       ?incMeshRefCount@NpShape@physx@@AAEXXZ 10095090 f   NpShape.obj
 0001:000940b0       ?decMeshRefCount@NpShape@physx@@AAEXXZ 100950b0 f   NpShape.obj
 0001:000940e0       ?getMeshRefCountable@NpShape@physx@@AAEPAVRefCountable@Cm@2@XZ 100950e0 f   NpShape.obj
 0001:00094170       ?isWritable@NpShape@physx@@AAE_NXZ 10095170 f   NpShape.obj
 0001:00094c00       ??$allocArrayBuffer@G@Scene@Scb@physx@@AAEPAGAAV?$Array@GVNamedAllocator@shdfnd@physx@@@shdfnd@2@IAAI@Z 10095c00 f i NpShape.obj
 0001:00094c40       ??0NpShape@physx@@QAE@V?$PxFlags@W4Enum@PxBaseFlag@physx@@G@1@@Z 10095c40 f i NpShape.obj
 0001:00094cd0       ??0PxConvexMeshGeometry@physx@@QAE@XZ 10095cd0 f i NpShape.obj
 0001:00094d30       ??0PxHeightFieldGeometry@physx@@QAE@XZ 10095d30 f i NpShape.obj
 0001:00094d70       ??0PxTriangleMeshGeometry@physx@@QAE@XZ 10095d70 f i NpShape.obj
 0001:00094dd0       ??1PxShape@physx@@MAE@XZ   10095dd0 f i NpShape.obj
 0001:00094dd7       ??_ENpShape@physx@@WM@AEPAXI@Z 10095dd7 f i NpShape.obj
 0001:00094df0       ??_ENpShape@physx@@UAEPAXI@Z 10095df0 f i NpShape.obj
 0001:00094df0       ??_GNpShape@physx@@UAEPAXI@Z 10095df0 f i NpShape.obj
 0001:00094e40       ??_GPxShape@physx@@MAEPAXI@Z 10095e40 f i NpShape.obj
 0001:00094e40       ??_EPxShape@physx@@MAEPAXI@Z 10095e40 f i NpShape.obj
 0001:00094e70       ?getConcreteTypeName@PxShape@physx@@UBEPBDXZ 10095e70 f i NpShape.obj
 0001:00094e80       ?getMaterials@Shape@Scb@physx@@QBEIPAPAVPxMaterial@3@I@Z 10095e80 f i NpShape.obj
 0001:000956f0       ?isKindOf@PxShape@physx@@MBE_NPBD@Z 100966f0 f i NpShape.obj
 0001:00095790       ?setContactOffset@Shape@Scb@physx@@QAEXM@Z 10096790 f i NpShape.obj
 0001:00095900       ?setFlags@Shape@Scb@physx@@QAEXV?$PxFlags@W4Enum@PxShapeFlag@physx@@E@3@@Z 10096900 f i NpShape.obj
 0001:00095a80       ?setGeometry@Shape@Scb@physx@@QAEPAUShapeBuffer@23@ABVPxGeometry@3@@Z 10096a80 f i NpShape.obj
 0001:00095be0       ?setMaterials@Shape@Scb@physx@@QAE_NPBQAVPxMaterial@3@G@Z 10096be0 f i NpShape.obj
 0001:00095d30       ?setRestOffset@Shape@Scb@physx@@QAEXM@Z 10096d30 f i NpShape.obj
 0001:00095ea0       ?setShape2Actor@Shape@Scb@physx@@QAEXABVPxTransform@3@@Z 10096ea0 f i NpShape.obj
 0001:00096040       ?setSimulationFilterData@Shape@Scb@physx@@QAEXABUPxFilterData@3@@Z 10097040 f i NpShape.obj
 0001:000961b0       ??0NpShapeManager@physx@@QAE@ABW4PxEMPTY@1@@Z 100971b0 f   NpShapeManager.obj
 0001:000961f0       ?exportExtraData@NpShapeManager@physx@@QAEXAAVPxSerializationContext@2@@Z 100971f0 f   NpShapeManager.obj
 0001:00096210       ?importExtraData@NpShapeManager@physx@@QAEXAAVPxDeserializationContext@2@@Z 10097210 f   NpShapeManager.obj
 0001:00096230       ??0NpShapeManager@physx@@QAE@XZ 10097230 f   NpShapeManager.obj
 0001:00096250       ??1NpShapeManager@physx@@QAE@XZ 10097250 f   NpShapeManager.obj
 0001:00096290       ?getShapes@NpShapeManager@physx@@QBEIPAPAVPxShape@2@II@Z 10097290 f   NpShapeManager.obj
 0001:000962e0       ?attachShape@NpShapeManager@physx@@QAEXAAVNpShape@2@AAVPxRigidActor@2@@Z 100972e0 f   NpShapeManager.obj
 0001:000963a0       ?detachShape@NpShapeManager@physx@@QAEXAAVNpShape@2@AAVPxRigidActor@2@_N@Z 100973a0 f   NpShapeManager.obj
 0001:00096490       ?shapeIsAttached@NpShapeManager@physx@@QBE_NAAVNpShape@2@@Z 10097490 f   NpShapeManager.obj
 0001:000964b0       ?detachAll@NpShapeManager@physx@@QAEXPAVNpScene@2@@Z 100974b0 f   NpShapeManager.obj
 0001:00096560       ?teardownSceneQuery@NpShapeManager@physx@@QAEXAAVSceneQueryManager@Sq@2@ABVNpShape@2@@Z 10097560 f   NpShapeManager.obj
 0001:000965b0       ?setupSceneQuery@NpShapeManager@physx@@QAEXAAVSceneQueryManager@Sq@2@ABVPxRigidActor@2@ABVNpShape@2@@Z 100975b0 f   NpShapeManager.obj
 0001:00096610       ?setupAllSceneQuery@NpShapeManager@physx@@QAEXABVPxRigidActor@2@@Z 10097610 f   NpShapeManager.obj
 0001:000966b0       ?teardownAllSceneQuery@NpShapeManager@physx@@QAEXAAVSceneQueryManager@Sq@2@@Z 100976b0 f   NpShapeManager.obj
 0001:00096780       ?markAllSceneQueryForUpdate@NpShapeManager@physx@@QAEXAAVSceneQueryManager@Sq@2@@Z 10097780 f   NpShapeManager.obj
 0001:000967c0       ?findSceneQueryData@NpShapeManager@physx@@QAEPAUActorShape@Sq@2@ABVNpShape@2@@Z 100977c0 f   NpShapeManager.obj
 0001:000967f0       ?getWorldBounds@NpShapeManager@physx@@QBE?AVPxBounds3@2@ABVPxRigidActor@2@@Z 100977f0 f   NpShapeManager.obj
 0001:00096b10       ?clearShapesOnRelease@NpShapeManager@physx@@QAEXAAVScene@Scb@2@AAVPxRigidActor@2@@Z 10097b10 f   NpShapeManager.obj
 0001:00096b70       ?releaseExclusiveUserReferences@NpShapeManager@physx@@QAEXXZ 10097b70 f   NpShapeManager.obj
 0001:00096bc0       ?visualize@NpShapeManager@physx@@QAEXAAVRenderOutput@Cm@2@PAVNpScene@2@ABVPxRigidActor@2@@Z 10097bc0 f   NpShapeManager.obj
 0001:00097010       ?setupSceneQuery@NpShapeManager@physx@@IAEXAAVSceneQueryManager@Sq@2@ABVPxRigidActor@2@I@Z 10098010 f   NpShapeManager.obj
 0001:00097070       ?teardownSceneQuery@NpShapeManager@physx@@IAEXAAVSceneQueryManager@Sq@2@I@Z 10098070 f   NpShapeManager.obj
 0001:00097480       ?findAndReplaceWithLast@?$Array@PAVShape@Scb@physx@@V?$InlineAllocator@$0BA@VNamedAllocator@shdfnd@physx@@@shdfnd@3@@shdfnd@physx@@QAE_NABQAVShape@Scb@3@@Z 10098480 f i NpShapeManager.obj
 0001:000974e0       ?findAndReplaceWithLast@?$Array@URemovedShape@Scb@physx@@V?$InlineAllocator@$0CA@VNamedAllocator@shdfnd@physx@@@shdfnd@3@@shdfnd@physx@@QAE_NABURemovedShape@Scb@3@@Z 100984e0 f i NpShapeManager.obj
 0001:00097540       ?growAndPushBack@?$Array@PAVShape@Scb@physx@@V?$InlineAllocator@$0BA@VNamedAllocator@shdfnd@physx@@@shdfnd@3@@shdfnd@physx@@IAEAAPAVShape@Scb@3@ABQAV453@@Z 10098540 f i NpShapeManager.obj
 0001:00097660       ?growAndPushBack@?$Array@URemovedShape@Scb@physx@@V?$InlineAllocator@$0CA@VNamedAllocator@shdfnd@physx@@@shdfnd@3@@shdfnd@physx@@IAEAAURemovedShape@Scb@3@ABU453@@Z 10098660 f i NpShapeManager.obj
 0001:00097790       ?onShapeAttach@RigidObject@Scb@physx@@QAEXAAVShape@23@@Z 10098790 f i NpShapeManager.obj
 0001:000979a0       ?onShapeDetach@RigidObject@Scb@physx@@QAEXAAVShape@23@_N1@Z 100989a0 f i NpShapeManager.obj
 0001:00097d10       ?PxCreateSpatialIndex@physx@@YAPAVPxSpatialIndex@1@XZ 10098d10 f   NpSpatialIndex.obj
 0001:00097d70       ??0NpSpatialIndex@physx@@QAE@XZ 10098d70 f   NpSpatialIndex.obj
 0001:00097df0       ??1NpSpatialIndex@physx@@UAE@XZ 10098df0 f   NpSpatialIndex.obj
 0001:00097e10       ?insert@NpSpatialIndex@physx@@UAEIAAVPxSpatialIndexItem@2@ABVPxBounds3@2@@Z 10098e10 f   NpSpatialIndex.obj
 0001:00098120       ?update@NpSpatialIndex@physx@@UAEXIABVPxBounds3@2@@Z 10099120 f   NpSpatialIndex.obj
 0001:00098420       ?remove@NpSpatialIndex@physx@@UAEXI@Z 10099420 f   NpSpatialIndex.obj
 0001:00098460       ?getBounds@NpSpatialIndex@physx@@UBE?AVPxBounds3@2@I@Z 10099460 f   NpSpatialIndex.obj
 0001:00098470       ?overlap@NpSpatialIndex@physx@@UBEXABVPxBounds3@2@AAUPxSpatialOverlapCallback@2@@Z 10099470 f   NpSpatialIndex.obj
 0001:00098850       ?raycast@NpSpatialIndex@physx@@UBEXABVPxVec3@2@0MAAUPxSpatialLocationCallback@2@@Z 10099850 f   NpSpatialIndex.obj
 0001:00098c20       ?sweep@NpSpatialIndex@physx@@UBEXABVPxBounds3@2@ABVPxVec3@2@MAAUPxSpatialLocationCallback@2@@Z 10099c20 f   NpSpatialIndex.obj
 0001:000992c0       ?rebuildFull@NpSpatialIndex@physx@@UAEXXZ 1009a2c0 f   NpSpatialIndex.obj
 0001:00099300       ?setIncrementalRebuildRate@NpSpatialIndex@physx@@UAEXI@Z 1009a300 f   NpSpatialIndex.obj
 0001:00099310       ?rebuildStep@NpSpatialIndex@physx@@UAEXXZ 1009a310 f   NpSpatialIndex.obj
 0001:00099350       ?release@NpSpatialIndex@physx@@UAEXXZ 1009a350 f   NpSpatialIndex.obj
 0001:00099360       ?flushUpdates@NpSpatialIndex@physx@@ABEXXZ 1009a360 f   NpSpatialIndex.obj
 0001:00099910       ??1PxSpatialIndex@physx@@MAE@XZ 1009a910 f i NpSpatialIndex.obj
 0001:00099920       ??_ELocationCallback@?A0x4ff4eaf2@physx@@UAEPAXI@Z 1009a920 f i NpSpatialIndex.obj
 0001:00099920       ??_GLocationCallback@?A0x4ff4eaf2@physx@@UAEPAXI@Z 1009a920 f i NpSpatialIndex.obj
 0001:00099950       ??_ENpSpatialIndex@physx@@UAEPAXI@Z 1009a950 f i NpSpatialIndex.obj
 0001:00099950       ??_GNpSpatialIndex@physx@@UAEPAXI@Z 1009a950 f i NpSpatialIndex.obj
 0001:000999c0       ??_EOverlapCallback@?A0x4ff4eaf2@physx@@UAEPAXI@Z 1009a9c0 f i NpSpatialIndex.obj
 0001:000999c0       ??_GOverlapCallback@?A0x4ff4eaf2@physx@@UAEPAXI@Z 1009a9c0 f i NpSpatialIndex.obj
 0001:000999f0       ??_GPxSpatialIndex@physx@@MAEPAXI@Z 1009a9f0 f i NpSpatialIndex.obj
 0001:000999f0       ??_EPxSpatialIndex@physx@@MAEPAXI@Z 1009a9f0 f i NpSpatialIndex.obj
 0001:00099a20       ?flush@NpSpatialIndex@physx@@UAEXXZ 1009aa20 f i NpSpatialIndex.obj
 0001:00099b10       ??0NpVolumeCache@physx@@QAE@PAVSceneQueryManager@Sq@1@II@Z 1009ab10 f   NpVolumeCache.obj
 0001:00099bc0       ??1NpVolumeCache@physx@@UAE@XZ 1009abc0 f   NpVolumeCache.obj
 0001:00099c20       ?isValid@NpVolumeCache@physx@@UBE_NXZ 1009ac20 f   NpVolumeCache.obj
 0001:00099c50       ?isValid@NpVolumeCache@physx@@QBE_NI@Z 1009ac50 f   NpVolumeCache.obj
 0001:00099c90       ?fill@NpVolumeCache@physx@@UAE?AW4FillStatus@PxVolumeCache@2@ABVPxGeometry@2@ABVPxTransform@2@@Z 1009ac90 f   NpVolumeCache.obj
 0001:00099d80       ?fillInternal@NpVolumeCache@physx@@QAE?AW4FillStatus@PxVolumeCache@2@IPBUPxOverlapHit@2@H@Z 1009ad80 f   NpVolumeCache.obj
 0001:0009a010       ?getCacheVolume@NpVolumeCache@physx@@UAE_NAAVPxGeometryHolder@2@AAVPxTransform@2@@Z 1009b010 f   NpVolumeCache.obj
 0001:0009a070       ?getNbCachedShapes@NpVolumeCache@physx@@UAEHXZ 1009b070 f   NpVolumeCache.obj
 0001:0009a090       ?invalidate@NpVolumeCache@physx@@UAEXXZ 1009b090 f   NpVolumeCache.obj
 0001:0009a0b0       ?release@NpVolumeCache@physx@@UAEXXZ 1009b0b0 f   NpVolumeCache.obj
 0001:0009a0d0       ?forEach@NpVolumeCache@physx@@UAEXAAUIterator@PxVolumeCache@2@@Z 1009b0d0 f   NpVolumeCache.obj
 0001:0009a260       ?setMaxNbStaticShapes@NpVolumeCache@physx@@UAEXI@Z 1009b260 f   NpVolumeCache.obj
 0001:0009a2a0       ?getMaxNbStaticShapes@NpVolumeCache@physx@@UAEIXZ 1009b2a0 f   NpVolumeCache.obj
 0001:0009a2b0       ?setMaxNbDynamicShapes@NpVolumeCache@physx@@UAEXI@Z 1009b2b0 f   NpVolumeCache.obj
 0001:0009a2f0       ?getMaxNbDynamicShapes@NpVolumeCache@physx@@UAEIXZ 1009b2f0 f   NpVolumeCache.obj
 0001:0009a300       ?raycast@NpVolumeCache@physx@@UBE_NABVPxVec3@2@0MAAU?$PxHitCallback@UPxRaycastHit@physx@@@2@V?$PxFlags@W4Enum@PxHitFlag@physx@@G@2@ABUPxQueryFilterData@2@PAVPxQueryFilterCallback@2@@Z 1009b300 f   NpVolumeCache.obj
 0001:0009a390       ?sweep@NpVolumeCache@physx@@UBE_NABVPxGeometry@2@ABVPxTransform@2@ABVPxVec3@2@MAAU?$PxHitCallback@UPxSweepHit@physx@@@2@V?$PxFlags@W4Enum@PxHitFlag@physx@@G@2@ABUPxQueryFilterData@2@PAVPxQueryFilterCallback@2@M@Z 1009b390 f   NpVolumeCache.obj
 0001:0009a420       ?overlap@NpVolumeCache@physx@@UBE_NABVPxGeometry@2@ABVPxTransform@2@AAU?$PxHitCallback@UPxOverlapHit@physx@@@2@ABUPxQueryFilterData@2@PAVPxQueryFilterCallback@2@@Z 1009b420 f   NpVolumeCache.obj
 0001:0009a4a0       ?onOriginShift@NpVolumeCache@physx@@QAEXABVPxVec3@2@@Z 1009b4a0 f   NpVolumeCache.obj
 0001:0009a930       ??$multiQuery@UPxOverlapHit@physx@@@NpVolumeCache@physx@@QBE_NABUMultiQueryInput@1@AAU?$PxHitCallback@UPxOverlapHit@physx@@@1@V?$PxFlags@W4Enum@PxHitFlag@physx@@G@1@ABUPxQueryFilterData@1@PAVPxQueryFilterCallback@1@M@Z 1009b930 f i NpVolumeCache.obj
 0001:0009b020       ??$multiQuery@UPxRaycastHit@physx@@@NpVolumeCache@physx@@QBE_NABUMultiQueryInput@1@AAU?$PxHitCallback@UPxRaycastHit@physx@@@1@V?$PxFlags@W4Enum@PxHitFlag@physx@@G@1@ABUPxQueryFilterData@1@PAVPxQueryFilterCallback@1@M@Z 1009c020 f i NpVolumeCache.obj
 0001:0009bc70       ??$multiQuery@UPxSweepHit@physx@@@NpVolumeCache@physx@@QBE_NABUMultiQueryInput@1@AAU?$PxHitCallback@UPxSweepHit@physx@@@1@V?$PxFlags@W4Enum@PxHitFlag@physx@@G@1@ABUPxQueryFilterData@1@PAVPxQueryFilterCallback@1@M@Z 1009cc70 f i NpVolumeCache.obj
 0001:0009c900       ??1?$Array@UPxActorShape@physx@@VNamedAllocator@shdfnd@2@@shdfnd@physx@@QAE@XZ 1009d900 f i NpVolumeCache.obj
 0001:0009c930       ??1PxVolumeCache@physx@@MAE@XZ 1009d930 f i NpVolumeCache.obj
 0001:0009c940       ??_F?$Array@UPxActorShape@physx@@VNamedAllocator@shdfnd@2@@shdfnd@physx@@QAEXXZ 1009d940 f i NpVolumeCache.obj
 0001:0009c990       ??_ENpVolumeCache@physx@@UAEPAXI@Z 1009d990 f i NpVolumeCache.obj
 0001:0009c990       ??_GNpVolumeCache@physx@@UAEPAXI@Z 1009d990 f i NpVolumeCache.obj
 0001:0009c9e0       ??_ENpVolumeCacheSqCallback@physx@@UAEPAXI@Z 1009d9e0 f i NpVolumeCache.obj
 0001:0009c9e0       ??_GNpVolumeCacheSqCallback@physx@@UAEPAXI@Z 1009d9e0 f i NpVolumeCache.obj
 0001:0009ca10       ??_GPxVolumeCache@physx@@MAEPAXI@Z 1009da10 f i NpVolumeCache.obj
 0001:0009ca10       ??_EPxVolumeCache@physx@@MAEPAXI@Z 1009da10 f i NpVolumeCache.obj
 0001:0009ca40       ?doQuery@?$SceneQueryAny@UPxSweepHit@physx@@@physx@@SA_NPAVPxScene@2@ABUMultiQueryInput@2@AAU?$PxHitCallback@UPxSweepHit@physx@@@2@V?$PxFlags@W4Enum@PxHitFlag@physx@@G@2@ABUPxQueryFilterData@2@PAVPxQueryFilterCallback@2@@Z 1009da40 f i NpVolumeCache.obj
 0001:0009cb30       ?growAndPushBack@?$Array@UPxActorShape@physx@@VNamedAllocator@shdfnd@2@@shdfnd@physx@@IAEAAUPxActorShape@3@ABU43@@Z 1009db30 f i NpVolumeCache.obj
 0001:0009cc30       ?processTouches@NpVolumeCacheSqCallback@physx@@UAE_NPBUPxOverlapHit@2@I@Z 1009dc30 f i NpVolumeCache.obj
 0001:0009ccc0       ?recreate@?$Array@UPxActorShape@physx@@VNamedAllocator@shdfnd@2@@shdfnd@physx@@IAEXI@Z 1009dcc0 f i NpVolumeCache.obj
 0001:0009cd80       ?resize@?$Array@UPxActorShape@physx@@VNamedAllocator@shdfnd@2@@shdfnd@physx@@QAEXIABUPxActorShape@3@@Z 1009dd80 f i NpVolumeCache.obj
 0001:0009cdf0       ??0NpWriteCheck@physx@@QAE@PAVNpScene@1@PBD_N@Z 1009ddf0 f   NpWriteCheck.obj
 0001:0009ce90       ??1NpWriteCheck@physx@@QAE@XZ 1009de90 f   NpWriteCheck.obj
 0001:0009cf60       ??0PxMaterialGeneratedValues@physx@@QAE@PBVPxMaterial@1@@Z 1009df60 f   PxAutoGeneratedMetaDataObjects.obj
 0001:0009cfd0       ??0PxMaterialGeneratedInfo@physx@@QAE@XZ 1009dfd0 f   PxAutoGeneratedMetaDataObjects.obj
 0001:0009d0d0       ??0PxActorGeneratedValues@physx@@QAE@PBVPxActor@1@@Z 1009e0d0 f   PxAutoGeneratedMetaDataObjects.obj
 0001:0009d140       ??0PxActorGeneratedInfo@physx@@QAE@XZ 1009e140 f   PxAutoGeneratedMetaDataObjects.obj
 0001:0009d220       ??0PxRigidActorGeneratedValues@physx@@QAE@PBVPxRigidActor@1@@Z 1009e220 f   PxAutoGeneratedMetaDataObjects.obj
 0001:0009d290       ??0PxRigidActorGeneratedInfo@physx@@QAE@XZ 1009e290 f   PxAutoGeneratedMetaDataObjects.obj
 0001:0009d310       ??0PxRigidBodyGeneratedValues@physx@@QAE@PBVPxRigidBody@1@@Z 1009e310 f   PxAutoGeneratedMetaDataObjects.obj
 0001:0009d3d0       ??0PxRigidBodyGeneratedInfo@physx@@QAE@XZ 1009e3d0 f   PxAutoGeneratedMetaDataObjects.obj
 0001:0009d580       ??0PxRigidDynamicGeneratedValues@physx@@QAE@PBVPxRigidDynamic@1@@Z 1009e580 f   PxAutoGeneratedMetaDataObjects.obj
 0001:0009d650       ??0PxRigidDynamicGeneratedInfo@physx@@QAE@XZ 1009e650 f   PxAutoGeneratedMetaDataObjects.obj
 0001:0009d810       ??0PxRigidStaticGeneratedValues@physx@@QAE@PBVPxRigidStatic@1@@Z 1009e810 f   PxAutoGeneratedMetaDataObjects.obj
 0001:0009d840       ??0PxRigidStaticGeneratedInfo@physx@@QAE@XZ 1009e840 f   PxAutoGeneratedMetaDataObjects.obj
 0001:0009d870       ??0PxArticulationLinkGeneratedValues@physx@@QAE@PBVPxArticulationLink@1@@Z 1009e870 f   PxAutoGeneratedMetaDataObjects.obj
 0001:0009d8b0       ??0PxArticulationLinkGeneratedInfo@physx@@QAE@XZ 1009e8b0 f   PxAutoGeneratedMetaDataObjects.obj
 0001:0009d920       ??0PxArticulationJointGeneratedValues@physx@@QAE@PBVPxArticulationJoint@1@@Z 1009e920 f   PxAutoGeneratedMetaDataObjects.obj
 0001:0009da20       ??0PxArticulationJointGeneratedInfo@physx@@QAE@XZ 1009ea20 f   PxAutoGeneratedMetaDataObjects.obj
 0001:0009dcb0       ??0PxArticulationGeneratedValues@physx@@QAE@PBVPxArticulation@1@@Z 1009ecb0 f   PxAutoGeneratedMetaDataObjects.obj
 0001:0009dd60       ??0PxArticulationGeneratedInfo@physx@@QAE@XZ 1009ed60 f   PxAutoGeneratedMetaDataObjects.obj
 0001:0009df50       ??0PxAggregateGeneratedValues@physx@@QAE@PBVPxAggregate@1@@Z 1009ef50 f   PxAutoGeneratedMetaDataObjects.obj
 0001:0009df90       ??0PxAggregateGeneratedInfo@physx@@QAE@XZ 1009ef90 f   PxAutoGeneratedMetaDataObjects.obj
 0001:0009dff0       ??0PxConstraintGeneratedValues@physx@@QAE@PBVPxConstraint@1@@Z 1009eff0 f   PxAutoGeneratedMetaDataObjects.obj
 0001:0009e050       ??0PxConstraintGeneratedInfo@physx@@QAE@XZ 1009f050 f   PxAutoGeneratedMetaDataObjects.obj
 0001:0009e110       ??0PxShapeGeneratedValues@physx@@QAE@PBVPxShape@1@@Z 1009f110 f   PxAutoGeneratedMetaDataObjects.obj
 0001:0009e1b0       ??0PxShapeGeneratedInfo@physx@@QAE@XZ 1009f1b0 f   PxAutoGeneratedMetaDataObjects.obj
 0001:0009e340       ??0PxClothFabricGeneratedValues@physx@@QAE@PBVPxClothFabric@1@@Z 1009f340 f   PxAutoGeneratedMetaDataObjects.obj
 0001:0009e370       ??0PxClothFabricGeneratedInfo@physx@@QAE@XZ 1009f370 f   PxAutoGeneratedMetaDataObjects.obj
 0001:0009e430       ??0PxClothGeneratedValues@physx@@QAE@PBVPxCloth@1@@Z 1009f430 f   PxAutoGeneratedMetaDataObjects.obj
 0001:0009e6f0       ??0PxClothGeneratedInfo@physx@@QAE@XZ 1009f6f0 f   PxAutoGeneratedMetaDataObjects.obj
 0001:0009eb60       ??0PxParticleBaseGeneratedValues@physx@@QAE@PBVPxParticleBase@1@@Z 1009fb60 f   PxAutoGeneratedMetaDataObjects.obj
 0001:0009ecc0       ??0PxParticleBaseGeneratedInfo@physx@@QAE@XZ 1009fcc0 f   PxAutoGeneratedMetaDataObjects.obj
 0001:0009eef0       ??0PxParticleFluidGeneratedValues@physx@@QAE@PBVPxParticleFluid@1@@Z 1009fef0 f   PxAutoGeneratedMetaDataObjects.obj
 0001:0009ef50       ??0PxParticleFluidGeneratedInfo@physx@@QAE@XZ 1009ff50 f   PxAutoGeneratedMetaDataObjects.obj
 0001:0009f000       ??0PxParticleSystemGeneratedValues@physx@@QAE@PBVPxParticleSystem@1@@Z 100a0000 f   PxAutoGeneratedMetaDataObjects.obj
 0001:0009f030       ??0PxParticleSystemGeneratedInfo@physx@@QAE@XZ 100a0030 f   PxAutoGeneratedMetaDataObjects.obj
 0001:0009f060       ??0PxPhysicsGeneratedValues@physx@@QAE@PBVPxPhysics@1@@Z 100a0060 f   PxAutoGeneratedMetaDataObjects.obj
 0001:0009f090       ??0PxPhysicsGeneratedInfo@physx@@QAE@XZ 100a0090 f   PxAutoGeneratedMetaDataObjects.obj
 0001:0009f190       ??0PxTolerancesScaleGeneratedValues@physx@@QAE@PBVPxTolerancesScale@1@@Z 100a0190 f   PxAutoGeneratedMetaDataObjects.obj
 0001:0009f1d0       ??0PxTolerancesScaleGeneratedInfo@physx@@QAE@XZ 100a01d0 f   PxAutoGeneratedMetaDataObjects.obj
 0001:0009f240       ??0PxSceneGeneratedValues@physx@@QAE@PBVPxScene@1@@Z 100a0240 f   PxAutoGeneratedMetaDataObjects.obj
 0001:0009f470       ??0PxSceneGeneratedInfo@physx@@QAE@XZ 100a0470 f   PxAutoGeneratedMetaDataObjects.obj
 0001:0009f990       ??0PxGeometryGeneratedValues@physx@@QAE@PBVPxGeometry@1@@Z 100a0990 f   PxAutoGeneratedMetaDataObjects.obj
 0001:0009f9a0       ??0PxGeometryGeneratedInfo@physx@@QAE@XZ 100a09a0 f   PxAutoGeneratedMetaDataObjects.obj
 0001:0009f9b0       ??0PxBoxGeometryGeneratedValues@physx@@QAE@PBVPxBoxGeometry@1@@Z 100a09b0 f   PxAutoGeneratedMetaDataObjects.obj
 0001:0009f9d0       ??0PxBoxGeometryGeneratedInfo@physx@@QAE@XZ 100a09d0 f   PxAutoGeneratedMetaDataObjects.obj
 0001:0009f9f0       ??0PxCapsuleGeometryGeneratedValues@physx@@QAE@PBVPxCapsuleGeometry@1@@Z 100a09f0 f   PxAutoGeneratedMetaDataObjects.obj
 0001:0009fa10       ??0PxCapsuleGeometryGeneratedInfo@physx@@QAE@XZ 100a0a10 f   PxAutoGeneratedMetaDataObjects.obj
 0001:0009fa50       ??0PxMeshScaleGeneratedValues@physx@@QAE@PBVPxMeshScale@1@@Z 100a0a50 f   PxAutoGeneratedMetaDataObjects.obj
 0001:0009fa90       ??0PxMeshScaleGeneratedInfo@physx@@QAE@XZ 100a0a90 f   PxAutoGeneratedMetaDataObjects.obj
 0001:0009fad0       ??0PxConvexMeshGeometryGeneratedValues@physx@@QAE@PBVPxConvexMeshGeometry@1@@Z 100a0ad0 f   PxAutoGeneratedMetaDataObjects.obj
 0001:0009fb10       ??0PxConvexMeshGeometryGeneratedInfo@physx@@QAE@XZ 100a0b10 f   PxAutoGeneratedMetaDataObjects.obj
 0001:0009fb50       ??0PxSphereGeometryGeneratedValues@physx@@QAE@PBVPxSphereGeometry@1@@Z 100a0b50 f   PxAutoGeneratedMetaDataObjects.obj
 0001:0009fbb0       ??0PxSphereGeometryGeneratedInfo@physx@@QAE@XZ 100a0bb0 f   PxAutoGeneratedMetaDataObjects.obj
 0001:0009fbf0       ??0PxPlaneGeometryGeneratedValues@physx@@QAE@PBVPxPlaneGeometry@1@@Z 100a0bf0 f   PxAutoGeneratedMetaDataObjects.obj
 0001:0009fc00       ??0PxPlaneGeometryGeneratedInfo@physx@@QAE@XZ 100a0c00 f   PxAutoGeneratedMetaDataObjects.obj
 0001:0009fc10       ??0PxTriangleMeshGeometryGeneratedValues@physx@@QAE@PBVPxTriangleMeshGeometry@1@@Z 100a0c10 f   PxAutoGeneratedMetaDataObjects.obj
 0001:0009fc60       ??0PxTriangleMeshGeometryGeneratedInfo@physx@@QAE@XZ 100a0c60 f   PxAutoGeneratedMetaDataObjects.obj
 0001:0009fcc0       ??0PxHeightFieldGeometryGeneratedValues@physx@@QAE@PBVPxHeightFieldGeometry@1@@Z 100a0cc0 f   PxAutoGeneratedMetaDataObjects.obj
 0001:0009fcf0       ??0PxHeightFieldGeometryGeneratedInfo@physx@@QAE@XZ 100a0cf0 f   PxAutoGeneratedMetaDataObjects.obj
 0001:0009fd80       ??0PxHeightFieldDescGeneratedValues@physx@@QAE@PBVPxHeightFieldDesc@1@@Z 100a0d80 f   PxAutoGeneratedMetaDataObjects.obj
 0001:0009fe20       ??0PxHeightFieldDescGeneratedInfo@physx@@QAE@XZ 100a0e20 f   PxAutoGeneratedMetaDataObjects.obj
 0001:0009ff00       ??0PxClothParticleGeneratedValues@physx@@QAE@PBUPxClothParticle@1@@Z 100a0f00 f   PxAutoGeneratedMetaDataObjects.obj
 0001:0009ff30       ??0PxClothParticleGeneratedInfo@physx@@QAE@XZ 100a0f30 f   PxAutoGeneratedMetaDataObjects.obj
 0001:0009ff70       ??0PxClothFabricPhaseGeneratedValues@physx@@QAE@PBUPxClothFabricPhase@1@@Z 100a0f70 f   PxAutoGeneratedMetaDataObjects.obj
 0001:0009ff90       ??0PxClothFabricPhaseGeneratedInfo@physx@@QAE@XZ 100a0f90 f   PxAutoGeneratedMetaDataObjects.obj
 0001:0009ffd0       ??0PxSceneLimitsGeneratedValues@physx@@QAE@PBVPxSceneLimits@1@@Z 100a0fd0 f   PxAutoGeneratedMetaDataObjects.obj
 0001:000a0010       ??0PxSceneLimitsGeneratedInfo@physx@@QAE@XZ 100a1010 f   PxAutoGeneratedMetaDataObjects.obj
 0001:000a0100       ??0PxSceneDescGeneratedValues@physx@@QAE@PBVPxSceneDesc@1@@Z 100a1100 f   PxAutoGeneratedMetaDataObjects.obj
 0001:000a0270       ??0PxSceneDescGeneratedInfo@physx@@QAE@XZ 100a1270 f   PxAutoGeneratedMetaDataObjects.obj
 0001:000a0750       ??0PxSimulationStatisticsGeneratedValues@physx@@QAE@PBVPxSimulationStatistics@1@@Z 100a1750 f   PxAutoGeneratedMetaDataObjects.obj
 0001:000a0860       ??0PxSimulationStatisticsGeneratedInfo@physx@@QAE@XZ 100a1860 f   PxAutoGeneratedMetaDataObjects.obj
 0001:000a0a60       ??0PxLockedDataGeneratedValues@physx@@QAE@PBVPxLockedData@1@@Z 100a1a60 f   PxAutoGeneratedMetaDataObjects.obj
 0001:000a0a70       ??0PxLockedDataGeneratedInfo@physx@@QAE@XZ 100a1a70 f   PxAutoGeneratedMetaDataObjects.obj
 0001:000a0a80       ??0PxParticleReadDataGeneratedValues@physx@@QAE@PBVPxParticleReadData@1@@Z 100a1a80 f   PxAutoGeneratedMetaDataObjects.obj
 0001:000a0af0       ??0PxParticleReadDataGeneratedInfo@physx@@QAE@XZ 100a1af0 f   PxAutoGeneratedMetaDataObjects.obj
 0001:000a0c00       ??0PxClothStretchConfigGeneratedValues@physx@@QAE@PBUPxClothStretchConfig@1@@Z 100a1c00 f   PxAutoGeneratedMetaDataObjects.obj
 0001:000a0c30       ??0PxClothStretchConfigGeneratedInfo@physx@@QAE@XZ 100a1c30 f   PxAutoGeneratedMetaDataObjects.obj
 0001:000a0cb0       ??0PxClothTetherConfigGeneratedValues@physx@@QAE@PBUPxClothTetherConfig@1@@Z 100a1cb0 f   PxAutoGeneratedMetaDataObjects.obj
 0001:000a0cd0       ??0PxClothTetherConfigGeneratedInfo@physx@@QAE@XZ 100a1cd0 f   PxAutoGeneratedMetaDataObjects.obj
 0001:000a0d10       ??0PxClothMotionConstraintConfigGeneratedValues@physx@@QAE@PBUPxClothMotionConstraintConfig@1@@Z 100a1d10 f   PxAutoGeneratedMetaDataObjects.obj
 0001:000a0d30       ??0PxClothMotionConstraintConfigGeneratedInfo@physx@@QAE@XZ 100a1d30 f   PxAutoGeneratedMetaDataObjects.obj
 0001:000a0d90       ??0PxClothParticleDataGeneratedValues@physx@@QAE@PBVPxClothParticleData@1@@Z 100a1d90 f   PxAutoGeneratedMetaDataObjects.obj
 0001:000a0db0       ??0PxClothParticleDataGeneratedInfo@physx@@QAE@XZ 100a1db0 f   PxAutoGeneratedMetaDataObjects.obj
 0001:000a0df0       ?getPxMaterial_ReferenceCount@@YAIPBVPxMaterial@physx@@@Z 100a1df0 f   PxAutoGeneratedMetaDataObjects.obj
 0001:000a0e00       ?setPxMaterial_DynamicFriction@@YAXPAVPxMaterial@physx@@M@Z 100a1e00 f   PxAutoGeneratedMetaDataObjects.obj
 0001:000a0e20       ?getPxMaterial_DynamicFriction@@YAMPBVPxMaterial@physx@@@Z 100a1e20 f   PxAutoGeneratedMetaDataObjects.obj
 0001:000a0e30       ?setPxMaterial_StaticFriction@@YAXPAVPxMaterial@physx@@M@Z 100a1e30 f   PxAutoGeneratedMetaDataObjects.obj
 0001:000a0e50       ?getPxMaterial_StaticFriction@@YAMPBVPxMaterial@physx@@@Z 100a1e50 f   PxAutoGeneratedMetaDataObjects.obj
 0001:000a0e60       ?setPxMaterial_Restitution@@YAXPAVPxMaterial@physx@@M@Z 100a1e60 f   PxAutoGeneratedMetaDataObjects.obj
 0001:000a0e80       ?getPxMaterial_Restitution@@YAMPBVPxMaterial@physx@@@Z 100a1e80 f   PxAutoGeneratedMetaDataObjects.obj
 0001:000a0e90       ?setPxMaterial_Flags@@YAXPAVPxMaterial@physx@@V?$PxFlags@W4Enum@PxMaterialFlag@physx@@G@2@@Z 100a1e90 f   PxAutoGeneratedMetaDataObjects.obj
 0001:000a0eb0       ?getPxMaterial_Flags@@YA?AV?$PxFlags@W4Enum@PxMaterialFlag@physx@@G@physx@@PBVPxMaterial@2@@Z 100a1eb0 f   PxAutoGeneratedMetaDataObjects.obj
 0001:000a0ed0       ?setPxMaterial_FrictionCombineMode@@YAXPAVPxMaterial@physx@@W4Enum@PxCombineMode@2@@Z 100a1ed0 f   PxAutoGeneratedMetaDataObjects.obj
 0001:000a0ee0       ?getPxMaterial_FrictionCombineMode@@YA?AW4Enum@PxCombineMode@physx@@PBVPxMaterial@3@@Z 100a1ee0 f   PxAutoGeneratedMetaDataObjects.obj
 0001:000a0ef0       ?setPxMaterial_RestitutionCombineMode@@YAXPAVPxMaterial@physx@@W4Enum@PxCombineMode@2@@Z 100a1ef0 f   PxAutoGeneratedMetaDataObjects.obj
 0001:000a0f00       ?getPxMaterial_RestitutionCombineMode@@YA?AW4Enum@PxCombineMode@physx@@PBVPxMaterial@3@@Z 100a1f00 f   PxAutoGeneratedMetaDataObjects.obj
 0001:000a0f10       ?getPxMaterial_ConcreteTypeName@@YAPBDPBVPxMaterial@physx@@@Z 100a1f10 f   PxAutoGeneratedMetaDataObjects.obj
 0001:000a0f20       ?getPxActor_Scene@@YAPAVPxScene@physx@@PBVPxActor@2@@Z 100a1f20 f   PxAutoGeneratedMetaDataObjects.obj
 0001:000a0f30       ?setPxActor_Name@@YAXPAVPxActor@physx@@PBD@Z 100a1f30 f   PxAutoGeneratedMetaDataObjects.obj
 0001:000a0f40       ?getPxActor_Name@@YAPBDPBVPxActor@physx@@@Z 100a1f40 f   PxAutoGeneratedMetaDataObjects.obj
 0001:000a0f50       ?setPxActor_ActorFlags@@YAXPAVPxActor@physx@@V?$PxFlags@W4Enum@PxActorFlag@physx@@G@2@@Z 100a1f50 f   PxAutoGeneratedMetaDataObjects.obj
 0001:000a0f70       ?getPxActor_ActorFlags@@YA?AV?$PxFlags@W4Enum@PxActorFlag@physx@@G@physx@@PBVPxActor@2@@Z 100a1f70 f   PxAutoGeneratedMetaDataObjects.obj
 0001:000a0f90       ?setPxActor_DominanceGroup@@YAXPAVPxActor@physx@@E@Z 100a1f90 f   PxAutoGeneratedMetaDataObjects.obj
 0001:000a0fa0       ?getPxActor_DominanceGroup@@YAEPBVPxActor@physx@@@Z 100a1fa0 f   PxAutoGeneratedMetaDataObjects.obj
 0001:000a0fb0       ?setPxActor_OwnerClient@@YAXPAVPxActor@physx@@E@Z 100a1fb0 f   PxAutoGeneratedMetaDataObjects.obj
 0001:000a0fc0       ?getPxActor_OwnerClient@@YAEPBVPxActor@physx@@@Z 100a1fc0 f   PxAutoGeneratedMetaDataObjects.obj
 0001:000a0fd0       ?setPxActor_ClientBehaviorFlags@@YAXPAVPxActor@physx@@V?$PxFlags@W4Enum@PxActorClientBehaviorFlag@physx@@E@2@@Z 100a1fd0 f   PxAutoGeneratedMetaDataObjects.obj
 0001:000a0ff0       ?getPxActor_ClientBehaviorFlags@@YA?AV?$PxFlags@W4Enum@PxActorClientBehaviorFlag@physx@@E@physx@@PBVPxActor@2@@Z 100a1ff0 f   PxAutoGeneratedMetaDataObjects.obj
 0001:000a1010       ?getPxActor_Aggregate@@YAPAVPxAggregate@physx@@PBVPxActor@2@@Z 100a2010 f   PxAutoGeneratedMetaDataObjects.obj
 0001:000a1020       ?setPxRigidActor_GlobalPose@@YAXPAVPxRigidActor@physx@@ABVPxTransform@2@@Z 100a2020 f   PxAutoGeneratedMetaDataObjects.obj
 0001:000a1040       ?getPxRigidActor_GlobalPose@@YA?AVPxTransform@physx@@PBVPxRigidActor@2@@Z 100a2040 f   PxAutoGeneratedMetaDataObjects.obj
 0001:000a1060       ?getPxRigidActor_Shapes@@YAIPBVPxRigidActor@physx@@PAPAVPxShape@2@I@Z 100a2060 f   PxAutoGeneratedMetaDataObjects.obj
 0001:000a1080       ?getNbPxRigidActor_Shapes@@YAIPBVPxRigidActor@physx@@@Z 100a2080 f   PxAutoGeneratedMetaDataObjects.obj
 0001:000a1090       ?getPxRigidActor_Constraints@@YAIPBVPxRigidActor@physx@@PAPAVPxConstraint@2@I@Z 100a2090 f   PxAutoGeneratedMetaDataObjects.obj
 0001:000a10b0       ?getNbPxRigidActor_Constraints@@YAIPBVPxRigidActor@physx@@@Z 100a20b0 f   PxAutoGeneratedMetaDataObjects.obj
 0001:000a10c0       ?setPxRigidBody_CMassLocalPose@@YAXPAVPxRigidBody@physx@@ABVPxTransform@2@@Z 100a20c0 f   PxAutoGeneratedMetaDataObjects.obj
 0001:000a10d0       ?getPxRigidBody_CMassLocalPose@@YA?AVPxTransform@physx@@PBVPxRigidBody@2@@Z 100a20d0 f   PxAutoGeneratedMetaDataObjects.obj
 0001:000a10f0       ?setPxRigidBody_Mass@@YAXPAVPxRigidBody@physx@@M@Z 100a20f0 f   PxAutoGeneratedMetaDataObjects.obj
 0001:000a1110       ?getPxRigidBody_Mass@@YAMPBVPxRigidBody@physx@@@Z 100a2110 f   PxAutoGeneratedMetaDataObjects.obj
 0001:000a1130       ?getPxRigidBody_InvMass@@YAMPBVPxRigidBody@physx@@@Z 100a2130 f   PxAutoGeneratedMetaDataObjects.obj
 0001:000a1150       ?setPxRigidBody_MassSpaceInertiaTensor@@YAXPAVPxRigidBody@physx@@ABVPxVec3@2@@Z 100a2150 f   PxAutoGeneratedMetaDataObjects.obj
 0001:000a1170       ?getPxRigidBody_MassSpaceInertiaTensor@@YA?AVPxVec3@physx@@PBVPxRigidBody@2@@Z 100a2170 f   PxAutoGeneratedMetaDataObjects.obj
 0001:000a1190       ?getPxRigidBody_MassSpaceInvInertiaTensor@@YA?AVPxVec3@physx@@PBVPxRigidBody@2@@Z 100a2190 f   PxAutoGeneratedMetaDataObjects.obj
 0001:000a11b0       ?setPxRigidBody_LinearVelocity@@YAXPAVPxRigidBody@physx@@ABVPxVec3@2@@Z 100a21b0 f   PxAutoGeneratedMetaDataObjects.obj
 0001:000a11d0       ?getPxRigidBody_LinearVelocity@@YA?AVPxVec3@physx@@PBVPxRigidBody@2@@Z 100a21d0 f   PxAutoGeneratedMetaDataObjects.obj
 0001:000a11f0       ?setPxRigidBody_AngularVelocity@@YAXPAVPxRigidBody@physx@@ABVPxVec3@2@@Z 100a21f0 f   PxAutoGeneratedMetaDataObjects.obj
 0001:000a1210       ?getPxRigidBody_AngularVelocity@@YA?AVPxVec3@physx@@PBVPxRigidBody@2@@Z 100a2210 f   PxAutoGeneratedMetaDataObjects.obj
 0001:000a1230       ?setPxRigidBody_RigidDynamicFlags@@YAXPAVPxRigidBody@physx@@V?$PxFlags@W4Enum@PxRigidBodyFlag@physx@@E@2@@Z 100a2230 f   PxAutoGeneratedMetaDataObjects.obj
 0001:000a1250       ?getPxRigidBody_RigidDynamicFlags@@YA?AV?$PxFlags@W4Enum@PxRigidBodyFlag@physx@@E@physx@@PBVPxRigidBody@2@@Z 100a2250 f   PxAutoGeneratedMetaDataObjects.obj
 0001:000a1270       ?setPxRigidBody_RigidBodyFlags@@YAXPAVPxRigidBody@physx@@V?$PxFlags@W4Enum@PxRigidBodyFlag@physx@@E@2@@Z 100a2270 f   PxAutoGeneratedMetaDataObjects.obj
 0001:000a1290       ?getPxRigidBody_RigidBodyFlags@@YA?AV?$PxFlags@W4Enum@PxRigidBodyFlag@physx@@E@physx@@PBVPxRigidBody@2@@Z 100a2290 f   PxAutoGeneratedMetaDataObjects.obj
 0001:000a12b0       ?setPxRigidBody_MinCCDAdvanceCoefficient@@YAXPAVPxRigidBody@physx@@M@Z 100a22b0 f   PxAutoGeneratedMetaDataObjects.obj
 0001:000a12d0       ?getPxRigidBody_MinCCDAdvanceCoefficient@@YAMPBVPxRigidBody@physx@@@Z 100a22d0 f   PxAutoGeneratedMetaDataObjects.obj
 0001:000a12f0       ?setPxRigidBody_MaxDepenetrationVelocity@@YAXPAVPxRigidBody@physx@@M@Z 100a22f0 f   PxAutoGeneratedMetaDataObjects.obj
 0001:000a1310       ?getPxRigidBody_MaxDepenetrationVelocity@@YAMPBVPxRigidBody@physx@@@Z 100a2310 f   PxAutoGeneratedMetaDataObjects.obj
 0001:000a1330       ?setPxRigidDynamic_KinematicTarget@@YAXPAVPxRigidDynamic@physx@@ABVPxTransform@2@@Z 100a2330 f   PxAutoGeneratedMetaDataObjects.obj
 0001:000a1350       ?setPxRigidDynamic_LinearDamping@@YAXPAVPxRigidDynamic@physx@@M@Z 100a2350 f   PxAutoGeneratedMetaDataObjects.obj
 0001:000a1370       ?getPxRigidDynamic_LinearDamping@@YAMPBVPxRigidDynamic@physx@@@Z 100a2370 f   PxAutoGeneratedMetaDataObjects.obj
 0001:000a1390       ?setPxRigidDynamic_AngularDamping@@YAXPAVPxRigidDynamic@physx@@M@Z 100a2390 f   PxAutoGeneratedMetaDataObjects.obj
 0001:000a13b0       ?getPxRigidDynamic_AngularDamping@@YAMPBVPxRigidDynamic@physx@@@Z 100a23b0 f   PxAutoGeneratedMetaDataObjects.obj
 0001:000a13d0       ?setPxRigidDynamic_MaxAngularVelocity@@YAXPAVPxRigidDynamic@physx@@M@Z 100a23d0 f   PxAutoGeneratedMetaDataObjects.obj
 0001:000a13f0       ?getPxRigidDynamic_MaxAngularVelocity@@YAMPBVPxRigidDynamic@physx@@@Z 100a23f0 f   PxAutoGeneratedMetaDataObjects.obj
 0001:000a1410       ?getPxRigidDynamic_IsSleeping@@YA_NPBVPxRigidDynamic@physx@@@Z 100a2410 f   PxAutoGeneratedMetaDataObjects.obj
 0001:000a1430       ?setPxRigidDynamic_SleepThreshold@@YAXPAVPxRigidDynamic@physx@@M@Z 100a2430 f   PxAutoGeneratedMetaDataObjects.obj
 0001:000a1450       ?getPxRigidDynamic_SleepThreshold@@YAMPBVPxRigidDynamic@physx@@@Z 100a2450 f   PxAutoGeneratedMetaDataObjects.obj
 0001:000a1470       ?setPxRigidDynamic_StabilizationThreshold@@YAXPAVPxRigidDynamic@physx@@M@Z 100a2470 f   PxAutoGeneratedMetaDataObjects.obj
 0001:000a1490       ?getPxRigidDynamic_StabilizationThreshold@@YAMPBVPxRigidDynamic@physx@@@Z 100a2490 f   PxAutoGeneratedMetaDataObjects.obj
 0001:000a14b0       ?setPxRigidDynamic_WakeCounter@@YAXPAVPxRigidDynamic@physx@@M@Z 100a24b0 f   PxAutoGeneratedMetaDataObjects.obj
 0001:000a14d0       ?getPxRigidDynamic_WakeCounter@@YAMPBVPxRigidDynamic@physx@@@Z 100a24d0 f   PxAutoGeneratedMetaDataObjects.obj
 0001:000a14f0       ?setPxRigidDynamic_SolverIterationCounts@@YAXPAVPxRigidDynamic@physx@@II@Z 100a24f0 f   PxAutoGeneratedMetaDataObjects.obj
 0001:000a1510       ?getPxRigidDynamic_SolverIterationCounts@@YAXPBVPxRigidDynamic@physx@@AAI1@Z 100a2510 f   PxAutoGeneratedMetaDataObjects.obj
 0001:000a1530       ?setPxRigidDynamic_ContactReportThreshold@@YAXPAVPxRigidDynamic@physx@@M@Z 100a2530 f   PxAutoGeneratedMetaDataObjects.obj
 0001:000a1550       ?getPxRigidDynamic_ContactReportThreshold@@YAMPBVPxRigidDynamic@physx@@@Z 100a2550 f   PxAutoGeneratedMetaDataObjects.obj
 0001:000a1570       ?getPxRigidDynamic_ConcreteTypeName@@YAPBDPBVPxRigidDynamic@physx@@@Z 100a2570 f   PxAutoGeneratedMetaDataObjects.obj
 0001:000a1580       ?getPxRigidStatic_ConcreteTypeName@@YAPBDPBVPxRigidStatic@physx@@@Z 100a2580 f   PxAutoGeneratedMetaDataObjects.obj
 0001:000a1590       ?getPxArticulationLink_InboundJoint@@YAPAVPxArticulationJoint@physx@@PBVPxArticulationLink@2@@Z 100a2590 f   PxAutoGeneratedMetaDataObjects.obj
 0001:000a15a0       ?getPxArticulationLink_Children@@YAIPBVPxArticulationLink@physx@@PAPAV12@I@Z 100a25a0 f   PxAutoGeneratedMetaDataObjects.obj
 0001:000a15c0       ?getNbPxArticulationLink_Children@@YAIPBVPxArticulationLink@physx@@@Z 100a25c0 f   PxAutoGeneratedMetaDataObjects.obj
 0001:000a15d0       ?getPxArticulationLink_ConcreteTypeName@@YAPBDPBVPxArticulationLink@physx@@@Z 100a25d0 f   PxAutoGeneratedMetaDataObjects.obj
 0001:000a15e0       ?setPxArticulationJoint_ParentPose@@YAXPAVPxArticulationJoint@physx@@ABVPxTransform@2@@Z 100a25e0 f   PxAutoGeneratedMetaDataObjects.obj
 0001:000a15f0       ?getPxArticulationJoint_ParentPose@@YA?AVPxTransform@physx@@PBVPxArticulationJoint@2@@Z 100a25f0 f   PxAutoGeneratedMetaDataObjects.obj
 0001:000a1610       ?setPxArticulationJoint_ChildPose@@YAXPAVPxArticulationJoint@physx@@ABVPxTransform@2@@Z 100a2610 f   PxAutoGeneratedMetaDataObjects.obj
 0001:000a1620       ?getPxArticulationJoint_ChildPose@@YA?AVPxTransform@physx@@PBVPxArticulationJoint@2@@Z 100a2620 f   PxAutoGeneratedMetaDataObjects.obj
 0001:000a1640       ?setPxArticulationJoint_TargetOrientation@@YAXPAVPxArticulationJoint@physx@@ABVPxQuat@2@@Z 100a2640 f   PxAutoGeneratedMetaDataObjects.obj
 0001:000a1650       ?getPxArticulationJoint_TargetOrientation@@YA?AVPxQuat@physx@@PBVPxArticulationJoint@2@@Z 100a2650 f   PxAutoGeneratedMetaDataObjects.obj
 0001:000a1670       ?setPxArticulationJoint_TargetVelocity@@YAXPAVPxArticulationJoint@physx@@ABVPxVec3@2@@Z 100a2670 f   PxAutoGeneratedMetaDataObjects.obj
 0001:000a1680       ?getPxArticulationJoint_TargetVelocity@@YA?AVPxVec3@physx@@PBVPxArticulationJoint@2@@Z 100a2680 f   PxAutoGeneratedMetaDataObjects.obj
 0001:000a16a0       ?setPxArticulationJoint_DriveType@@YAXPAVPxArticulationJoint@physx@@W4Enum@PxArticulationJointDriveType@2@@Z 100a26a0 f   PxAutoGeneratedMetaDataObjects.obj
 0001:000a16b0       ?getPxArticulationJoint_DriveType@@YA?AW4Enum@PxArticulationJointDriveType@physx@@PBVPxArticulationJoint@3@@Z 100a26b0 f   PxAutoGeneratedMetaDataObjects.obj
 0001:000a16c0       ?setPxArticulationJoint_Stiffness@@YAXPAVPxArticulationJoint@physx@@M@Z 100a26c0 f   PxAutoGeneratedMetaDataObjects.obj
 0001:000a16e0       ?getPxArticulationJoint_Stiffness@@YAMPBVPxArticulationJoint@physx@@@Z 100a26e0 f   PxAutoGeneratedMetaDataObjects.obj
 0001:000a16f0       ?setPxArticulationJoint_Damping@@YAXPAVPxArticulationJoint@physx@@M@Z 100a26f0 f   PxAutoGeneratedMetaDataObjects.obj
 0001:000a1710       ?getPxArticulationJoint_Damping@@YAMPBVPxArticulationJoint@physx@@@Z 100a2710 f   PxAutoGeneratedMetaDataObjects.obj
 0001:000a1720       ?setPxArticulationJoint_InternalCompliance@@YAXPAVPxArticulationJoint@physx@@M@Z 100a2720 f   PxAutoGeneratedMetaDataObjects.obj
 0001:000a1740       ?getPxArticulationJoint_InternalCompliance@@YAMPBVPxArticulationJoint@physx@@@Z 100a2740 f   PxAutoGeneratedMetaDataObjects.obj
 0001:000a1750       ?setPxArticulationJoint_ExternalCompliance@@YAXPAVPxArticulationJoint@physx@@M@Z 100a2750 f   PxAutoGeneratedMetaDataObjects.obj
 0001:000a1770       ?getPxArticulationJoint_ExternalCompliance@@YAMPBVPxArticulationJoint@physx@@@Z 100a2770 f   PxAutoGeneratedMetaDataObjects.obj
 0001:000a1780       ?setPxArticulationJoint_SwingLimit@@YAXPAVPxArticulationJoint@physx@@MM@Z 100a2780 f   PxAutoGeneratedMetaDataObjects.obj
 0001:000a17b0       ?getPxArticulationJoint_SwingLimit@@YAXPBVPxArticulationJoint@physx@@AAM1@Z 100a27b0 f   PxAutoGeneratedMetaDataObjects.obj
 0001:000a17d0       ?setPxArticulationJoint_TangentialStiffness@@YAXPAVPxArticulationJoint@physx@@M@Z 100a27d0 f   PxAutoGeneratedMetaDataObjects.obj
 0001:000a17f0       ?getPxArticulationJoint_TangentialStiffness@@YAMPBVPxArticulationJoint@physx@@@Z 100a27f0 f   PxAutoGeneratedMetaDataObjects.obj
 0001:000a1800       ?setPxArticulationJoint_TangentialDamping@@YAXPAVPxArticulationJoint@physx@@M@Z 100a2800 f   PxAutoGeneratedMetaDataObjects.obj
 0001:000a1820       ?getPxArticulationJoint_TangentialDamping@@YAMPBVPxArticulationJoint@physx@@@Z 100a2820 f   PxAutoGeneratedMetaDataObjects.obj
 0001:000a1830       ?setPxArticulationJoint_SwingLimitContactDistance@@YAXPAVPxArticulationJoint@physx@@M@Z 100a2830 f   PxAutoGeneratedMetaDataObjects.obj
 0001:000a1850       ?getPxArticulationJoint_SwingLimitContactDistance@@YAMPBVPxArticulationJoint@physx@@@Z 100a2850 f   PxAutoGeneratedMetaDataObjects.obj
 0001:000a1860       ?setPxArticulationJoint_SwingLimitEnabled@@YAXPAVPxArticulationJoint@physx@@_N@Z 100a2860 f   PxAutoGeneratedMetaDataObjects.obj
 0001:000a1870       ?getPxArticulationJoint_SwingLimitEnabled@@YA_NPBVPxArticulationJoint@physx@@@Z 100a2870 f   PxAutoGeneratedMetaDataObjects.obj
 0001:000a1890       ?setPxArticulationJoint_TwistLimit@@YAXPAVPxArticulationJoint@physx@@MM@Z 100a2890 f   PxAutoGeneratedMetaDataObjects.obj
 0001:000a18c0       ?getPxArticulationJoint_TwistLimit@@YAXPBVPxArticulationJoint@physx@@AAM1@Z 100a28c0 f   PxAutoGeneratedMetaDataObjects.obj
 0001:000a18e0       ?setPxArticulationJoint_TwistLimitEnabled@@YAXPAVPxArticulationJoint@physx@@_N@Z 100a28e0 f   PxAutoGeneratedMetaDataObjects.obj
 0001:000a1900       ?getPxArticulationJoint_TwistLimitEnabled@@YA_NPBVPxArticulationJoint@physx@@@Z 100a2900 f   PxAutoGeneratedMetaDataObjects.obj
 0001:000a1920       ?setPxArticulationJoint_TwistLimitContactDistance@@YAXPAVPxArticulationJoint@physx@@M@Z 100a2920 f   PxAutoGeneratedMetaDataObjects.obj
 0001:000a1940       ?getPxArticulationJoint_TwistLimitContactDistance@@YAMPBVPxArticulationJoint@physx@@@Z 100a2940 f   PxAutoGeneratedMetaDataObjects.obj
 0001:000a1960       ?getPxArticulationJoint_ConcreteTypeName@@YAPBDPBVPxArticulationJoint@physx@@@Z 100a2960 f   PxAutoGeneratedMetaDataObjects.obj
 0001:000a1970       ?getPxArticulation_Scene@@YAPAVPxScene@physx@@PBVPxArticulation@2@@Z 100a2970 f   PxAutoGeneratedMetaDataObjects.obj
 0001:000a1980       ?setPxArticulation_MaxProjectionIterations@@YAXPAVPxArticulation@physx@@I@Z 100a2980 f   PxAutoGeneratedMetaDataObjects.obj
 0001:000a1990       ?getPxArticulation_MaxProjectionIterations@@YAIPBVPxArticulation@physx@@@Z 100a2990 f   PxAutoGeneratedMetaDataObjects.obj
 0001:000a19a0       ?setPxArticulation_SeparationTolerance@@YAXPAVPxArticulation@physx@@M@Z 100a29a0 f   PxAutoGeneratedMetaDataObjects.obj
 0001:000a19c0       ?getPxArticulation_SeparationTolerance@@YAMPBVPxArticulation@physx@@@Z 100a29c0 f   PxAutoGeneratedMetaDataObjects.obj
 0001:000a19d0       ?setPxArticulation_InternalDriveIterations@@YAXPAVPxArticulation@physx@@I@Z 100a29d0 f   PxAutoGeneratedMetaDataObjects.obj
 0001:000a19e0       ?getPxArticulation_InternalDriveIterations@@YAIPBVPxArticulation@physx@@@Z 100a29e0 f   PxAutoGeneratedMetaDataObjects.obj
 0001:000a19f0       ?setPxArticulation_ExternalDriveIterations@@YAXPAVPxArticulation@physx@@I@Z 100a29f0 f   PxAutoGeneratedMetaDataObjects.obj
 0001:000a1a00       ?getPxArticulation_ExternalDriveIterations@@YAIPBVPxArticulation@physx@@@Z 100a2a00 f   PxAutoGeneratedMetaDataObjects.obj
 0001:000a1a10       ?setPxArticulation_SolverIterationCounts@@YAXPAVPxArticulation@physx@@II@Z 100a2a10 f   PxAutoGeneratedMetaDataObjects.obj
 0001:000a1a30       ?getPxArticulation_SolverIterationCounts@@YAXPBVPxArticulation@physx@@AAI1@Z 100a2a30 f   PxAutoGeneratedMetaDataObjects.obj
 0001:000a1a50       ?getPxArticulation_IsSleeping@@YA_NPBVPxArticulation@physx@@@Z 100a2a50 f   PxAutoGeneratedMetaDataObjects.obj
 0001:000a1a60       ?setPxArticulation_SleepThreshold@@YAXPAVPxArticulation@physx@@M@Z 100a2a60 f   PxAutoGeneratedMetaDataObjects.obj
 0001:000a1a80       ?getPxArticulation_SleepThreshold@@YAMPBVPxArticulation@physx@@@Z 100a2a80 f   PxAutoGeneratedMetaDataObjects.obj
 0001:000a1a90       ?setPxArticulation_StabilizationThreshold@@YAXPAVPxArticulation@physx@@M@Z 100a2a90 f   PxAutoGeneratedMetaDataObjects.obj
 0001:000a1ab0       ?getPxArticulation_StabilizationThreshold@@YAMPBVPxArticulation@physx@@@Z 100a2ab0 f   PxAutoGeneratedMetaDataObjects.obj
 0001:000a1ac0       ?setPxArticulation_WakeCounter@@YAXPAVPxArticulation@physx@@M@Z 100a2ac0 f   PxAutoGeneratedMetaDataObjects.obj
 0001:000a1ae0       ?getPxArticulation_WakeCounter@@YAMPBVPxArticulation@physx@@@Z 100a2ae0 f   PxAutoGeneratedMetaDataObjects.obj
 0001:000a1af0       ?getPxArticulation_Links@@YAIPBVPxArticulation@physx@@PAPAVPxArticulationLink@2@I@Z 100a2af0 f   PxAutoGeneratedMetaDataObjects.obj
 0001:000a1b10       ?getNbPxArticulation_Links@@YAIPBVPxArticulation@physx@@@Z 100a2b10 f   PxAutoGeneratedMetaDataObjects.obj
 0001:000a1b20       ?setPxArticulation_Name@@YAXPAVPxArticulation@physx@@PBD@Z 100a2b20 f   PxAutoGeneratedMetaDataObjects.obj
 0001:000a1b30       ?getPxArticulation_Name@@YAPBDPBVPxArticulation@physx@@@Z 100a2b30 f   PxAutoGeneratedMetaDataObjects.obj
 0001:000a1b40       ?getPxArticulation_Aggregate@@YAPAVPxAggregate@physx@@PBVPxArticulation@2@@Z 100a2b40 f   PxAutoGeneratedMetaDataObjects.obj
 0001:000a1b50       ?getPxArticulation_ConcreteTypeName@@YAPBDPBVPxArticulation@physx@@@Z 100a2b50 f   PxAutoGeneratedMetaDataObjects.obj
 0001:000a1b60       ?getPxAggregate_MaxNbActors@@YAIPBVPxAggregate@physx@@@Z 100a2b60 f   PxAutoGeneratedMetaDataObjects.obj
 0001:000a1b70       ?getPxAggregate_Actors@@YAIPBVPxAggregate@physx@@PAPAVPxActor@2@I@Z 100a2b70 f   PxAutoGeneratedMetaDataObjects.obj
 0001:000a1b90       ?getNbPxAggregate_Actors@@YAIPBVPxAggregate@physx@@@Z 100a2b90 f   PxAutoGeneratedMetaDataObjects.obj
 0001:000a1ba0       ?getPxAggregate_SelfCollision@@YA_NPBVPxAggregate@physx@@@Z 100a2ba0 f   PxAutoGeneratedMetaDataObjects.obj
 0001:000a1bb0       ?getPxAggregate_ConcreteTypeName@@YAPBDPBVPxAggregate@physx@@@Z 100a2bb0 f   PxAutoGeneratedMetaDataObjects.obj
 0001:000a1bc0       ?getPxConstraint_Scene@@YAPAVPxScene@physx@@PBVPxConstraint@2@@Z 100a2bc0 f   PxAutoGeneratedMetaDataObjects.obj
 0001:000a1bd0       ?setPxConstraint_Actors@@YAXPAVPxConstraint@physx@@PAVPxRigidActor@2@1@Z 100a2bd0 f   PxAutoGeneratedMetaDataObjects.obj
 0001:000a1bf0       ?getPxConstraint_Actors@@YAXPBVPxConstraint@physx@@AAPAVPxRigidActor@2@1@Z 100a2bf0 f   PxAutoGeneratedMetaDataObjects.obj
 0001:000a1c10       ?setPxConstraint_Flags@@YAXPAVPxConstraint@physx@@V?$PxFlags@W4Enum@PxConstraintFlag@physx@@G@2@@Z 100a2c10 f   PxAutoGeneratedMetaDataObjects.obj
 0001:000a1c30       ?getPxConstraint_Flags@@YA?AV?$PxFlags@W4Enum@PxConstraintFlag@physx@@G@physx@@PBVPxConstraint@2@@Z 100a2c30 f   PxAutoGeneratedMetaDataObjects.obj
 0001:000a1c50       ?getPxConstraint_IsValid@@YA_NPBVPxConstraint@physx@@@Z 100a2c50 f   PxAutoGeneratedMetaDataObjects.obj
 0001:000a1c60       ?setPxConstraint_BreakForce@@YAXPAVPxConstraint@physx@@MM@Z 100a2c60 f   PxAutoGeneratedMetaDataObjects.obj
 0001:000a1c90       ?getPxConstraint_BreakForce@@YAXPBVPxConstraint@physx@@AAM1@Z 100a2c90 f   PxAutoGeneratedMetaDataObjects.obj
 0001:000a1cb0       ?getPxConstraint_ConcreteTypeName@@YAPBDPBVPxConstraint@physx@@@Z 100a2cb0 f   PxAutoGeneratedMetaDataObjects.obj
 0001:000a1cc0       ?getPxShape_GeometryType@@YA?AW4Enum@PxGeometryType@physx@@PBVPxShape@3@@Z 100a2cc0 f   PxAutoGeneratedMetaDataObjects.obj
 0001:000a1cd0       ?setPxShape_Geometry@@YAXPAVPxShape@physx@@ABVPxGeometry@2@@Z 100a2cd0 f   PxAutoGeneratedMetaDataObjects.obj
 0001:000a1ce0       ?getPxShape_Geometry@@YA?AVPxGeometryHolder@physx@@PBVPxShape@2@@Z 100a2ce0 f   PxAutoGeneratedMetaDataObjects.obj
 0001:000a1d00       ?setPxShape_LocalPose@@YAXPAVPxShape@physx@@ABVPxTransform@2@@Z 100a2d00 f   PxAutoGeneratedMetaDataObjects.obj
 0001:000a1d10       ?getPxShape_LocalPose@@YA?AVPxTransform@physx@@PBVPxShape@2@@Z 100a2d10 f   PxAutoGeneratedMetaDataObjects.obj
 0001:000a1d30       ?setPxShape_SimulationFilterData@@YAXPAVPxShape@physx@@ABUPxFilterData@2@@Z 100a2d30 f   PxAutoGeneratedMetaDataObjects.obj
 0001:000a1d40       ?getPxShape_SimulationFilterData@@YA?AUPxFilterData@physx@@PBVPxShape@2@@Z 100a2d40 f   PxAutoGeneratedMetaDataObjects.obj
 0001:000a1d60       ?setPxShape_QueryFilterData@@YAXPAVPxShape@physx@@ABUPxFilterData@2@@Z 100a2d60 f   PxAutoGeneratedMetaDataObjects.obj
 0001:000a1d70       ?getPxShape_QueryFilterData@@YA?AUPxFilterData@physx@@PBVPxShape@2@@Z 100a2d70 f   PxAutoGeneratedMetaDataObjects.obj
 0001:000a1d90       ?getPxShape_Materials@@YAIPBVPxShape@physx@@PAPAVPxMaterial@2@I@Z 100a2d90 f   PxAutoGeneratedMetaDataObjects.obj
 0001:000a1db0       ?getNbPxShape_Materials@@YAIPBVPxShape@physx@@@Z 100a2db0 f   PxAutoGeneratedMetaDataObjects.obj
 0001:000a1dc0       ?setPxShape_ContactOffset@@YAXPAVPxShape@physx@@M@Z 100a2dc0 f   PxAutoGeneratedMetaDataObjects.obj
 0001:000a1de0       ?getPxShape_ContactOffset@@YAMPBVPxShape@physx@@@Z 100a2de0 f   PxAutoGeneratedMetaDataObjects.obj
 0001:000a1df0       ?setPxShape_RestOffset@@YAXPAVPxShape@physx@@M@Z 100a2df0 f   PxAutoGeneratedMetaDataObjects.obj
 0001:000a1e10       ?getPxShape_RestOffset@@YAMPBVPxShape@physx@@@Z 100a2e10 f   PxAutoGeneratedMetaDataObjects.obj
 0001:000a1e20       ?setPxShape_Flags@@YAXPAVPxShape@physx@@V?$PxFlags@W4Enum@PxShapeFlag@physx@@E@2@@Z 100a2e20 f   PxAutoGeneratedMetaDataObjects.obj
 0001:000a1e40       ?getPxShape_Flags@@YA?AV?$PxFlags@W4Enum@PxShapeFlag@physx@@E@physx@@PBVPxShape@2@@Z 100a2e40 f   PxAutoGeneratedMetaDataObjects.obj
 0001:000a1e60       ?getPxShape_IsExclusive@@YA_NPBVPxShape@physx@@@Z 100a2e60 f   PxAutoGeneratedMetaDataObjects.obj
 0001:000a1e80       ?setPxShape_Name@@YAXPAVPxShape@physx@@PBD@Z 100a2e80 f   PxAutoGeneratedMetaDataObjects.obj
 0001:000a1ea0       ?getPxShape_Name@@YAPBDPBVPxShape@physx@@@Z 100a2ea0 f   PxAutoGeneratedMetaDataObjects.obj
 0001:000a1eb0       ?getPxShape_ConcreteTypeName@@YAPBDPBVPxShape@physx@@@Z 100a2eb0 f   PxAutoGeneratedMetaDataObjects.obj
 0001:000a1ec0       ?getPxClothFabric_NbParticles@@YAIPBVPxClothFabric@physx@@@Z 100a2ec0 f   PxAutoGeneratedMetaDataObjects.obj
 0001:000a1ed0       ?getPxClothFabric_Phases@@YAIPBVPxClothFabric@physx@@PAUPxClothFabricPhase@2@I@Z 100a2ed0 f   PxAutoGeneratedMetaDataObjects.obj
 0001:000a1ef0       ?getNbPxClothFabric_Phases@@YAIPBVPxClothFabric@physx@@@Z 100a2ef0 f   PxAutoGeneratedMetaDataObjects.obj
 0001:000a1f00       ?getPxClothFabric_Sets@@YAIPBVPxClothFabric@physx@@PAII@Z 100a2f00 f   PxAutoGeneratedMetaDataObjects.obj
 0001:000a1f20       ?getNbPxClothFabric_Sets@@YAIPBVPxClothFabric@physx@@@Z 100a2f20 f   PxAutoGeneratedMetaDataObjects.obj
 0001:000a1f30       ?getPxClothFabric_ParticleIndices@@YAIPBVPxClothFabric@physx@@PAII@Z 100a2f30 f   PxAutoGeneratedMetaDataObjects.obj
 0001:000a1f50       ?getNbPxClothFabric_ParticleIndices@@YAIPBVPxClothFabric@physx@@@Z 100a2f50 f   PxAutoGeneratedMetaDataObjects.obj
 0001:000a1f60       ?getPxClothFabric_Restvalues@@YAIPBVPxClothFabric@physx@@PAMI@Z 100a2f60 f   PxAutoGeneratedMetaDataObjects.obj
 0001:000a1f80       ?getNbPxClothFabric_Restvalues@@YAIPBVPxClothFabric@physx@@@Z 100a2f80 f   PxAutoGeneratedMetaDataObjects.obj
 0001:000a1f90       ?getPxClothFabric_ReferenceCount@@YAIPBVPxClothFabric@physx@@@Z 100a2f90 f   PxAutoGeneratedMetaDataObjects.obj
 0001:000a1fa0       ?getPxClothFabric_ConcreteTypeName@@YAPBDPBVPxClothFabric@physx@@@Z 100a2fa0 f   PxAutoGeneratedMetaDataObjects.obj
 0001:000a1fb0       ?getPxCloth_NbParticles@@YAIPBVPxCloth@physx@@@Z 100a2fb0 f   PxAutoGeneratedMetaDataObjects.obj
 0001:000a1fc0       ?setPxCloth_ClothFlags@@YAXPAVPxCloth@physx@@V?$PxFlags@W4Enum@PxClothFlag@physx@@G@2@@Z 100a2fc0 f   PxAutoGeneratedMetaDataObjects.obj
 0001:000a1fe0       ?getPxCloth_ClothFlags@@YA?AV?$PxFlags@W4Enum@PxClothFlag@physx@@G@physx@@PBVPxCloth@2@@Z 100a2fe0 f   PxAutoGeneratedMetaDataObjects.obj
 0001:000a2000       ?setPxCloth_TargetPose@@YAXPAVPxCloth@physx@@ABVPxTransform@2@@Z 100a3000 f   PxAutoGeneratedMetaDataObjects.obj
 0001:000a2010       ?setPxCloth_GlobalPose@@YAXPAVPxCloth@physx@@ABVPxTransform@2@@Z 100a3010 f   PxAutoGeneratedMetaDataObjects.obj
 0001:000a2020       ?getPxCloth_GlobalPose@@YA?AVPxTransform@physx@@PBVPxCloth@2@@Z 100a3020 f   PxAutoGeneratedMetaDataObjects.obj
 0001:000a2040       ?setPxCloth_SolverFrequency@@YAXPAVPxCloth@physx@@M@Z 100a3040 f   PxAutoGeneratedMetaDataObjects.obj
 0001:000a2060       ?getPxCloth_SolverFrequency@@YAMPBVPxCloth@physx@@@Z 100a3060 f   PxAutoGeneratedMetaDataObjects.obj
 0001:000a2080       ?getPxCloth_PreviousTimeStep@@YAMPBVPxCloth@physx@@@Z 100a3080 f   PxAutoGeneratedMetaDataObjects.obj
 0001:000a20a0       ?setPxCloth_StiffnessFrequency@@YAXPAVPxCloth@physx@@M@Z 100a30a0 f   PxAutoGeneratedMetaDataObjects.obj
 0001:000a20c0       ?getPxCloth_StiffnessFrequency@@YAMPBVPxCloth@physx@@@Z 100a30c0 f   PxAutoGeneratedMetaDataObjects.obj
 0001:000a20e0       ?setPxCloth_LinearInertiaScale@@YAXPAVPxCloth@physx@@VPxVec3@2@@Z 100a30e0 f   PxAutoGeneratedMetaDataObjects.obj
 0001:000a2120       ?getPxCloth_LinearInertiaScale@@YA?AVPxVec3@physx@@PBVPxCloth@2@@Z 100a3120 f   PxAutoGeneratedMetaDataObjects.obj
 0001:000a2140       ?setPxCloth_AngularInertiaScale@@YAXPAVPxCloth@physx@@VPxVec3@2@@Z 100a3140 f   PxAutoGeneratedMetaDataObjects.obj
 0001:000a2180       ?getPxCloth_AngularInertiaScale@@YA?AVPxVec3@physx@@PBVPxCloth@2@@Z 100a3180 f   PxAutoGeneratedMetaDataObjects.obj
 0001:000a21a0       ?setPxCloth_CentrifugalInertiaScale@@YAXPAVPxCloth@physx@@VPxVec3@2@@Z 100a31a0 f   PxAutoGeneratedMetaDataObjects.obj
 0001:000a21e0       ?getPxCloth_CentrifugalInertiaScale@@YA?AVPxVec3@physx@@PBVPxCloth@2@@Z 100a31e0 f   PxAutoGeneratedMetaDataObjects.obj
 0001:000a2200       ?setPxCloth_InertiaScale@@YAXPAVPxCloth@physx@@M@Z 100a3200 f   PxAutoGeneratedMetaDataObjects.obj
 0001:000a2220       ?setPxCloth_DampingCoefficient@@YAXPAVPxCloth@physx@@VPxVec3@2@@Z 100a3220 f   PxAutoGeneratedMetaDataObjects.obj
 0001:000a2260       ?getPxCloth_DampingCoefficient@@YA?AVPxVec3@physx@@PBVPxCloth@2@@Z 100a3260 f   PxAutoGeneratedMetaDataObjects.obj
 0001:000a2280       ?setPxCloth_LinearDragCoefficient@@YAXPAVPxCloth@physx@@VPxVec3@2@@Z 100a3280 f   PxAutoGeneratedMetaDataObjects.obj
 0001:000a22c0       ?getPxCloth_LinearDragCoefficient@@YA?AVPxVec3@physx@@PBVPxCloth@2@@Z 100a32c0 f   PxAutoGeneratedMetaDataObjects.obj
 0001:000a22e0       ?setPxCloth_AngularDragCoefficient@@YAXPAVPxCloth@physx@@VPxVec3@2@@Z 100a32e0 f   PxAutoGeneratedMetaDataObjects.obj
 0001:000a2320       ?getPxCloth_AngularDragCoefficient@@YA?AVPxVec3@physx@@PBVPxCloth@2@@Z 100a3320 f   PxAutoGeneratedMetaDataObjects.obj
 0001:000a2340       ?setPxCloth_DragCoefficient@@YAXPAVPxCloth@physx@@M@Z 100a3340 f   PxAutoGeneratedMetaDataObjects.obj
 0001:000a2360       ?setPxCloth_ExternalAcceleration@@YAXPAVPxCloth@physx@@VPxVec3@2@@Z 100a3360 f   PxAutoGeneratedMetaDataObjects.obj
 0001:000a23a0       ?getPxCloth_ExternalAcceleration@@YA?AVPxVec3@physx@@PBVPxCloth@2@@Z 100a33a0 f   PxAutoGeneratedMetaDataObjects.obj
 0001:000a23c0       ?setPxCloth_MotionConstraintConfig@@YAXPAVPxCloth@physx@@ABUPxClothMotionConstraintConfig@2@@Z 100a33c0 f   PxAutoGeneratedMetaDataObjects.obj
 0001:000a23e0       ?getPxCloth_MotionConstraintConfig@@YA?AUPxClothMotionConstraintConfig@physx@@PBVPxCloth@2@@Z 100a33e0 f   PxAutoGeneratedMetaDataObjects.obj
 0001:000a2400       ?setPxCloth_StretchConfig@@YAXPAVPxCloth@physx@@W4Enum@PxClothFabricPhaseType@2@UPxClothStretchConfig@2@@Z 100a3400 f   PxAutoGeneratedMetaDataObjects.obj
 0001:000a2420       ?getPxCloth_StretchConfig@@YA?AUPxClothStretchConfig@physx@@PBVPxCloth@2@W4Enum@PxClothFabricPhaseType@2@@Z 100a3420 f   PxAutoGeneratedMetaDataObjects.obj
 0001:000a2440       ?setPxCloth_TetherConfig@@YAXPAVPxCloth@physx@@ABUPxClothTetherConfig@2@@Z 100a3440 f   PxAutoGeneratedMetaDataObjects.obj
 0001:000a2460       ?getPxCloth_TetherConfig@@YA?AUPxClothTetherConfig@physx@@PBVPxCloth@2@@Z 100a3460 f   PxAutoGeneratedMetaDataObjects.obj
 0001:000a2480       ?setPxCloth_FrictionCoefficient@@YAXPAVPxCloth@physx@@M@Z 100a3480 f   PxAutoGeneratedMetaDataObjects.obj
 0001:000a24a0       ?getPxCloth_FrictionCoefficient@@YAMPBVPxCloth@physx@@@Z 100a34a0 f   PxAutoGeneratedMetaDataObjects.obj
 0001:000a24c0       ?setPxCloth_CollisionMassScale@@YAXPAVPxCloth@physx@@M@Z 100a34c0 f   PxAutoGeneratedMetaDataObjects.obj
 0001:000a24e0       ?getPxCloth_CollisionMassScale@@YAMPBVPxCloth@physx@@@Z 100a34e0 f   PxAutoGeneratedMetaDataObjects.obj
 0001:000a2500       ?setPxCloth_SelfCollisionDistance@@YAXPAVPxCloth@physx@@M@Z 100a3500 f   PxAutoGeneratedMetaDataObjects.obj
 0001:000a2520       ?getPxCloth_SelfCollisionDistance@@YAMPBVPxCloth@physx@@@Z 100a3520 f   PxAutoGeneratedMetaDataObjects.obj
 0001:000a2540       ?setPxCloth_SelfCollisionStiffness@@YAXPAVPxCloth@physx@@M@Z 100a3540 f   PxAutoGeneratedMetaDataObjects.obj
 0001:000a2560       ?getPxCloth_SelfCollisionStiffness@@YAMPBVPxCloth@physx@@@Z 100a3560 f   PxAutoGeneratedMetaDataObjects.obj
 0001:000a2580       ?setPxCloth_SimulationFilterData@@YAXPAVPxCloth@physx@@ABUPxFilterData@2@@Z 100a3580 f   PxAutoGeneratedMetaDataObjects.obj
 0001:000a25a0       ?getPxCloth_SimulationFilterData@@YA?AUPxFilterData@physx@@PBVPxCloth@2@@Z 100a35a0 f   PxAutoGeneratedMetaDataObjects.obj
 0001:000a25c0       ?setPxCloth_ContactOffset@@YAXPAVPxCloth@physx@@M@Z 100a35c0 f   PxAutoGeneratedMetaDataObjects.obj
 0001:000a25e0       ?getPxCloth_ContactOffset@@YAMPBVPxCloth@physx@@@Z 100a35e0 f   PxAutoGeneratedMetaDataObjects.obj
 0001:000a2600       ?setPxCloth_RestOffset@@YAXPAVPxCloth@physx@@M@Z 100a3600 f   PxAutoGeneratedMetaDataObjects.obj
 0001:000a2620       ?getPxCloth_RestOffset@@YAMPBVPxCloth@physx@@@Z 100a3620 f   PxAutoGeneratedMetaDataObjects.obj
 0001:000a2640       ?setPxCloth_SleepLinearVelocity@@YAXPAVPxCloth@physx@@M@Z 100a3640 f   PxAutoGeneratedMetaDataObjects.obj
 0001:000a2660       ?getPxCloth_SleepLinearVelocity@@YAMPBVPxCloth@physx@@@Z 100a3660 f   PxAutoGeneratedMetaDataObjects.obj
 0001:000a2680       ?setPxCloth_WakeCounter@@YAXPAVPxCloth@physx@@M@Z 100a3680 f   PxAutoGeneratedMetaDataObjects.obj
 0001:000a26a0       ?getPxCloth_WakeCounter@@YAMPBVPxCloth@physx@@@Z 100a36a0 f   PxAutoGeneratedMetaDataObjects.obj
 0001:000a26c0       ?getPxCloth_IsSleeping@@YA_NPBVPxCloth@physx@@@Z 100a36c0 f   PxAutoGeneratedMetaDataObjects.obj
 0001:000a26e0       ?getPxCloth_ConcreteTypeName@@YAPBDPBVPxCloth@physx@@@Z 100a36e0 f   PxAutoGeneratedMetaDataObjects.obj
 0001:000a26f0       ?setPxParticleBase_Damping@@YAXPAVPxParticleBase@physx@@M@Z 100a36f0 f   PxAutoGeneratedMetaDataObjects.obj
 0001:000a2710       ?getPxParticleBase_Damping@@YAMPBVPxParticleBase@physx@@@Z 100a3710 f   PxAutoGeneratedMetaDataObjects.obj
 0001:000a2720       ?setPxParticleBase_ExternalAcceleration@@YAXPAVPxParticleBase@physx@@ABVPxVec3@2@@Z 100a3720 f   PxAutoGeneratedMetaDataObjects.obj
 0001:000a2740       ?getPxParticleBase_ExternalAcceleration@@YA?AVPxVec3@physx@@PBVPxParticleBase@2@@Z 100a3740 f   PxAutoGeneratedMetaDataObjects.obj
 0001:000a2760       ?setPxParticleBase_ParticleMass@@YAXPAVPxParticleBase@physx@@M@Z 100a3760 f   PxAutoGeneratedMetaDataObjects.obj
 0001:000a2780       ?getPxParticleBase_ParticleMass@@YAMPBVPxParticleBase@physx@@@Z 100a3780 f   PxAutoGeneratedMetaDataObjects.obj
 0001:000a27a0       ?setPxParticleBase_Restitution@@YAXPAVPxParticleBase@physx@@M@Z 100a37a0 f   PxAutoGeneratedMetaDataObjects.obj
 0001:000a27c0       ?getPxParticleBase_Restitution@@YAMPBVPxParticleBase@physx@@@Z 100a37c0 f   PxAutoGeneratedMetaDataObjects.obj
 0001:000a27e0       ?setPxParticleBase_DynamicFriction@@YAXPAVPxParticleBase@physx@@M@Z 100a37e0 f   PxAutoGeneratedMetaDataObjects.obj
 0001:000a2800       ?getPxParticleBase_DynamicFriction@@YAMPBVPxParticleBase@physx@@@Z 100a3800 f   PxAutoGeneratedMetaDataObjects.obj
 0001:000a2820       ?setPxParticleBase_StaticFriction@@YAXPAVPxParticleBase@physx@@M@Z 100a3820 f   PxAutoGeneratedMetaDataObjects.obj
 0001:000a2840       ?getPxParticleBase_StaticFriction@@YAMPBVPxParticleBase@physx@@@Z 100a3840 f   PxAutoGeneratedMetaDataObjects.obj
 0001:000a2860       ?setPxParticleBase_SimulationFilterData@@YAXPAVPxParticleBase@physx@@ABUPxFilterData@2@@Z 100a3860 f   PxAutoGeneratedMetaDataObjects.obj
 0001:000a2880       ?getPxParticleBase_SimulationFilterData@@YA?AUPxFilterData@physx@@PBVPxParticleBase@2@@Z 100a3880 f   PxAutoGeneratedMetaDataObjects.obj
 0001:000a28a0       ?getPxParticleBase_ParticleBaseFlags@@YA?AV?$PxFlags@W4Enum@PxParticleBaseFlag@physx@@G@physx@@PBVPxParticleBase@2@@Z 100a38a0 f   PxAutoGeneratedMetaDataObjects.obj
 0001:000a28c0       ?getPxParticleBase_MaxParticles@@YAIPBVPxParticleBase@physx@@@Z 100a38c0 f   PxAutoGeneratedMetaDataObjects.obj
 0001:000a28d0       ?setPxParticleBase_MaxMotionDistance@@YAXPAVPxParticleBase@physx@@M@Z 100a38d0 f   PxAutoGeneratedMetaDataObjects.obj
 0001:000a28f0       ?getPxParticleBase_MaxMotionDistance@@YAMPBVPxParticleBase@physx@@@Z 100a38f0 f   PxAutoGeneratedMetaDataObjects.obj
 0001:000a2910       ?setPxParticleBase_RestOffset@@YAXPAVPxParticleBase@physx@@M@Z 100a3910 f   PxAutoGeneratedMetaDataObjects.obj
 0001:000a2930       ?getPxParticleBase_RestOffset@@YAMPBVPxParticleBase@physx@@@Z 100a3930 f   PxAutoGeneratedMetaDataObjects.obj
 0001:000a2950       ?setPxParticleBase_ContactOffset@@YAXPAVPxParticleBase@physx@@M@Z 100a3950 f   PxAutoGeneratedMetaDataObjects.obj
 0001:000a2970       ?getPxParticleBase_ContactOffset@@YAMPBVPxParticleBase@physx@@@Z 100a3970 f   PxAutoGeneratedMetaDataObjects.obj
 0001:000a2990       ?setPxParticleBase_GridSize@@YAXPAVPxParticleBase@physx@@M@Z 100a3990 f   PxAutoGeneratedMetaDataObjects.obj
 0001:000a29b0       ?getPxParticleBase_GridSize@@YAMPBVPxParticleBase@physx@@@Z 100a39b0 f   PxAutoGeneratedMetaDataObjects.obj
 0001:000a29d0       ?getPxParticleBase_ParticleReadDataFlags@@YA?AV?$PxFlags@W4Enum@PxParticleReadDataFlag@physx@@G@physx@@PBVPxParticleBase@2@@Z 100a39d0 f   PxAutoGeneratedMetaDataObjects.obj
 0001:000a29f0       ?setPxParticleFluid_Stiffness@@YAXPAVPxParticleFluid@physx@@M@Z 100a39f0 f   PxAutoGeneratedMetaDataObjects.obj
 0001:000a2a10       ?getPxParticleFluid_Stiffness@@YAMPBVPxParticleFluid@physx@@@Z 100a3a10 f   PxAutoGeneratedMetaDataObjects.obj
 0001:000a2a30       ?setPxParticleFluid_Viscosity@@YAXPAVPxParticleFluid@physx@@M@Z 100a3a30 f   PxAutoGeneratedMetaDataObjects.obj
 0001:000a2a50       ?getPxParticleFluid_Viscosity@@YAMPBVPxParticleFluid@physx@@@Z 100a3a50 f   PxAutoGeneratedMetaDataObjects.obj
 0001:000a2a70       ?setPxParticleFluid_RestParticleDistance@@YAXPAVPxParticleFluid@physx@@M@Z 100a3a70 f   PxAutoGeneratedMetaDataObjects.obj
 0001:000a2a90       ?getPxParticleFluid_RestParticleDistance@@YAMPBVPxParticleFluid@physx@@@Z 100a3a90 f   PxAutoGeneratedMetaDataObjects.obj
 0001:000a2ab0       ?getPxParticleFluid_ConcreteTypeName@@YAPBDPBVPxParticleFluid@physx@@@Z 100a3ab0 f   PxAutoGeneratedMetaDataObjects.obj
 0001:000a2ac0       ?getPxParticleSystem_ConcreteTypeName@@YAPBDPBVPxParticleSystem@physx@@@Z 100a3ac0 f   PxAutoGeneratedMetaDataObjects.obj
 0001:000a2ad0       ?getPxPhysics_TolerancesScale@@YAABVPxTolerancesScale@physx@@PBVPxPhysics@2@@Z 100a3ad0 f   PxAutoGeneratedMetaDataObjects.obj
 0001:000a2ae0       ?getPxPhysics_TriangleMeshes@@YAIPBVPxPhysics@physx@@PAPAVPxTriangleMesh@2@I@Z 100a3ae0 f   PxAutoGeneratedMetaDataObjects.obj
 0001:000a2b00       ?getNbPxPhysics_TriangleMeshes@@YAIPBVPxPhysics@physx@@@Z 100a3b00 f   PxAutoGeneratedMetaDataObjects.obj
 0001:000a2b10       ?createPxPhysics_TriangleMeshes@@YAPAVPxTriangleMesh@physx@@PAVPxPhysics@2@AAVPxInputStream@2@@Z 100a3b10 f   PxAutoGeneratedMetaDataObjects.obj
 0001:000a2b20       ?getPxPhysics_HeightFields@@YAIPBVPxPhysics@physx@@PAPAVPxHeightField@2@I@Z 100a3b20 f   PxAutoGeneratedMetaDataObjects.obj
 0001:000a2b40       ?getNbPxPhysics_HeightFields@@YAIPBVPxPhysics@physx@@@Z 100a3b40 f   PxAutoGeneratedMetaDataObjects.obj
 0001:000a2b50       ?createPxPhysics_HeightFields@@YAPAVPxHeightField@physx@@PAVPxPhysics@2@AAVPxInputStream@2@@Z 100a3b50 f   PxAutoGeneratedMetaDataObjects.obj
 0001:000a2b60       ?getPxPhysics_ConvexMeshes@@YAIPBVPxPhysics@physx@@PAPAVPxConvexMesh@2@I@Z 100a3b60 f   PxAutoGeneratedMetaDataObjects.obj
 0001:000a2b80       ?getNbPxPhysics_ConvexMeshes@@YAIPBVPxPhysics@physx@@@Z 100a3b80 f   PxAutoGeneratedMetaDataObjects.obj
 0001:000a2b90       ?createPxPhysics_ConvexMeshes@@YAPAVPxConvexMesh@physx@@PAVPxPhysics@2@AAVPxInputStream@2@@Z 100a3b90 f   PxAutoGeneratedMetaDataObjects.obj
 0001:000a2ba0       ?getPxPhysics_ClothFabrics@@YAIPBVPxPhysics@physx@@PAPAVPxClothFabric@2@I@Z 100a3ba0 f   PxAutoGeneratedMetaDataObjects.obj
 0001:000a2bc0       ?getNbPxPhysics_ClothFabrics@@YAIPBVPxPhysics@physx@@@Z 100a3bc0 f   PxAutoGeneratedMetaDataObjects.obj
 0001:000a2bd0       ?getPxPhysics_Scenes@@YAIPBVPxPhysics@physx@@PAPAVPxScene@2@I@Z 100a3bd0 f   PxAutoGeneratedMetaDataObjects.obj
 0001:000a2bf0       ?getNbPxPhysics_Scenes@@YAIPBVPxPhysics@physx@@@Z 100a3bf0 f   PxAutoGeneratedMetaDataObjects.obj
 0001:000a2c00       ?createPxPhysics_Scenes@@YAPAVPxScene@physx@@PAVPxPhysics@2@ABVPxSceneDesc@2@@Z 100a3c00 f   PxAutoGeneratedMetaDataObjects.obj
 0001:000a2c10       ?getPxPhysics_Shapes@@YAIPBVPxPhysics@physx@@PAPAVPxShape@2@I@Z 100a3c10 f   PxAutoGeneratedMetaDataObjects.obj
 0001:000a2c30       ?getNbPxPhysics_Shapes@@YAIPBVPxPhysics@physx@@@Z 100a3c30 f   PxAutoGeneratedMetaDataObjects.obj
 0001:000a2c40       ?getPxPhysics_Materials@@YAIPBVPxPhysics@physx@@PAPAVPxMaterial@2@I@Z 100a3c40 f   PxAutoGeneratedMetaDataObjects.obj
 0001:000a2c60       ?getNbPxPhysics_Materials@@YAIPBVPxPhysics@physx@@@Z 100a3c60 f   PxAutoGeneratedMetaDataObjects.obj
 0001:000a2c70       ?getPxTolerancesScale_IsValid@@YA_NPBVPxTolerancesScale@physx@@@Z 100a3c70 f   PxAutoGeneratedMetaDataObjects.obj
 0001:000a2ca0       ?getPxScene_Flags@@YA?AV?$PxFlags@W4Enum@PxSceneFlag@physx@@G@physx@@PBVPxScene@2@@Z 100a3ca0 f   PxAutoGeneratedMetaDataObjects.obj
 0001:000a2cc0       ?setPxScene_Limits@@YAXPAVPxScene@physx@@ABVPxSceneLimits@2@@Z 100a3cc0 f   PxAutoGeneratedMetaDataObjects.obj
 0001:000a2cd0       ?getPxScene_Limits@@YA?AVPxSceneLimits@physx@@PBVPxScene@2@@Z 100a3cd0 f   PxAutoGeneratedMetaDataObjects.obj
 0001:000a2cf0       ?getPxScene_Timestamp@@YAIPBVPxScene@physx@@@Z 100a3cf0 f   PxAutoGeneratedMetaDataObjects.obj
 0001:000a2d00       ?getPxScene_Actors@@YAIPBVPxScene@physx@@V?$PxFlags@W4Enum@PxActorTypeFlag@physx@@G@2@PAPAVPxActor@2@I@Z 100a3d00 f   PxAutoGeneratedMetaDataObjects.obj
 0001:000a2d20       ?getNbPxScene_Actors@@YAIPBVPxScene@physx@@V?$PxFlags@W4Enum@PxActorTypeFlag@physx@@G@2@@Z 100a3d20 f   PxAutoGeneratedMetaDataObjects.obj
 0001:000a2d40       ?getPxScene_Articulations@@YAIPBVPxScene@physx@@PAPAVPxArticulation@2@I@Z 100a3d40 f   PxAutoGeneratedMetaDataObjects.obj
 0001:000a2d60       ?getNbPxScene_Articulations@@YAIPBVPxScene@physx@@@Z 100a3d60 f   PxAutoGeneratedMetaDataObjects.obj
 0001:000a2d70       ?getPxScene_Constraints@@YAIPBVPxScene@physx@@PAPAVPxConstraint@2@I@Z 100a3d70 f   PxAutoGeneratedMetaDataObjects.obj
 0001:000a2d90       ?getNbPxScene_Constraints@@YAIPBVPxScene@physx@@@Z 100a3d90 f   PxAutoGeneratedMetaDataObjects.obj
 0001:000a2da0       ?getPxScene_Aggregates@@YAIPBVPxScene@physx@@PAPAVPxAggregate@2@I@Z 100a3da0 f   PxAutoGeneratedMetaDataObjects.obj
 0001:000a2dc0       ?getNbPxScene_Aggregates@@YAIPBVPxScene@physx@@@Z 100a3dc0 f   PxAutoGeneratedMetaDataObjects.obj
 0001:000a2dd0       ?getPxScene_CpuDispatcher@@YAPAVPxCpuDispatcher@physx@@PBVPxScene@2@@Z 100a3dd0 f   PxAutoGeneratedMetaDataObjects.obj
 0001:000a2de0       ?getPxScene_GpuDispatcher@@YAPAVPxGpuDispatcher@physx@@PBVPxScene@2@@Z 100a3de0 f   PxAutoGeneratedMetaDataObjects.obj
 0001:000a2df0       ?getPxScene_SpuDispatcher@@YAPAVPxSpuDispatcher@physx@@PBVPxScene@2@@Z 100a3df0 f   PxAutoGeneratedMetaDataObjects.obj
 0001:000a2e00       ?setPxScene_ClothInterCollisionDistance@@YAXPAVPxScene@physx@@M@Z 100a3e00 f   PxAutoGeneratedMetaDataObjects.obj
 0001:000a2e20       ?getPxScene_ClothInterCollisionDistance@@YAMPBVPxScene@physx@@@Z 100a3e20 f   PxAutoGeneratedMetaDataObjects.obj
 0001:000a2e40       ?setPxScene_ClothInterCollisionStiffness@@YAXPAVPxScene@physx@@M@Z 100a3e40 f   PxAutoGeneratedMetaDataObjects.obj
 0001:000a2e60       ?getPxScene_ClothInterCollisionStiffness@@YAMPBVPxScene@physx@@@Z 100a3e60 f   PxAutoGeneratedMetaDataObjects.obj
 0001:000a2e80       ?setPxScene_ClothInterCollisionNbIterations@@YAXPAVPxScene@physx@@I@Z 100a3e80 f   PxAutoGeneratedMetaDataObjects.obj
 0001:000a2ea0       ?getPxScene_ClothInterCollisionNbIterations@@YAIPBVPxScene@physx@@@Z 100a3ea0 f   PxAutoGeneratedMetaDataObjects.obj
 0001:000a2eb0       ?setPxScene_ContactModifyCallback@@YAXPAVPxScene@physx@@PAVPxContactModifyCallback@2@@Z 100a3eb0 f   PxAutoGeneratedMetaDataObjects.obj
 0001:000a2ed0       ?getPxScene_ContactModifyCallback@@YAPAVPxContactModifyCallback@physx@@PBVPxScene@2@@Z 100a3ed0 f   PxAutoGeneratedMetaDataObjects.obj
 0001:000a2ee0       ?setPxScene_CCDContactModifyCallback@@YAXPAVPxScene@physx@@PAVPxCCDContactModifyCallback@2@@Z 100a3ee0 f   PxAutoGeneratedMetaDataObjects.obj
 0001:000a2f00       ?getPxScene_CCDContactModifyCallback@@YAPAVPxCCDContactModifyCallback@physx@@PBVPxScene@2@@Z 100a3f00 f   PxAutoGeneratedMetaDataObjects.obj
 0001:000a2f10       ?getPxScene_FilterShaderData@@YAPBXPBVPxScene@physx@@@Z 100a3f10 f   PxAutoGeneratedMetaDataObjects.obj
 0001:000a2f20       ?getPxScene_FilterShaderDataSize@@YAIPBVPxScene@physx@@@Z 100a3f20 f   PxAutoGeneratedMetaDataObjects.obj
 0001:000a2f30       ?getPxScene_FilterShader@@YAP6A?AV?$PxFlags@W4Enum@PxFilterFlag@physx@@G@physx@@IUPxFilterData@2@I0AAV?$PxFlags@W4Enum@PxPairFlag@physx@@G@2@PBXI@ZPBVPxScene@2@@Z 100a3f30 f   PxAutoGeneratedMetaDataObjects.obj
 0001:000a2f40       ?getPxScene_FilterCallback@@YAPAVPxSimulationFilterCallback@physx@@PBVPxScene@2@@Z 100a3f40 f   PxAutoGeneratedMetaDataObjects.obj
 0001:000a2f50       ?setPxScene_Gravity@@YAXPAVPxScene@physx@@ABVPxVec3@2@@Z 100a3f50 f   PxAutoGeneratedMetaDataObjects.obj
 0001:000a2f70       ?getPxScene_Gravity@@YA?AVPxVec3@physx@@PBVPxScene@2@@Z 100a3f70 f   PxAutoGeneratedMetaDataObjects.obj
 0001:000a2f90       ?setPxScene_BounceThresholdVelocity@@YAXPAVPxScene@physx@@M@Z 100a3f90 f   PxAutoGeneratedMetaDataObjects.obj
 0001:000a2fb0       ?getPxScene_BounceThresholdVelocity@@YAMPBVPxScene@physx@@@Z 100a3fb0 f   PxAutoGeneratedMetaDataObjects.obj
 0001:000a2fd0       ?setPxScene_CCDMaxPasses@@YAXPAVPxScene@physx@@I@Z 100a3fd0 f   PxAutoGeneratedMetaDataObjects.obj
 0001:000a2ff0       ?getPxScene_CCDMaxPasses@@YAIPBVPxScene@physx@@@Z 100a3ff0 f   PxAutoGeneratedMetaDataObjects.obj
 0001:000a3000       ?getPxScene_ContactCorrelationDistance@@YAMPBVPxScene@physx@@@Z 100a4000 f   PxAutoGeneratedMetaDataObjects.obj
 0001:000a3020       ?getPxScene_FrictionOffsetThreshold@@YAMPBVPxScene@physx@@@Z 100a4020 f   PxAutoGeneratedMetaDataObjects.obj
 0001:000a3040       ?getPxScene_MeshContactMargin@@YAMPBVPxScene@physx@@@Z 100a4040 f   PxAutoGeneratedMetaDataObjects.obj
 0001:000a3060       ?setPxScene_FrictionType@@YAXPAVPxScene@physx@@W4Enum@PxFrictionType@2@@Z 100a4060 f   PxAutoGeneratedMetaDataObjects.obj
 0001:000a3080       ?getPxScene_FrictionType@@YA?AW4Enum@PxFrictionType@physx@@PBVPxScene@3@@Z 100a4080 f   PxAutoGeneratedMetaDataObjects.obj
 0001:000a3090       ?setPxScene_VisualizationCullingBox@@YAXPAVPxScene@physx@@ABVPxBounds3@2@@Z 100a4090 f   PxAutoGeneratedMetaDataObjects.obj
 0001:000a30b0       ?getPxScene_VisualizationCullingBox@@YAABVPxBounds3@physx@@PBVPxScene@2@@Z 100a40b0 f   PxAutoGeneratedMetaDataObjects.obj
 0001:000a30c0       ?getPxScene_StaticStructure@@YA?AW4Enum@PxPruningStructure@physx@@PBVPxScene@3@@Z 100a40c0 f   PxAutoGeneratedMetaDataObjects.obj
 0001:000a30d0       ?getPxScene_DynamicStructure@@YA?AW4Enum@PxPruningStructure@physx@@PBVPxScene@3@@Z 100a40d0 f   PxAutoGeneratedMetaDataObjects.obj
 0001:000a30e0       ?setPxScene_DynamicTreeRebuildRateHint@@YAXPAVPxScene@physx@@I@Z 100a40e0 f   PxAutoGeneratedMetaDataObjects.obj
 0001:000a3100       ?getPxScene_DynamicTreeRebuildRateHint@@YAIPBVPxScene@physx@@@Z 100a4100 f   PxAutoGeneratedMetaDataObjects.obj
 0001:000a3110       ?getPxScene_SceneQueryStaticTimestamp@@YAIPBVPxScene@physx@@@Z 100a4110 f   PxAutoGeneratedMetaDataObjects.obj
 0001:000a3120       ?getPxScene_BroadPhaseType@@YA?AW4Enum@PxBroadPhaseType@physx@@PBVPxScene@3@@Z 100a4120 f   PxAutoGeneratedMetaDataObjects.obj
 0001:000a3130       ?getPxScene_BroadPhaseRegions@@YAIPBVPxScene@physx@@PAUPxBroadPhaseRegionInfo@2@I@Z 100a4130 f   PxAutoGeneratedMetaDataObjects.obj
 0001:000a3150       ?getNbPxScene_BroadPhaseRegions@@YAIPBVPxScene@physx@@@Z 100a4150 f   PxAutoGeneratedMetaDataObjects.obj
 0001:000a3160       ?getPxScene_TaskManager@@YAPAVPxTaskManager@physx@@PBVPxScene@2@@Z 100a4160 f   PxAutoGeneratedMetaDataObjects.obj
 0001:000a3170       ?setPxScene_NbContactDataBlocks@@YAXPAVPxScene@physx@@I@Z 100a4170 f   PxAutoGeneratedMetaDataObjects.obj
 0001:000a3190       ?getPxScene_MaxNbContactDataBlocksUsed@@YAIPBVPxScene@physx@@@Z 100a4190 f   PxAutoGeneratedMetaDataObjects.obj
 0001:000a31a0       ?getPxScene_ContactReportStreamBufferSize@@YAIPBVPxScene@physx@@@Z 100a41a0 f   PxAutoGeneratedMetaDataObjects.obj
 0001:000a31b0       ?setPxScene_SolverBatchSize@@YAXPAVPxScene@physx@@I@Z 100a41b0 f   PxAutoGeneratedMetaDataObjects.obj
 0001:000a31d0       ?getPxScene_SolverBatchSize@@YAIPBVPxScene@physx@@@Z 100a41d0 f   PxAutoGeneratedMetaDataObjects.obj
 0001:000a31e0       ?getPxScene_WakeCounterResetValue@@YAMPBVPxScene@physx@@@Z 100a41e0 f   PxAutoGeneratedMetaDataObjects.obj
 0001:000a3200       ?getPxSphereGeometry_IsValid@@YA_NPBVPxSphereGeometry@physx@@@Z 100a4200 f   PxAutoGeneratedMetaDataObjects.obj
 0001:000a3240       ?getPxHeightFieldDesc_IsValid@@YA_NPBVPxHeightFieldDesc@physx@@@Z 100a4240 f   PxAutoGeneratedMetaDataObjects.obj
 0001:000a32a0       ?setPxSceneDesc_ToDefault@@YAXPAVPxSceneDesc@physx@@ABVPxTolerancesScale@2@@Z 100a42a0 f   PxAutoGeneratedMetaDataObjects.obj
 0001:000a32d0       ?getPxSceneDesc_IsValid@@YA_NPBVPxSceneDesc@physx@@@Z 100a42d0 f   PxAutoGeneratedMetaDataObjects.obj
 0001:000a4bc0       ??0PxSceneDesc@physx@@QAE@ABVPxTolerancesScale@1@@Z 100a5bc0 f i PxAutoGeneratedMetaDataObjects.obj
 0001:000a4dd0       ??0PxSimulationStatistics@physx@@QAE@XZ 100a5dd0 f i PxAutoGeneratedMetaDataObjects.obj
 0001:000a4ed0       ??4PxSceneDesc@physx@@QAEAAV01@$$QAV01@@Z 100a5ed0 f i PxAutoGeneratedMetaDataObjects.obj
 0001:000a50a0       ??_FPxClothStretchConfig@physx@@QAEXXZ 100a60a0 f i PxAutoGeneratedMetaDataObjects.obj
 0001:000a50d0       ?getPxActorUserData@@YAPAXPBVPxActor@physx@@@Z 100a60d0 f i PxAutoGeneratedMetaDataObjects.obj
 0001:000a50e0       ?getPxArticulationUserData@@YAPAXPBVPxArticulation@physx@@@Z 100a60e0 f i PxAutoGeneratedMetaDataObjects.obj
 0001:000a50f0       ?getPxBoxGeometryHalfExtents@@YA?AVPxVec3@physx@@PBVPxBoxGeometry@2@@Z 100a60f0 f i PxAutoGeneratedMetaDataObjects.obj
 0001:000a5120       ?getPxCapsuleGeometryHalfHeight@@YAMPBVPxCapsuleGeometry@physx@@@Z 100a6120 f i PxAutoGeneratedMetaDataObjects.obj
 0001:000a5130       ?getPxCapsuleGeometryRadius@@YAMPBVPxCapsuleGeometry@physx@@@Z 100a6130 f i PxAutoGeneratedMetaDataObjects.obj
 0001:000a5140       ?getPxClothFabricPhasePhaseType@@YA?AW4Enum@PxClothFabricPhaseType@physx@@PBUPxClothFabricPhase@3@@Z 100a6140 f i PxAutoGeneratedMetaDataObjects.obj
 0001:000a5150       ?getPxClothFabricPhaseSetIndex@@YAIPBUPxClothFabricPhase@physx@@@Z 100a6150 f i PxAutoGeneratedMetaDataObjects.obj
 0001:000a5160       ?getPxClothMotionConstraintConfigBias@@YAMPBUPxClothMotionConstraintConfig@physx@@@Z 100a6160 f i PxAutoGeneratedMetaDataObjects.obj
 0001:000a5170       ?getPxClothMotionConstraintConfigScale@@YAMPBUPxClothMotionConstraintConfig@physx@@@Z 100a6170 f i PxAutoGeneratedMetaDataObjects.obj
 0001:000a5180       ?getPxClothMotionConstraintConfigStiffness@@YAMPBUPxClothMotionConstraintConfig@physx@@@Z 100a6180 f i PxAutoGeneratedMetaDataObjects.obj
 0001:000a5190       ?getPxClothParticleDataParticles@@YAPAUPxClothParticle@physx@@PBVPxClothParticleData@2@@Z 100a6190 f i PxAutoGeneratedMetaDataObjects.obj
 0001:000a51a0       ?getPxClothParticleDataPreviousParticles@@YAPAUPxClothParticle@physx@@PBVPxClothParticleData@2@@Z 100a61a0 f i PxAutoGeneratedMetaDataObjects.obj
 0001:000a51b0       ?getPxClothParticleInvWeight@@YAMPBUPxClothParticle@physx@@@Z 100a61b0 f i PxAutoGeneratedMetaDataObjects.obj
 0001:000a51c0       ?getPxClothParticlePos@@YA?AVPxVec3@physx@@PBUPxClothParticle@2@@Z 100a61c0 f i PxAutoGeneratedMetaDataObjects.obj
 0001:000a51f0       ?getPxClothStretchConfigCompressionLimit@@YAMPBUPxClothStretchConfig@physx@@@Z 100a61f0 f i PxAutoGeneratedMetaDataObjects.obj
 0001:000a5200       ?getPxClothStretchConfigStiffness@@YAMPBUPxClothStretchConfig@physx@@@Z 100a6200 f i PxAutoGeneratedMetaDataObjects.obj
 0001:000a5210       ?getPxClothStretchConfigStiffnessMultiplier@@YAMPBUPxClothStretchConfig@physx@@@Z 100a6210 f i PxAutoGeneratedMetaDataObjects.obj
 0001:000a5220       ?getPxClothStretchConfigStretchLimit@@YAMPBUPxClothStretchConfig@physx@@@Z 100a6220 f i PxAutoGeneratedMetaDataObjects.obj
 0001:000a5230       ?getPxClothTetherConfigStiffness@@YAMPBUPxClothTetherConfig@physx@@@Z 100a6230 f i PxAutoGeneratedMetaDataObjects.obj
 0001:000a5240       ?getPxClothTetherConfigStretchLimit@@YAMPBUPxClothTetherConfig@physx@@@Z 100a6240 f i PxAutoGeneratedMetaDataObjects.obj
 0001:000a5250       ?getPxConvexMeshGeometryConvexMesh@@YAPAVPxConvexMesh@physx@@PBVPxConvexMeshGeometry@2@@Z 100a6250 f i PxAutoGeneratedMetaDataObjects.obj
 0001:000a5260       ?getPxConvexMeshGeometryScale@@YA?AVPxMeshScale@physx@@PBVPxConvexMeshGeometry@2@@Z 100a6260 f i PxAutoGeneratedMetaDataObjects.obj
 0001:000a52b0       ?getPxHeightFieldDescConvexEdgeThreshold@@YAMPBVPxHeightFieldDesc@physx@@@Z 100a62b0 f i PxAutoGeneratedMetaDataObjects.obj
 0001:000a52c0       ?getPxHeightFieldDescFlags@@YA?AV?$PxFlags@W4Enum@PxHeightFieldFlag@physx@@G@physx@@PBVPxHeightFieldDesc@2@@Z 100a62c0 f i PxAutoGeneratedMetaDataObjects.obj
 0001:000a52e0       ?getPxHeightFieldDescFormat@@YA?AW4Enum@PxHeightFieldFormat@physx@@PBVPxHeightFieldDesc@3@@Z 100a62e0 f i PxAutoGeneratedMetaDataObjects.obj
 0001:000a52f0       ?getPxHeightFieldDescNbColumns@@YAIPBVPxHeightFieldDesc@physx@@@Z 100a62f0 f i PxAutoGeneratedMetaDataObjects.obj
 0001:000a5300       ?getPxHeightFieldDescNbRows@@YAIPBVPxHeightFieldDesc@physx@@@Z 100a6300 f i PxAutoGeneratedMetaDataObjects.obj
 0001:000a5310       ?getPxHeightFieldDescSamples@@YA?AUPxStridedData@physx@@PBVPxHeightFieldDesc@2@@Z 100a6310 f i PxAutoGeneratedMetaDataObjects.obj
 0001:000a5330       ?getPxHeightFieldDescThickness@@YAMPBVPxHeightFieldDesc@physx@@@Z 100a6330 f i PxAutoGeneratedMetaDataObjects.obj
 0001:000a5340       ?getPxHeightFieldGeometryColumnScale@@YAMPBVPxHeightFieldGeometry@physx@@@Z 100a6340 f i PxAutoGeneratedMetaDataObjects.obj
 0001:000a5350       ?getPxHeightFieldGeometryHeightField@@YAPAVPxHeightField@physx@@PBVPxHeightFieldGeometry@2@@Z 100a6350 f i PxAutoGeneratedMetaDataObjects.obj
 0001:000a5360       ?getPxHeightFieldGeometryHeightFieldFlags@@YA?AV?$PxFlags@W4Enum@PxMeshGeometryFlag@physx@@E@physx@@PBVPxHeightFieldGeometry@2@@Z 100a6360 f i PxAutoGeneratedMetaDataObjects.obj
 0001:000a5380       ?getPxHeightFieldGeometryHeightScale@@YAMPBVPxHeightFieldGeometry@physx@@@Z 100a6380 f i PxAutoGeneratedMetaDataObjects.obj
 0001:000a5390       ?getPxHeightFieldGeometryRowScale@@YAMPBVPxHeightFieldGeometry@physx@@@Z 100a6390 f i PxAutoGeneratedMetaDataObjects.obj
 0001:000a53a0       ?getPxMaterialUserData@@YAPAXPBVPxMaterial@physx@@@Z 100a63a0 f i PxAutoGeneratedMetaDataObjects.obj
 0001:000a53b0       ?getPxMeshScaleRotation@@YA?AVPxQuat@physx@@PBVPxMeshScale@2@@Z 100a63b0 f i PxAutoGeneratedMetaDataObjects.obj
 0001:000a53e0       ?getPxMeshScaleScale@@YA?AVPxVec3@physx@@PBVPxMeshScale@2@@Z 100a63e0 f i PxAutoGeneratedMetaDataObjects.obj
 0001:000a5410       ?getPxParticleReadDataCollisionNormalBuffer@@YA?AV?$PxStrideIterator@$$CBVPxVec3@physx@@@physx@@PBVPxParticleReadData@2@@Z 100a6410 f i PxAutoGeneratedMetaDataObjects.obj
 0001:000a5430       ?getPxParticleReadDataCollisionVelocityBuffer@@YA?AV?$PxStrideIterator@$$CBVPxVec3@physx@@@physx@@PBVPxParticleReadData@2@@Z 100a6430 f i PxAutoGeneratedMetaDataObjects.obj
 0001:000a5450       ?getPxParticleReadDataFlagsBuffer@@YA?AV?$PxStrideIterator@$$CBV?$PxFlags@W4Enum@PxParticleFlag@physx@@G@physx@@@physx@@PBVPxParticleReadData@2@@Z 100a6450 f i PxAutoGeneratedMetaDataObjects.obj
 0001:000a5470       ?getPxParticleReadDataNbValidParticles@@YAIPBVPxParticleReadData@physx@@@Z 100a6470 f i PxAutoGeneratedMetaDataObjects.obj
 0001:000a5480       ?getPxParticleReadDataPositionBuffer@@YA?AV?$PxStrideIterator@$$CBVPxVec3@physx@@@physx@@PBVPxParticleReadData@2@@Z 100a6480 f i PxAutoGeneratedMetaDataObjects.obj
 0001:000a54a0       ?getPxParticleReadDataRestOffsetBuffer@@YA?AV?$PxStrideIterator@$$CBM@physx@@PBVPxParticleReadData@2@@Z 100a64a0 f i PxAutoGeneratedMetaDataObjects.obj
 0001:000a54c0       ?getPxParticleReadDataValidParticleBitmap@@YAPBIPBVPxParticleReadData@physx@@@Z 100a64c0 f i PxAutoGeneratedMetaDataObjects.obj
 0001:000a54d0       ?getPxParticleReadDataValidParticleRange@@YAIPBVPxParticleReadData@physx@@@Z 100a64d0 f i PxAutoGeneratedMetaDataObjects.obj
 0001:000a54e0       ?getPxParticleReadDataVelocityBuffer@@YA?AV?$PxStrideIterator@$$CBVPxVec3@physx@@@physx@@PBVPxParticleReadData@2@@Z 100a64e0 f i PxAutoGeneratedMetaDataObjects.obj
 0001:000a5500       ?getPxSceneDescBounceThresholdVelocity@@YAMPBVPxSceneDesc@physx@@@Z 100a6500 f i PxAutoGeneratedMetaDataObjects.obj
 0001:000a5510       ?getPxSceneDescBroadPhaseCallback@@YAPAVPxBroadPhaseCallback@physx@@PBVPxSceneDesc@2@@Z 100a6510 f i PxAutoGeneratedMetaDataObjects.obj
 0001:000a5520       ?getPxSceneDescBroadPhaseType@@YA?AW4Enum@PxBroadPhaseType@physx@@PBVPxSceneDesc@3@@Z 100a6520 f i PxAutoGeneratedMetaDataObjects.obj
 0001:000a5530       ?getPxSceneDescCcdContactModifyCallback@@YAPAVPxCCDContactModifyCallback@physx@@PBVPxSceneDesc@2@@Z 100a6530 f i PxAutoGeneratedMetaDataObjects.obj
 0001:000a5540       ?getPxSceneDescCcdMaxPasses@@YAIPBVPxSceneDesc@physx@@@Z 100a6540 f i PxAutoGeneratedMetaDataObjects.obj
 0001:000a5560       ?getPxSceneDescContactCorrelationDistance@@YAMPBVPxSceneDesc@physx@@@Z 100a6560 f i PxAutoGeneratedMetaDataObjects.obj
 0001:000a5570       ?getPxSceneDescContactModifyCallback@@YAPAVPxContactModifyCallback@physx@@PBVPxSceneDesc@2@@Z 100a6570 f i PxAutoGeneratedMetaDataObjects.obj
 0001:000a5580       ?getPxSceneDescContactReportStreamBufferSize@@YAIPBVPxSceneDesc@physx@@@Z 100a6580 f i PxAutoGeneratedMetaDataObjects.obj
 0001:000a55a0       ?getPxSceneDescCpuDispatcher@@YAPAVPxCpuDispatcher@physx@@PBVPxSceneDesc@2@@Z 100a65a0 f i PxAutoGeneratedMetaDataObjects.obj
 0001:000a55b0       ?getPxSceneDescDynamicStructure@@YA?AW4Enum@PxPruningStructure@physx@@PBVPxSceneDesc@3@@Z 100a65b0 f i PxAutoGeneratedMetaDataObjects.obj
 0001:000a55c0       ?getPxSceneDescDynamicTreeRebuildRateHint@@YAIPBVPxSceneDesc@physx@@@Z 100a65c0 f i PxAutoGeneratedMetaDataObjects.obj
 0001:000a55d0       ?getPxSceneDescFilterCallback@@YAPAVPxSimulationFilterCallback@physx@@PBVPxSceneDesc@2@@Z 100a65d0 f i PxAutoGeneratedMetaDataObjects.obj
 0001:000a55e0       ?getPxSceneDescFilterShader@@YAP6A?AV?$PxFlags@W4Enum@PxFilterFlag@physx@@G@physx@@IUPxFilterData@2@I0AAV?$PxFlags@W4Enum@PxPairFlag@physx@@G@2@PBXI@ZPBVPxSceneDesc@2@@Z 100a65e0 f i PxAutoGeneratedMetaDataObjects.obj
 0001:000a55f0       ?getPxSceneDescFilterShaderData@@YAPBXPBVPxSceneDesc@physx@@@Z 100a65f0 f i PxAutoGeneratedMetaDataObjects.obj
 0001:000a5600       ?getPxSceneDescFilterShaderDataSize@@YAIPBVPxSceneDesc@physx@@@Z 100a6600 f i PxAutoGeneratedMetaDataObjects.obj
 0001:000a5610       ?getPxSceneDescFlags@@YA?AV?$PxFlags@W4Enum@PxSceneFlag@physx@@G@physx@@PBVPxSceneDesc@2@@Z 100a6610 f i PxAutoGeneratedMetaDataObjects.obj
 0001:000a5630       ?getPxSceneDescFrictionOffsetThreshold@@YAMPBVPxSceneDesc@physx@@@Z 100a6630 f i PxAutoGeneratedMetaDataObjects.obj
 0001:000a5640       ?getPxSceneDescFrictionType@@YA?AW4Enum@PxFrictionType@physx@@PBVPxSceneDesc@3@@Z 100a6640 f i PxAutoGeneratedMetaDataObjects.obj
 0001:000a5650       ?getPxSceneDescGpuDispatcher@@YAPAVPxGpuDispatcher@physx@@PBVPxSceneDesc@2@@Z 100a6650 f i PxAutoGeneratedMetaDataObjects.obj
 0001:000a5660       ?getPxSceneDescGravity@@YA?AVPxVec3@physx@@PBVPxSceneDesc@2@@Z 100a6660 f i PxAutoGeneratedMetaDataObjects.obj
 0001:000a5690       ?getPxSceneDescLimits@@YA?AVPxSceneLimits@physx@@PBVPxSceneDesc@2@@Z 100a6690 f i PxAutoGeneratedMetaDataObjects.obj
 0001:000a56b0       ?getPxSceneDescMaxNbContactDataBlocks@@YAIPBVPxSceneDesc@physx@@@Z 100a66b0 f i PxAutoGeneratedMetaDataObjects.obj
 0001:000a56d0       ?getPxSceneDescMeshContactMargin@@YAMPBVPxSceneDesc@physx@@@Z 100a66d0 f i PxAutoGeneratedMetaDataObjects.obj
 0001:000a56e0       ?getPxSceneDescNbContactDataBlocks@@YAIPBVPxSceneDesc@physx@@@Z 100a66e0 f i PxAutoGeneratedMetaDataObjects.obj
 0001:000a5700       ?getPxSceneDescSanityBounds@@YA?AVPxBounds3@physx@@PBVPxSceneDesc@2@@Z 100a6700 f i PxAutoGeneratedMetaDataObjects.obj
 0001:000a5760       ?getPxSceneDescSimulationEventCallback@@YAPAVPxSimulationEventCallback@physx@@PBVPxSceneDesc@2@@Z 100a6760 f i PxAutoGeneratedMetaDataObjects.obj
 0001:000a5770       ?getPxSceneDescSimulationOrder@@YA?AW4Enum@PxSimulationOrder@physx@@PBVPxSceneDesc@3@@Z 100a6770 f i PxAutoGeneratedMetaDataObjects.obj
 0001:000a5790       ?getPxSceneDescSolverBatchSize@@YAIPBVPxSceneDesc@physx@@@Z 100a6790 f i PxAutoGeneratedMetaDataObjects.obj
 0001:000a57b0       ?getPxSceneDescSpuDispatcher@@YAPAVPxSpuDispatcher@physx@@PBVPxSceneDesc@2@@Z 100a67b0 f i PxAutoGeneratedMetaDataObjects.obj
 0001:000a57c0       ?getPxSceneDescStaticStructure@@YA?AW4Enum@PxPruningStructure@physx@@PBVPxSceneDesc@3@@Z 100a67c0 f i PxAutoGeneratedMetaDataObjects.obj
 0001:000a57d0       ?getPxSceneDescUserData@@YAPAXPBVPxSceneDesc@physx@@@Z 100a67d0 f i PxAutoGeneratedMetaDataObjects.obj
 0001:000a57f0       ?getPxSceneDescWakeCounterResetValue@@YAMPBVPxSceneDesc@physx@@@Z 100a67f0 f i PxAutoGeneratedMetaDataObjects.obj
 0001:000a5810       ?getPxSceneLimitsMaxNbActors@@YAIPBVPxSceneLimits@physx@@@Z 100a6810 f i PxAutoGeneratedMetaDataObjects.obj
 0001:000a5820       ?getPxSceneLimitsMaxNbAggregates@@YAIPBVPxSceneLimits@physx@@@Z 100a6820 f i PxAutoGeneratedMetaDataObjects.obj
 0001:000a5830       ?getPxSceneLimitsMaxNbBodies@@YAIPBVPxSceneLimits@physx@@@Z 100a6830 f i PxAutoGeneratedMetaDataObjects.obj
 0001:000a5840       ?getPxSceneLimitsMaxNbConstraints@@YAIPBVPxSceneLimits@physx@@@Z 100a6840 f i PxAutoGeneratedMetaDataObjects.obj
 0001:000a5850       ?getPxSceneLimitsMaxNbDynamicShapes@@YAIPBVPxSceneLimits@physx@@@Z 100a6850 f i PxAutoGeneratedMetaDataObjects.obj
 0001:000a5860       ?getPxSceneLimitsMaxNbObjectsPerRegion@@YAIPBVPxSceneLimits@physx@@@Z 100a6860 f i PxAutoGeneratedMetaDataObjects.obj
 0001:000a5870       ?getPxSceneLimitsMaxNbRegions@@YAIPBVPxSceneLimits@physx@@@Z 100a6870 f i PxAutoGeneratedMetaDataObjects.obj
 0001:000a5880       ?getPxSceneLimitsMaxNbStaticShapes@@YAIPBVPxSceneLimits@physx@@@Z 100a6880 f i PxAutoGeneratedMetaDataObjects.obj
 0001:000a5890       ?getPxSceneUserData@@YAPAXPBVPxScene@physx@@@Z 100a6890 f i PxAutoGeneratedMetaDataObjects.obj
 0001:000a58a0       ?getPxShapeUserData@@YAPAXPBVPxShape@physx@@@Z 100a68a0 f i PxAutoGeneratedMetaDataObjects.obj
 0001:000a58b0       ?getPxSimulationStatisticsCompressedContactSize@@YAIPBVPxSimulationStatistics@physx@@@Z 100a68b0 f i PxAutoGeneratedMetaDataObjects.obj
 0001:000a58c0       ?getPxSimulationStatisticsNbActiveConstraints@@YAIPBVPxSimulationStatistics@physx@@@Z 100a68c0 f i PxAutoGeneratedMetaDataObjects.obj
 0001:000a58d0       ?getPxSimulationStatisticsNbActiveDynamicBodies@@YAIPBVPxSimulationStatistics@physx@@@Z 100a68d0 f i PxAutoGeneratedMetaDataObjects.obj
 0001:000a58e0       ?getPxSimulationStatisticsNbActiveKinematicBodies@@YAIPBVPxSimulationStatistics@physx@@@Z 100a68e0 f i PxAutoGeneratedMetaDataObjects.obj
 0001:000a58f0       ?getPxSimulationStatisticsNbAxisSolverConstraints@@YAIPBVPxSimulationStatistics@physx@@@Z 100a68f0 f i PxAutoGeneratedMetaDataObjects.obj
 0001:000a5900       ?getPxSimulationStatisticsNbDynamicBodies@@YAIPBVPxSimulationStatistics@physx@@@Z 100a6900 f i PxAutoGeneratedMetaDataObjects.obj
 0001:000a5910       ?getPxSimulationStatisticsNbStaticBodies@@YAIPBVPxSimulationStatistics@physx@@@Z 100a6910 f i PxAutoGeneratedMetaDataObjects.obj
 0001:000a5920       ?getPxSimulationStatisticsParticlesGpuMeshCacheHitrate@@YAMPBVPxSimulationStatistics@physx@@@Z 100a6920 f i PxAutoGeneratedMetaDataObjects.obj
 0001:000a5940       ?getPxSimulationStatisticsParticlesGpuMeshCacheSize@@YAIPBVPxSimulationStatistics@physx@@@Z 100a6940 f i PxAutoGeneratedMetaDataObjects.obj
 0001:000a5960       ?getPxSimulationStatisticsParticlesGpuMeshCacheUsed@@YAIPBVPxSimulationStatistics@physx@@@Z 100a6960 f i PxAutoGeneratedMetaDataObjects.obj
 0001:000a5980       ?getPxSimulationStatisticsPeakConstraintMemory@@YAIPBVPxSimulationStatistics@physx@@@Z 100a6980 f i PxAutoGeneratedMetaDataObjects.obj
 0001:000a5990       ?getPxSimulationStatisticsRequiredContactConstraintMemory@@YAIPBVPxSimulationStatistics@physx@@@Z 100a6990 f i PxAutoGeneratedMetaDataObjects.obj
 0001:000a59a0       ?getPxSimulationStatisticsTotalDiscreteContactPairsAnyShape@@YAIPBVPxSimulationStatistics@physx@@@Z 100a69a0 f i PxAutoGeneratedMetaDataObjects.obj
 0001:000a59c0       ?getPxSphereGeometryRadius@@YAMPBVPxSphereGeometry@physx@@@Z 100a69c0 f i PxAutoGeneratedMetaDataObjects.obj
 0001:000a59d0       ?getPxTolerancesScaleLength@@YAMPBVPxTolerancesScale@physx@@@Z 100a69d0 f i PxAutoGeneratedMetaDataObjects.obj
 0001:000a59e0       ?getPxTolerancesScaleMass@@YAMPBVPxTolerancesScale@physx@@@Z 100a69e0 f i PxAutoGeneratedMetaDataObjects.obj
 0001:000a59f0       ?getPxTolerancesScaleSpeed@@YAMPBVPxTolerancesScale@physx@@@Z 100a69f0 f i PxAutoGeneratedMetaDataObjects.obj
 0001:000a5a00       ?getPxTriangleMeshGeometryMeshFlags@@YA?AV?$PxFlags@W4Enum@PxMeshGeometryFlag@physx@@E@physx@@PBVPxTriangleMeshGeometry@2@@Z 100a6a00 f i PxAutoGeneratedMetaDataObjects.obj
 0001:000a5a20       ?getPxTriangleMeshGeometryScale@@YA?AVPxMeshScale@physx@@PBVPxTriangleMeshGeometry@2@@Z 100a6a20 f i PxAutoGeneratedMetaDataObjects.obj
 0001:000a5a70       ?getPxTriangleMeshGeometryTriangleMesh@@YAPAVPxTriangleMesh@physx@@PBVPxTriangleMeshGeometry@2@@Z 100a6a70 f i PxAutoGeneratedMetaDataObjects.obj
 0001:000a5a80       ?setPxActorUserData@@YAXPAVPxActor@physx@@PAX@Z 100a6a80 f i PxAutoGeneratedMetaDataObjects.obj
 0001:000a5aa0       ?setPxArticulationUserData@@YAXPAVPxArticulation@physx@@PAX@Z 100a6aa0 f i PxAutoGeneratedMetaDataObjects.obj
 0001:000a5ac0       ?setPxBoxGeometryHalfExtents@@YAXPAVPxBoxGeometry@physx@@VPxVec3@2@@Z 100a6ac0 f i PxAutoGeneratedMetaDataObjects.obj
 0001:000a5af0       ?setPxCapsuleGeometryHalfHeight@@YAXPAVPxCapsuleGeometry@physx@@M@Z 100a6af0 f i PxAutoGeneratedMetaDataObjects.obj
 0001:000a5b10       ?setPxCapsuleGeometryRadius@@YAXPAVPxCapsuleGeometry@physx@@M@Z 100a6b10 f i PxAutoGeneratedMetaDataObjects.obj
 0001:000a5b30       ?setPxClothFabricPhasePhaseType@@YAXPAUPxClothFabricPhase@physx@@W4Enum@PxClothFabricPhaseType@2@@Z 100a6b30 f i PxAutoGeneratedMetaDataObjects.obj
 0001:000a5b40       ?setPxClothFabricPhaseSetIndex@@YAXPAUPxClothFabricPhase@physx@@I@Z 100a6b40 f i PxAutoGeneratedMetaDataObjects.obj
 0001:000a5b60       ?setPxClothMotionConstraintConfigBias@@YAXPAUPxClothMotionConstraintConfig@physx@@M@Z 100a6b60 f i PxAutoGeneratedMetaDataObjects.obj
 0001:000a5b80       ?setPxClothMotionConstraintConfigScale@@YAXPAUPxClothMotionConstraintConfig@physx@@M@Z 100a6b80 f i PxAutoGeneratedMetaDataObjects.obj
 0001:000a5ba0       ?setPxClothMotionConstraintConfigStiffness@@YAXPAUPxClothMotionConstraintConfig@physx@@M@Z 100a6ba0 f i PxAutoGeneratedMetaDataObjects.obj
 0001:000a5bc0       ?setPxClothParticleDataParticles@@YAXPAVPxClothParticleData@physx@@PAUPxClothParticle@2@@Z 100a6bc0 f i PxAutoGeneratedMetaDataObjects.obj
 0001:000a5be0       ?setPxClothParticleDataPreviousParticles@@YAXPAVPxClothParticleData@physx@@PAUPxClothParticle@2@@Z 100a6be0 f i PxAutoGeneratedMetaDataObjects.obj
 0001:000a5c00       ?setPxClothParticleInvWeight@@YAXPAUPxClothParticle@physx@@M@Z 100a6c00 f i PxAutoGeneratedMetaDataObjects.obj
 0001:000a5c20       ?setPxClothParticlePos@@YAXPAUPxClothParticle@physx@@VPxVec3@2@@Z 100a6c20 f i PxAutoGeneratedMetaDataObjects.obj
 0001:000a5c50       ?setPxClothStretchConfigCompressionLimit@@YAXPAUPxClothStretchConfig@physx@@M@Z 100a6c50 f i PxAutoGeneratedMetaDataObjects.obj
 0001:000a5c70       ?setPxClothStretchConfigStiffness@@YAXPAUPxClothStretchConfig@physx@@M@Z 100a6c70 f i PxAutoGeneratedMetaDataObjects.obj
 0001:000a5c90       ?setPxClothStretchConfigStiffnessMultiplier@@YAXPAUPxClothStretchConfig@physx@@M@Z 100a6c90 f i PxAutoGeneratedMetaDataObjects.obj
 0001:000a5cb0       ?setPxClothStretchConfigStretchLimit@@YAXPAUPxClothStretchConfig@physx@@M@Z 100a6cb0 f i PxAutoGeneratedMetaDataObjects.obj
 0001:000a5cd0       ?setPxClothTetherConfigStiffness@@YAXPAUPxClothTetherConfig@physx@@M@Z 100a6cd0 f i PxAutoGeneratedMetaDataObjects.obj
 0001:000a5cf0       ?setPxClothTetherConfigStretchLimit@@YAXPAUPxClothTetherConfig@physx@@M@Z 100a6cf0 f i PxAutoGeneratedMetaDataObjects.obj
 0001:000a5d10       ?setPxConvexMeshGeometryConvexMesh@@YAXPAVPxConvexMeshGeometry@physx@@PAVPxConvexMesh@2@@Z 100a6d10 f i PxAutoGeneratedMetaDataObjects.obj
 0001:000a5d30       ?setPxConvexMeshGeometryScale@@YAXPAVPxConvexMeshGeometry@physx@@VPxMeshScale@2@@Z 100a6d30 f i PxAutoGeneratedMetaDataObjects.obj
 0001:000a5d70       ?setPxHeightFieldDescConvexEdgeThreshold@@YAXPAVPxHeightFieldDesc@physx@@M@Z 100a6d70 f i PxAutoGeneratedMetaDataObjects.obj
 0001:000a5d90       ?setPxHeightFieldDescFlags@@YAXPAVPxHeightFieldDesc@physx@@V?$PxFlags@W4Enum@PxHeightFieldFlag@physx@@G@2@@Z 100a6d90 f i PxAutoGeneratedMetaDataObjects.obj
 0001:000a5db0       ?setPxHeightFieldDescFormat@@YAXPAVPxHeightFieldDesc@physx@@W4Enum@PxHeightFieldFormat@2@@Z 100a6db0 f i PxAutoGeneratedMetaDataObjects.obj
 0001:000a5dd0       ?setPxHeightFieldDescNbColumns@@YAXPAVPxHeightFieldDesc@physx@@I@Z 100a6dd0 f i PxAutoGeneratedMetaDataObjects.obj
 0001:000a5df0       ?setPxHeightFieldDescNbRows@@YAXPAVPxHeightFieldDesc@physx@@I@Z 100a6df0 f i PxAutoGeneratedMetaDataObjects.obj
 0001:000a5e00       ?setPxHeightFieldDescSamples@@YAXPAVPxHeightFieldDesc@physx@@UPxStridedData@2@@Z 100a6e00 f i PxAutoGeneratedMetaDataObjects.obj
 0001:000a5e20       ?setPxHeightFieldDescThickness@@YAXPAVPxHeightFieldDesc@physx@@M@Z 100a6e20 f i PxAutoGeneratedMetaDataObjects.obj
 0001:000a5e40       ?setPxHeightFieldGeometryColumnScale@@YAXPAVPxHeightFieldGeometry@physx@@M@Z 100a6e40 f i PxAutoGeneratedMetaDataObjects.obj
 0001:000a5e60       ?setPxHeightFieldGeometryHeightField@@YAXPAVPxHeightFieldGeometry@physx@@PAVPxHeightField@2@@Z 100a6e60 f i PxAutoGeneratedMetaDataObjects.obj
 0001:000a5e80       ?setPxHeightFieldGeometryHeightFieldFlags@@YAXPAVPxHeightFieldGeometry@physx@@V?$PxFlags@W4Enum@PxMeshGeometryFlag@physx@@E@2@@Z 100a6e80 f i PxAutoGeneratedMetaDataObjects.obj
 0001:000a5ea0       ?setPxHeightFieldGeometryHeightScale@@YAXPAVPxHeightFieldGeometry@physx@@M@Z 100a6ea0 f i PxAutoGeneratedMetaDataObjects.obj
 0001:000a5ec0       ?setPxHeightFieldGeometryRowScale@@YAXPAVPxHeightFieldGeometry@physx@@M@Z 100a6ec0 f i PxAutoGeneratedMetaDataObjects.obj
 0001:000a5ee0       ?setPxMaterialUserData@@YAXPAVPxMaterial@physx@@PAX@Z 100a6ee0 f i PxAutoGeneratedMetaDataObjects.obj
 0001:000a5f00       ?setPxMeshScaleRotation@@YAXPAVPxMeshScale@physx@@VPxQuat@2@@Z 100a6f00 f i PxAutoGeneratedMetaDataObjects.obj
 0001:000a5f20       ?setPxMeshScaleScale@@YAXPAVPxMeshScale@physx@@VPxVec3@2@@Z 100a6f20 f i PxAutoGeneratedMetaDataObjects.obj
 0001:000a5f50       ?setPxParticleReadDataCollisionNormalBuffer@@YAXPAVPxParticleReadData@physx@@V?$PxStrideIterator@$$CBVPxVec3@physx@@@2@@Z 100a6f50 f i PxAutoGeneratedMetaDataObjects.obj
 0001:000a5f70       ?setPxParticleReadDataCollisionVelocityBuffer@@YAXPAVPxParticleReadData@physx@@V?$PxStrideIterator@$$CBVPxVec3@physx@@@2@@Z 100a6f70 f i PxAutoGeneratedMetaDataObjects.obj
 0001:000a5f90       ?setPxParticleReadDataFlagsBuffer@@YAXPAVPxParticleReadData@physx@@V?$PxStrideIterator@$$CBV?$PxFlags@W4Enum@PxParticleFlag@physx@@G@physx@@@2@@Z 100a6f90 f i PxAutoGeneratedMetaDataObjects.obj
 0001:000a5fb0       ?setPxParticleReadDataNbValidParticles@@YAXPAVPxParticleReadData@physx@@I@Z 100a6fb0 f i PxAutoGeneratedMetaDataObjects.obj
 0001:000a5fd0       ?setPxParticleReadDataPositionBuffer@@YAXPAVPxParticleReadData@physx@@V?$PxStrideIterator@$$CBVPxVec3@physx@@@2@@Z 100a6fd0 f i PxAutoGeneratedMetaDataObjects.obj
 0001:000a5ff0       ?setPxParticleReadDataRestOffsetBuffer@@YAXPAVPxParticleReadData@physx@@V?$PxStrideIterator@$$CBM@2@@Z 100a6ff0 f i PxAutoGeneratedMetaDataObjects.obj
 0001:000a6010       ?setPxParticleReadDataValidParticleBitmap@@YAXPAVPxParticleReadData@physx@@PBI@Z 100a7010 f i PxAutoGeneratedMetaDataObjects.obj
 0001:000a6030       ?setPxParticleReadDataValidParticleRange@@YAXPAVPxParticleReadData@physx@@I@Z 100a7030 f i PxAutoGeneratedMetaDataObjects.obj
 0001:000a6050       ?setPxParticleReadDataVelocityBuffer@@YAXPAVPxParticleReadData@physx@@V?$PxStrideIterator@$$CBVPxVec3@physx@@@2@@Z 100a7050 f i PxAutoGeneratedMetaDataObjects.obj
 0001:000a6070       ?setPxSceneDescBounceThresholdVelocity@@YAXPAVPxSceneDesc@physx@@M@Z 100a7070 f i PxAutoGeneratedMetaDataObjects.obj
 0001:000a6090       ?setPxSceneDescBroadPhaseCallback@@YAXPAVPxSceneDesc@physx@@PAVPxBroadPhaseCallback@2@@Z 100a7090 f i PxAutoGeneratedMetaDataObjects.obj
 0001:000a60b0       ?setPxSceneDescBroadPhaseType@@YAXPAVPxSceneDesc@physx@@W4Enum@PxBroadPhaseType@2@@Z 100a70b0 f i PxAutoGeneratedMetaDataObjects.obj
 0001:000a60d0       ?setPxSceneDescCcdContactModifyCallback@@YAXPAVPxSceneDesc@physx@@PAVPxCCDContactModifyCallback@2@@Z 100a70d0 f i PxAutoGeneratedMetaDataObjects.obj
 0001:000a60f0       ?setPxSceneDescCcdMaxPasses@@YAXPAVPxSceneDesc@physx@@I@Z 100a70f0 f i PxAutoGeneratedMetaDataObjects.obj
 0001:000a6110       ?setPxSceneDescContactCorrelationDistance@@YAXPAVPxSceneDesc@physx@@M@Z 100a7110 f i PxAutoGeneratedMetaDataObjects.obj
 0001:000a6130       ?setPxSceneDescContactModifyCallback@@YAXPAVPxSceneDesc@physx@@PAVPxContactModifyCallback@2@@Z 100a7130 f i PxAutoGeneratedMetaDataObjects.obj
 0001:000a6150       ?setPxSceneDescContactReportStreamBufferSize@@YAXPAVPxSceneDesc@physx@@I@Z 100a7150 f i PxAutoGeneratedMetaDataObjects.obj
 0001:000a6170       ?setPxSceneDescCpuDispatcher@@YAXPAVPxSceneDesc@physx@@PAVPxCpuDispatcher@2@@Z 100a7170 f i PxAutoGeneratedMetaDataObjects.obj
 0001:000a6190       ?setPxSceneDescDynamicStructure@@YAXPAVPxSceneDesc@physx@@W4Enum@PxPruningStructure@2@@Z 100a7190 f i PxAutoGeneratedMetaDataObjects.obj
 0001:000a61b0       ?setPxSceneDescDynamicTreeRebuildRateHint@@YAXPAVPxSceneDesc@physx@@I@Z 100a71b0 f i PxAutoGeneratedMetaDataObjects.obj
 0001:000a61d0       ?setPxSceneDescFilterCallback@@YAXPAVPxSceneDesc@physx@@PAVPxSimulationFilterCallback@2@@Z 100a71d0 f i PxAutoGeneratedMetaDataObjects.obj
 0001:000a61f0       ?setPxSceneDescFilterShader@@YAXPAVPxSceneDesc@physx@@P6A?AV?$PxFlags@W4Enum@PxFilterFlag@physx@@G@2@IUPxFilterData@2@I1AAV?$PxFlags@W4Enum@PxPairFlag@physx@@G@2@PBXI@Z@Z 100a71f0 f i PxAutoGeneratedMetaDataObjects.obj
 0001:000a6210       ?setPxSceneDescFilterShaderData@@YAXPAVPxSceneDesc@physx@@PBX@Z 100a7210 f i PxAutoGeneratedMetaDataObjects.obj
 0001:000a6230       ?setPxSceneDescFilterShaderDataSize@@YAXPAVPxSceneDesc@physx@@I@Z 100a7230 f i PxAutoGeneratedMetaDataObjects.obj
 0001:000a6250       ?setPxSceneDescFlags@@YAXPAVPxSceneDesc@physx@@V?$PxFlags@W4Enum@PxSceneFlag@physx@@G@2@@Z 100a7250 f i PxAutoGeneratedMetaDataObjects.obj
 0001:000a6270       ?setPxSceneDescFrictionOffsetThreshold@@YAXPAVPxSceneDesc@physx@@M@Z 100a7270 f i PxAutoGeneratedMetaDataObjects.obj
 0001:000a6290       ?setPxSceneDescFrictionType@@YAXPAVPxSceneDesc@physx@@W4Enum@PxFrictionType@2@@Z 100a7290 f i PxAutoGeneratedMetaDataObjects.obj
 0001:000a62b0       ?setPxSceneDescGpuDispatcher@@YAXPAVPxSceneDesc@physx@@PAVPxGpuDispatcher@2@@Z 100a72b0 f i PxAutoGeneratedMetaDataObjects.obj
 0001:000a62d0       ?setPxSceneDescGravity@@YAXPAVPxSceneDesc@physx@@VPxVec3@2@@Z 100a72d0 f i PxAutoGeneratedMetaDataObjects.obj
 0001:000a6300       ?setPxSceneDescLimits@@YAXPAVPxSceneDesc@physx@@VPxSceneLimits@2@@Z 100a7300 f i PxAutoGeneratedMetaDataObjects.obj
 0001:000a6320       ?setPxSceneDescMaxNbContactDataBlocks@@YAXPAVPxSceneDesc@physx@@I@Z 100a7320 f i PxAutoGeneratedMetaDataObjects.obj
 0001:000a6340       ?setPxSceneDescMeshContactMargin@@YAXPAVPxSceneDesc@physx@@M@Z 100a7340 f i PxAutoGeneratedMetaDataObjects.obj
 0001:000a6360       ?setPxSceneDescNbContactDataBlocks@@YAXPAVPxSceneDesc@physx@@I@Z 100a7360 f i PxAutoGeneratedMetaDataObjects.obj
 0001:000a6380       ?setPxSceneDescSanityBounds@@YAXPAVPxSceneDesc@physx@@VPxBounds3@2@@Z 100a7380 f i PxAutoGeneratedMetaDataObjects.obj
 0001:000a63c0       ?setPxSceneDescSimulationEventCallback@@YAXPAVPxSceneDesc@physx@@PAVPxSimulationEventCallback@2@@Z 100a73c0 f i PxAutoGeneratedMetaDataObjects.obj
 0001:000a63e0       ?setPxSceneDescSimulationOrder@@YAXPAVPxSceneDesc@physx@@W4Enum@PxSimulationOrder@2@@Z 100a73e0 f i PxAutoGeneratedMetaDataObjects.obj
 0001:000a6400       ?setPxSceneDescSolverBatchSize@@YAXPAVPxSceneDesc@physx@@I@Z 100a7400 f i PxAutoGeneratedMetaDataObjects.obj
 0001:000a6420       ?setPxSceneDescSpuDispatcher@@YAXPAVPxSceneDesc@physx@@PAVPxSpuDispatcher@2@@Z 100a7420 f i PxAutoGeneratedMetaDataObjects.obj
 0001:000a6440       ?setPxSceneDescStaticStructure@@YAXPAVPxSceneDesc@physx@@W4Enum@PxPruningStructure@2@@Z 100a7440 f i PxAutoGeneratedMetaDataObjects.obj
 0001:000a6460       ?setPxSceneDescUserData@@YAXPAVPxSceneDesc@physx@@PAX@Z 100a7460 f i PxAutoGeneratedMetaDataObjects.obj
 0001:000a6480       ?setPxSceneDescWakeCounterResetValue@@YAXPAVPxSceneDesc@physx@@M@Z 100a7480 f i PxAutoGeneratedMetaDataObjects.obj
 0001:000a64a0       ?setPxSceneLimitsMaxNbActors@@YAXPAVPxSceneLimits@physx@@I@Z 100a74a0 f i PxAutoGeneratedMetaDataObjects.obj
 0001:000a64b0       ?setPxSceneLimitsMaxNbAggregates@@YAXPAVPxSceneLimits@physx@@I@Z 100a74b0 f i PxAutoGeneratedMetaDataObjects.obj
 0001:000a64d0       ?setPxSceneLimitsMaxNbBodies@@YAXPAVPxSceneLimits@physx@@I@Z 100a74d0 f i PxAutoGeneratedMetaDataObjects.obj
 0001:000a64f0       ?setPxSceneLimitsMaxNbConstraints@@YAXPAVPxSceneLimits@physx@@I@Z 100a74f0 f i PxAutoGeneratedMetaDataObjects.obj
 0001:000a6510       ?setPxSceneLimitsMaxNbDynamicShapes@@YAXPAVPxSceneLimits@physx@@I@Z 100a7510 f i PxAutoGeneratedMetaDataObjects.obj
 0001:000a6530       ?setPxSceneLimitsMaxNbObjectsPerRegion@@YAXPAVPxSceneLimits@physx@@I@Z 100a7530 f i PxAutoGeneratedMetaDataObjects.obj
 0001:000a6550       ?setPxSceneLimitsMaxNbRegions@@YAXPAVPxSceneLimits@physx@@I@Z 100a7550 f i PxAutoGeneratedMetaDataObjects.obj
 0001:000a6570       ?setPxSceneLimitsMaxNbStaticShapes@@YAXPAVPxSceneLimits@physx@@I@Z 100a7570 f i PxAutoGeneratedMetaDataObjects.obj
 0001:000a6590       ?setPxSceneUserData@@YAXPAVPxScene@physx@@PAX@Z 100a7590 f i PxAutoGeneratedMetaDataObjects.obj
 0001:000a65b0       ?setPxShapeUserData@@YAXPAVPxShape@physx@@PAX@Z 100a75b0 f i PxAutoGeneratedMetaDataObjects.obj
 0001:000a65d0       ?setPxSimulationStatisticsCompressedContactSize@@YAXPAVPxSimulationStatistics@physx@@I@Z 100a75d0 f i PxAutoGeneratedMetaDataObjects.obj
 0001:000a65f0       ?setPxSimulationStatisticsNbActiveConstraints@@YAXPAVPxSimulationStatistics@physx@@I@Z 100a75f0 f i PxAutoGeneratedMetaDataObjects.obj
 0001:000a6600       ?setPxSimulationStatisticsNbActiveDynamicBodies@@YAXPAVPxSimulationStatistics@physx@@I@Z 100a7600 f i PxAutoGeneratedMetaDataObjects.obj
 0001:000a6620       ?setPxSimulationStatisticsNbActiveKinematicBodies@@YAXPAVPxSimulationStatistics@physx@@I@Z 100a7620 f i PxAutoGeneratedMetaDataObjects.obj
 0001:000a6640       ?setPxSimulationStatisticsNbAxisSolverConstraints@@YAXPAVPxSimulationStatistics@physx@@I@Z 100a7640 f i PxAutoGeneratedMetaDataObjects.obj
 0001:000a6660       ?setPxSimulationStatisticsNbDynamicBodies@@YAXPAVPxSimulationStatistics@physx@@I@Z 100a7660 f i PxAutoGeneratedMetaDataObjects.obj
 0001:000a6680       ?setPxSimulationStatisticsNbStaticBodies@@YAXPAVPxSimulationStatistics@physx@@I@Z 100a7680 f i PxAutoGeneratedMetaDataObjects.obj
 0001:000a66a0       ?setPxSimulationStatisticsParticlesGpuMeshCacheHitrate@@YAXPAVPxSimulationStatistics@physx@@M@Z 100a76a0 f i PxAutoGeneratedMetaDataObjects.obj
 0001:000a66c0       ?setPxSimulationStatisticsParticlesGpuMeshCacheSize@@YAXPAVPxSimulationStatistics@physx@@I@Z 100a76c0 f i PxAutoGeneratedMetaDataObjects.obj
 0001:000a66e0       ?setPxSimulationStatisticsParticlesGpuMeshCacheUsed@@YAXPAVPxSimulationStatistics@physx@@I@Z 100a76e0 f i PxAutoGeneratedMetaDataObjects.obj
 0001:000a6700       ?setPxSimulationStatisticsPeakConstraintMemory@@YAXPAVPxSimulationStatistics@physx@@I@Z 100a7700 f i PxAutoGeneratedMetaDataObjects.obj
 0001:000a6720       ?setPxSimulationStatisticsRequiredContactConstraintMemory@@YAXPAVPxSimulationStatistics@physx@@I@Z 100a7720 f i PxAutoGeneratedMetaDataObjects.obj
 0001:000a6740       ?setPxSimulationStatisticsTotalDiscreteContactPairsAnyShape@@YAXPAVPxSimulationStatistics@physx@@I@Z 100a7740 f i PxAutoGeneratedMetaDataObjects.obj
 0001:000a6760       ?setPxSphereGeometryRadius@@YAXPAVPxSphereGeometry@physx@@M@Z 100a7760 f i PxAutoGeneratedMetaDataObjects.obj
 0001:000a6780       ?setPxTolerancesScaleLength@@YAXPAVPxTolerancesScale@physx@@M@Z 100a7780 f i PxAutoGeneratedMetaDataObjects.obj
 0001:000a67a0       ?setPxTolerancesScaleMass@@YAXPAVPxTolerancesScale@physx@@M@Z 100a77a0 f i PxAutoGeneratedMetaDataObjects.obj
 0001:000a67c0       ?setPxTolerancesScaleSpeed@@YAXPAVPxTolerancesScale@physx@@M@Z 100a77c0 f i PxAutoGeneratedMetaDataObjects.obj
 0001:000a67e0       ?setPxTriangleMeshGeometryMeshFlags@@YAXPAVPxTriangleMeshGeometry@physx@@V?$PxFlags@W4Enum@PxMeshGeometryFlag@physx@@E@2@@Z 100a77e0 f i PxAutoGeneratedMetaDataObjects.obj
 0001:000a6800       ?setPxTriangleMeshGeometryScale@@YAXPAVPxTriangleMeshGeometry@physx@@VPxMeshScale@2@@Z 100a7800 f i PxAutoGeneratedMetaDataObjects.obj
 0001:000a6840       ?setPxTriangleMeshGeometryTriangleMesh@@YAXPAVPxTriangleMeshGeometry@physx@@PAVPxTriangleMesh@2@@Z 100a7840 f i PxAutoGeneratedMetaDataObjects.obj
 0001:000a6860       ?getGeometryType@PxShapeGeometryPropertyHelper@physx@@QBE?AW4Enum@PxGeometryType@2@PBVPxShape@2@@Z 100a7860 f   PxMetaDataObjects.obj
 0001:000a6870       ?getGeometry@PxShapeGeometryPropertyHelper@physx@@QBE_NPBVPxShape@2@AAVPxBoxGeometry@2@@Z 100a7870 f   PxMetaDataObjects.obj
 0001:000a6890       ?getGeometry@PxShapeGeometryPropertyHelper@physx@@QBE_NPBVPxShape@2@AAVPxSphereGeometry@2@@Z 100a7890 f   PxMetaDataObjects.obj
 0001:000a68b0       ?getGeometry@PxShapeGeometryPropertyHelper@physx@@QBE_NPBVPxShape@2@AAVPxCapsuleGeometry@2@@Z 100a78b0 f   PxMetaDataObjects.obj
 0001:000a68d0       ?getGeometry@PxShapeGeometryPropertyHelper@physx@@QBE_NPBVPxShape@2@AAVPxPlaneGeometry@2@@Z 100a78d0 f   PxMetaDataObjects.obj
 0001:000a68f0       ?getGeometry@PxShapeGeometryPropertyHelper@physx@@QBE_NPBVPxShape@2@AAVPxConvexMeshGeometry@2@@Z 100a78f0 f   PxMetaDataObjects.obj
 0001:000a6910       ?getGeometry@PxShapeGeometryPropertyHelper@physx@@QBE_NPBVPxShape@2@AAVPxTriangleMeshGeometry@2@@Z 100a7910 f   PxMetaDataObjects.obj
 0001:000a6930       ?getGeometry@PxShapeGeometryPropertyHelper@physx@@QBE_NPBVPxShape@2@AAVPxHeightFieldGeometry@2@@Z 100a7930 f   PxMetaDataObjects.obj
 0001:000a6950       ?setMaterials@PxShapeMaterialsPropertyHelper@physx@@QBEXPAVPxShape@2@PBQAVPxMaterial@2@G@Z 100a7950 f   PxMetaDataObjects.obj
 0001:000a6970       ?createShape@PxRigidActorShapeCollectionHelper@physx@@QBEPAVPxShape@2@PAVPxRigidActor@2@ABVPxGeometry@2@AAVPxMaterial@2@V?$PxFlags@W4Enum@PxShapeFlag@physx@@E@2@@Z 100a7970 f   PxMetaDataObjects.obj
 0001:000a69a0       ?createShape@PxRigidActorShapeCollectionHelper@physx@@QBEPAVPxShape@2@PAVPxRigidActor@2@ABVPxGeometry@2@PBQAVPxMaterial@2@GV?$PxFlags@W4Enum@PxShapeFlag@physx@@E@2@@Z 100a79a0 f   PxMetaDataObjects.obj
 0001:000a69c0       ?createLink@PxArticulationLinkCollectionPropHelper@physx@@QBEPAVPxArticulationLink@2@PAVPxArticulation@2@PAV32@ABVPxTransform@2@@Z 100a79c0 f   PxMetaDataObjects.obj
 0001:000a6a20       ??0RestvaluesProperty@physx@@QAE@XZ 100a7a20 f   PxMetaDataObjects.obj
 0001:000a6a40       ??0NbBroadPhaseAddsProperty@physx@@QAE@XZ 100a7a40 f   PxMetaDataObjects.obj
 0001:000a6a60       ??0NbBroadPhaseRemovesProperty@physx@@QAE@XZ 100a7a60 f   PxMetaDataObjects.obj
 0001:000a6a80       ??0NbShapesProperty@physx@@QAE@XZ 100a7a80 f   PxMetaDataObjects.obj
 0001:000a6aa0       ??0NbDiscreteContactPairsProperty@physx@@QAE@XZ 100a7aa0 f   PxMetaDataObjects.obj
 0001:000a6ac0       ??0NbModifiedContactPairsProperty@physx@@QAE@XZ 100a7ac0 f   PxMetaDataObjects.obj
 0001:000a6ae0       ??0NbCCDPairsProperty@physx@@QAE@XZ 100a7ae0 f   PxMetaDataObjects.obj
 0001:000a6b00       ??0NbTriggerPairsProperty@physx@@QAE@XZ 100a7b00 f   PxMetaDataObjects.obj
 0001:000a6b20       ??0SimulationStatisticsProperty@physx@@QAE@XZ 100a7b20 f   PxMetaDataObjects.obj
 0001:000a6b40       ??0ProjectionPlaneProperty@physx@@QAE@XZ 100a7b40 f   PxMetaDataObjects.obj
 0001:000a6c20       ?GetNbBroadPhaseAdd@@YAIPBVPxSimulationStatistics@physx@@W4VolumeType@12@@Z 100a7c20 f i PxMetaDataObjects.obj
 0001:000a6c40       ?GetNbBroadPhaseRemove@@YAIPBVPxSimulationStatistics@physx@@W4VolumeType@12@@Z 100a7c40 f i PxMetaDataObjects.obj
 0001:000a6c60       ?GetNbCCDPairs@@YAIPBVPxSimulationStatistics@physx@@W4Enum@PxGeometryType@2@1@Z 100a7c60 f i PxMetaDataObjects.obj
 0001:000a6c90       ?GetNbDiscreteContactPairs@@YAIPBVPxSimulationStatistics@physx@@W4Enum@PxGeometryType@2@1@Z 100a7c90 f i PxMetaDataObjects.obj
 0001:000a6cc0       ?GetNbModifiedContactPairs@@YAIPBVPxSimulationStatistics@physx@@W4Enum@PxGeometryType@2@1@Z 100a7cc0 f i PxMetaDataObjects.obj
 0001:000a6cf0       ?GetNbPxClothFabric_Restvalues@@YAIPBVPxClothFabric@physx@@@Z 100a7cf0 f i PxMetaDataObjects.obj
 0001:000a6d10       ?GetNbShape@@YAIPBVPxSimulationStatistics@physx@@W4Enum@PxGeometryType@2@@Z 100a7d10 f i PxMetaDataObjects.obj
 0001:000a6d30       ?GetNbTriggerPairs@@YAIPBVPxSimulationStatistics@physx@@W4Enum@PxGeometryType@2@1@Z 100a7d30 f i PxMetaDataObjects.obj
 0001:000a6d60       ?GetProjectionPlane@@YA?AUPxMetaDataPlane@physx@@PBVPxParticleBase@2@@Z 100a7d60 f i PxMetaDataObjects.obj
 0001:000a6db0       ?GetPxClothFabric_Restvalues@@YAIPBVPxClothFabric@physx@@PAMI@Z 100a7db0 f i PxMetaDataObjects.obj
 0001:000a6dd0       ?GetStats@@YA?AVPxSimulationStatistics@physx@@PBVPxScene@2@@Z 100a7dd0 f i PxMetaDataObjects.obj
 0001:000a6e00       ?SetNbBroadPhaseAdd@@YAXPAVPxSimulationStatistics@physx@@W4VolumeType@12@I@Z 100a7e00 f i PxMetaDataObjects.obj
 0001:000a6e20       ?SetNbBroadPhaseRemove@@YAXPAVPxSimulationStatistics@physx@@W4VolumeType@12@I@Z 100a7e20 f i PxMetaDataObjects.obj
 0001:000a6e40       ?SetNbCCDPairs@@YAXPAVPxSimulationStatistics@physx@@W4Enum@PxGeometryType@2@1I@Z 100a7e40 f i PxMetaDataObjects.obj
 0001:000a6e70       ?SetNbDiscreteContactPairs@@YAXPAVPxSimulationStatistics@physx@@W4Enum@PxGeometryType@2@1I@Z 100a7e70 f i PxMetaDataObjects.obj
 0001:000a6ea0       ?SetNbModifiedContactPairs@@YAXPAVPxSimulationStatistics@physx@@W4Enum@PxGeometryType@2@1I@Z 100a7ea0 f i PxMetaDataObjects.obj
 0001:000a6ed0       ?SetNbShape@@YAXPAVPxSimulationStatistics@physx@@W4Enum@PxGeometryType@2@I@Z 100a7ed0 f i PxMetaDataObjects.obj
 0001:000a6ef0       ?SetNbTriggerPairs@@YAXPAVPxSimulationStatistics@physx@@W4Enum@PxGeometryType@2@1I@Z 100a7ef0 f i PxMetaDataObjects.obj
 0001:000a6f20       ?SetProjectionPlane@@YAXPAVPxParticleBase@physx@@UPxMetaDataPlane@2@@Z 100a7f20 f i PxMetaDataObjects.obj
 0001:000a6f46       _nvtxRangePushEx@4         100a7f46 f   nvToolsExt32_1:nvToolsExt32_1.dll
 0001:000a6f4c       _nvtxRangePop@0            100a7f4c f   nvToolsExt32_1:nvToolsExt32_1.dll
 0001:000a6f52       _nvtxRangeStartEx@4        100a7f52 f   nvToolsExt32_1:nvToolsExt32_1.dll
 0001:000a6f58       _nvtxRangeEnd@8            100a7f58 f   nvToolsExt32_1:nvToolsExt32_1.dll
 0001:000a6f5e       _GetModuleFileNameA@12     100a7f5e f   kernel32:KERNEL32.dll
 0001:000a6f64       _LoadLibraryA@4            100a7f64 f   kernel32:KERNEL32.dll
 0001:000a6f70       ?PxvInit@physx@@YAXABUPxvOffsetTable@1@@Z 100a7f70 f   LowLevelCHECKED:px_globals.obj
 0001:000a6fa0       ?PxvTerm@physx@@YAXXZ      100a7fa0 f   LowLevelCHECKED:px_globals.obj
 0001:000a6fb0       ?PxvRegisterArticulations@physx@@YAXXZ 100a7fb0 f   LowLevelCHECKED:px_globals.obj
 0001:000a6fe0       ?PxvRegisterHeightFields@physx@@YAXXZ 100a7fe0 f   LowLevelCHECKED:px_globals.obj
 0001:000a7040       ?PxvRegisterLegacyHeightFields@physx@@YAXXZ 100a8040 f   LowLevelCHECKED:px_globals.obj
 0001:000a70a0       ?PxvRegisterParticles@physx@@YAXXZ 100a80a0 f   LowLevelCHECKED:px_globals.obj
 0001:000a7100       ?PxcPoolMallocInit@@YAXXZ  100a8100 f   LowLevelCHECKED:PxcPoolMalloc.obj
 0001:000a7130       ?PxcPoolMallocTerm@@YAXXZ  100a8130 f   LowLevelCHECKED:PxcPoolMalloc.obj
 0001:000a71a0       ?PxcPoolMalloc@@YAPAXI@Z   100a81a0 f   LowLevelCHECKED:PxcPoolMalloc.obj
 0001:000a72b0       ?PxcPoolFree@@YAXPAXI@Z    100a82b0 f   LowLevelCHECKED:PxcPoolMalloc.obj
 0001:000a7400       ??0PxcPoolMallocData@@QAE@XZ 100a8400 f i LowLevelCHECKED:PxcPoolMalloc.obj
 0001:000a75a0       ??1?$PoolBase@UPoolData16@PxcPoolMallocData@@VNamedAllocator@shdfnd@physx@@@shdfnd@physx@@QAE@XZ 100a85a0 f i LowLevelCHECKED:PxcPoolMalloc.obj
 0001:000a7690       ??1?$PoolBase@UPoolData32@PxcPoolMallocData@@VNamedAllocator@shdfnd@physx@@@shdfnd@physx@@QAE@XZ 100a8690 f i LowLevelCHECKED:PxcPoolMalloc.obj
 0001:000a7780       ??1?$PoolBase@UPoolData8@PxcPoolMallocData@@VNamedAllocator@shdfnd@physx@@@shdfnd@physx@@QAE@XZ 100a8780 f i LowLevelCHECKED:PxcPoolMalloc.obj
 0001:000a7870       ?allocate@?$PoolBase@UPoolData32@PxcPoolMallocData@@VNamedAllocator@shdfnd@physx@@@shdfnd@physx@@QAEPAUPoolData32@PxcPoolMallocData@@XZ 100a8870 f i LowLevelCHECKED:PxcPoolMalloc.obj
 0001:000a78c0       ?allocateSlab@?$PoolBase@UPoolData16@PxcPoolMallocData@@VNamedAllocator@shdfnd@physx@@@shdfnd@physx@@IAEXXZ 100a88c0 f i LowLevelCHECKED:PxcPoolMalloc.obj
 0001:000a7980       ?allocateSlab@?$PoolBase@UPoolData32@PxcPoolMallocData@@VNamedAllocator@shdfnd@physx@@@shdfnd@physx@@IAEXXZ 100a8980 f i LowLevelCHECKED:PxcPoolMalloc.obj
 0001:000a7a40       ?allocateSlab@?$PoolBase@UPoolData8@PxcPoolMallocData@@VNamedAllocator@shdfnd@physx@@@shdfnd@physx@@IAEXXZ 100a8a40 f i LowLevelCHECKED:PxcPoolMalloc.obj
 0001:000a7b00       ?deallocate@?$PoolBase@UPoolData16@PxcPoolMallocData@@VNamedAllocator@shdfnd@physx@@@shdfnd@physx@@QAEXPAUPoolData16@PxcPoolMallocData@@@Z 100a8b00 f i LowLevelCHECKED:PxcPoolMalloc.obj
 0001:000a7b60       ?deallocate@?$PoolBase@UPoolData32@PxcPoolMallocData@@VNamedAllocator@shdfnd@physx@@@shdfnd@physx@@QAEXPAUPoolData32@PxcPoolMallocData@@@Z 100a8b60 f i LowLevelCHECKED:PxcPoolMalloc.obj
 0001:000a7bc0       ?disposeElements@?$PoolBase@UPoolData16@PxcPoolMallocData@@VNamedAllocator@shdfnd@physx@@@shdfnd@physx@@IAEXXZ 100a8bc0 f i LowLevelCHECKED:PxcPoolMalloc.obj
 0001:000a7d60       ?disposeElements@?$PoolBase@UPoolData32@PxcPoolMallocData@@VNamedAllocator@shdfnd@physx@@@shdfnd@physx@@IAEXXZ 100a8d60 f i LowLevelCHECKED:PxcPoolMalloc.obj
 0001:000a7f00       ?disposeElements@?$PoolBase@UPoolData8@PxcPoolMallocData@@VNamedAllocator@shdfnd@physx@@@shdfnd@physx@@IAEXXZ 100a8f00 f i LowLevelCHECKED:PxcPoolMalloc.obj
 0001:000a80a0       ?releaseEmptySlabs@?$PoolBase@UPoolData16@PxcPoolMallocData@@VNamedAllocator@shdfnd@physx@@@shdfnd@physx@@IAEXXZ 100a90a0 f i LowLevelCHECKED:PxcPoolMalloc.obj
 0001:000a8390       ?releaseEmptySlabs@?$PoolBase@UPoolData32@PxcPoolMallocData@@VNamedAllocator@shdfnd@physx@@@shdfnd@physx@@IAEXXZ 100a9390 f i LowLevelCHECKED:PxcPoolMalloc.obj
 0001:000a8680       ?releaseEmptySlabs@?$PoolBase@UPoolData8@PxcPoolMallocData@@VNamedAllocator@shdfnd@physx@@@shdfnd@physx@@IAEXXZ 100a9680 f i LowLevelCHECKED:PxcPoolMalloc.obj
 0001:000a8970       ?computeUnconstrainedVelocities@PxcArticulationHelper@physx@@SAIABUPxcArticulationSolverDesc@2@MAAVPxcConstraintBlockStream@2@PAUPxcSolverConstraintDesc@2@AAIAAVEventProfiler@Cm@2@AAVPxsConstraintBlockManager@2@@Z 100a9970 f   LowLevelCHECKED:PxcArticulationHelper.obj
 0001:000a9820       ?updateBodies@PxcArticulationHelper@physx@@SAXABUPxcArticulationSolverDesc@2@M@Z 100aa820 f   LowLevelCHECKED:PxcArticulationHelper.obj
 0001:000aa4e0       ?getImpulseResponse@PxcArticulationHelper@physx@@SAXABUPxcFsData@2@IABUPxcSIMDSpatial@2@AAU42@@Z 100ab4e0 f   LowLevelCHECKED:PxcArticulationHelper.obj
 0001:000aa920       ?getImpulseSelfResponse@PxcArticulationHelper@physx@@SAXABUPxcFsData@2@IABUPxcSIMDSpatial@2@AAU42@I12@Z 100ab920 f   LowLevelCHECKED:PxcArticulationHelper.obj
 0001:000aaff0       ?saveVelocity@PxcArticulationHelper@physx@@SAXABUPxcArticulationSolverDesc@2@@Z 100abff0 f   LowLevelCHECKED:PxcArticulationHelper.obj
 0001:000ab080       ?getDataSizes@PxcArticulationHelper@physx@@SAXIAAI00@Z 100ac080 f   LowLevelCHECKED:PxcArticulationHelper.obj
 0001:000ab0c0       ?initializeDriveCache@PxcArticulationHelper@physx@@SAXAAUPxcFsData@2@GPBUPxsArticulationLink@2@MIPADI@Z 100ac0c0 f   LowLevelCHECKED:PxcArticulationHelper.obj
 0001:000ab260       ?applyImpulses@PxcArticulationHelper@physx@@SAXABUPxcFsData@2@PAUPxcSIMDSpatial@2@1@Z 100ac260 f   LowLevelCHECKED:PxcArticulationHelper.obj
 0001:000ab550       ?getLtbDataSize@PxcArticulationHelper@physx@@CAII@Z 100ac550 f   LowLevelCHECKED:PxcArticulationHelper.obj
 0001:000ab560       ?getFsDataSize@PxcArticulationHelper@physx@@CAII@Z 100ac560 f   LowLevelCHECKED:PxcArticulationHelper.obj
 0001:000ab580       ?prepareDataBlock@PxcArticulationHelper@physx@@CAXAAUPxcFsData@2@PBUPxsArticulationLink@2@GPAVPxTransform@2@PAUPxcFsInertia@2@PAUPxcArticulationJointTransforms@2@I@Z 100ac580 f   LowLevelCHECKED:PxcArticulationHelper.obj
 0001:000ab860       ?setInertia@PxcArticulationHelper@physx@@CAXAAUPxcFsInertia@2@ABUPxsBodyCore@2@ABVPxTransform@2@@Z 100ac860 f   LowLevelCHECKED:PxcArticulationHelper.obj
 0001:000abdb0       ?setJointTransforms@PxcArticulationHelper@physx@@CAXAAUPxcArticulationJointTransforms@2@ABVPxTransform@2@1ABUPxsArticulationJointCore@2@@Z 100acdb0 f   LowLevelCHECKED:PxcArticulationHelper.obj
 0001:000ac480       ?prepareLtbMatrix@PxcArticulationHelper@physx@@CAXAAUPxcFsData@2@PBUPxcFsInertia@2@PBVPxTransform@2@PBUPxcArticulationJointTransforms@2@M@Z 100ad480 f   LowLevelCHECKED:PxcArticulationHelper.obj
 0001:000ac7d0       ?prepareFsData@PxcArticulationHelper@physx@@CAXAAUPxcFsData@2@PBUPxsArticulationLink@2@@Z 100ad7d0 f   LowLevelCHECKED:PxcArticulationHelper.obj
 0001:000ac960       ?createHardLimit@PxcArticulationHelper@physx@@CAXABUPxcFsData@2@PBUPxsArticulationLink@2@IAAUPxcSolverConstraint1DExt@2@ABVPxVec3@2@MM@Z 100ad960 f   LowLevelCHECKED:PxcArticulationHelper.obj
 0001:000acb30       ?createTangentialSpring@PxcArticulationHelper@physx@@CAXABUPxcFsData@2@PBUPxsArticulationLink@2@IAAUPxcSolverConstraint1DExt@2@ABVPxVec3@2@MMM@Z 100adb30 f   LowLevelCHECKED:PxcArticulationHelper.obj
 0001:000acd40       ?setupSolverConstraints@PxcArticulationHelper@physx@@CAIAAUPxcFsData@2@IAAVPxcConstraintBlockStream@2@PAUPxcSolverConstraintDesc@2@PBUPxsArticulationLink@2@PBUPxcArticulationJointTransforms@2@MAAIAAVPxsConstraintBlockManager@2@@Z 100add40 f   LowLevelCHECKED:PxcArticulationHelper.obj
 0001:000ad710       ?computeJointDrives@PxcArticulationHelper@physx@@CAXAAUPxcFsData@2@PAT__m128@@PBUPxsArticulationLink@2@PBVPxTransform@2@PBUPxcArticulationJointTransforms@2@PBUMat33V@aos@shdfnd@2@M@Z 100ae710 f   LowLevelCHECKED:PxcArticulationHelper.obj
 0001:000adbe0       ?PxcLtbFactor@physx@@YAXAAUPxcFsData@1@@Z 100aebe0 f   LowLevelCHECKED:PxcArticulationHelper.obj
 0001:000af3c0       ?PxcLtbSolve@physx@@YAXABUPxcFsData@1@PAT__m128@@PAUPxcSIMDSpatial@1@@Z 100b03c0 f   LowLevelCHECKED:PxcArticulationHelper.obj
 0001:000af950       ?PxcLtbProject@physx@@YAXABUPxcFsData@1@PAUPxcSIMDSpatial@1@PAT__m128@@@Z 100b0950 f   LowLevelCHECKED:PxcArticulationHelper.obj
 0001:000af9e0       ?PxcFsPropagateDrivenInertiaSimd@physx@@YAXAAUPxcFsData@1@PBUPxcFsInertia@1@PBMPBUMat33V@aos@shdfnd@1@UPxcFsScratchAllocator@1@@Z 100b09e0 f   LowLevelCHECKED:PxcArticulationHelper.obj
 0001:000b1090       ?PxcFsApplyJointDrives@physx@@YAXAAUPxcFsData@1@PBT__m128@@@Z 100b2090 f   LowLevelCHECKED:PxcArticulationHelper.obj
 0001:000b1460       ?getImpulseResponseSlow@physx@@YAXABUPxcFsData@1@IABUPxcSIMDSpatial@1@AAU31@I12@Z 100b2460 f   LowLevelCHECKED:PxcArticulationHelper.obj
 0001:000b1940       ?PxcFsGetImpulseResponse@physx@@YAXABUPxcFsData@1@IABUPxcSIMDSpatial@1@AAU31@@Z 100b2940 f   LowLevelCHECKED:PxcArticulationHelper.obj
 0001:000b1bd0       ?PxcFsGetImpulseSelfResponse@physx@@YAXABUPxcFsData@1@IABUPxcSIMDSpatial@1@AAU31@I12@Z 100b2bd0 f   LowLevelCHECKED:PxcArticulationHelper.obj
 0001:000b1d00       ?PxcLtbComputeJv@physx@@YAXPAT__m128@@ABUPxcFsData@1@PBUPxcSIMDSpatial@1@@Z 100b2d00 f   LowLevelCHECKED:PxcArticulationHelper.obj
 0001:000b1de0       ?PxcFsComputeJointLoadsSimd@physx@@YAXABUPxcFsData@1@PIBUPxcFsInertia@1@PIAUMat33V@aos@shdfnd@1@PIBMIIUPxcFsScratchAllocator@1@@Z 100b2de0 f   LowLevelCHECKED:PxcArticulationHelper.obj
 0001:000b86a0       ??0PxcSIMDSpatial@physx@@QAE@XZ 100b96a0 f i LowLevelCHECKED:PxcArticulationHelper.obj
 0001:000b86b0       ??1SpatialVector@Cm@physx@@QAE@XZ 100b96b0 f i LowLevelCHECKED:PxcArticulationHelper.obj
 0001:000b86c0       ?ellipseClamp@shdfnd@physx@@YA?AVPxVec3@2@ABV32@0@Z 100b96c0 f i LowLevelCHECKED:PxcArticulationHelper.obj
 0001:000b89e0       ?getLimit@ConeLimitHelper@Cm@physx@@QAE_NABVPxQuat@3@AAVPxVec3@3@AAM@Z 100b99e0 f i LowLevelCHECKED:PxcArticulationHelper.obj
 0001:000b8e80       ?log@shdfnd@physx@@YA?AVPxVec3@2@ABVPxQuat@2@@Z 100b9e80 f i LowLevelCHECKED:PxcArticulationHelper.obj
 0001:000b9040       ?propagateImpulse@?$PxcArticulationFnsSimd@VPxcArticulationFnsSimdBase@physx@@@physx@@SA?AUPxcSIMDSpatial@2@ABUPxcFsRow@2@ABUPxcFsJointVectors@2@AAT__m128@@ABU32@ABUPxcFsRowAux@2@@Z 100ba040 f i LowLevelCHECKED:PxcArticulationHelper.obj
 0001:000b9140       ?propagateVelocity@?$PxcArticulationFnsSimd@VPxcArticulationFnsSimdBase@physx@@@physx@@SA?AUPxcSIMDSpatial@2@ABUPxcFsRow@2@ABUPxcFsJointVectors@2@ABT__m128@@ABU32@ABUPxcFsRowAux@2@@Z 100ba140 f i LowLevelCHECKED:PxcArticulationHelper.obj
 0001:000b9350       ?create@PxsSolverCoreGeneral@physx@@SAPAV12@XZ 100ba350 f   LowLevelCHECKED:PxsSolverCoreGeneral.obj
 0001:000b9380       ?destroyV@PxsSolverCoreGeneral@physx@@UAEXXZ 100ba380 f   LowLevelCHECKED:PxsSolverCoreGeneral.obj
 0001:000b93a0       ?solveV@PxsSolverCoreGeneral@physx@@UBEXMIIPIAUPxcSolverBody@2@PIAUPxcSolverBodyData@2@IIPIAUPxcArticulationSolverDesc@2@IPIAUPxcSolverConstraintDesc@2@I3IPIAVSpatialVector@Cm@2@@Z 100ba3a0 f   LowLevelCHECKED:PxsSolverCoreGeneral.obj
 0001:000b94d0       ?solveVCoulomb@PxsSolverCoreGeneral@physx@@UBEXMIIPIAUPxcSolverBody@2@PIAUPxcSolverBodyData@2@IIPIAUPxcArticulationSolverDesc@2@IPIAUPxcSolverConstraintDesc@2@I3IPIAVSpatialVector@Cm@2@@Z 100ba4d0 f   LowLevelCHECKED:PxsSolverCoreGeneral.obj
 0001:000b9670       ?solveVParallelAndWriteBack@PxsSolverCoreGeneral@physx@@UBEXMIIPIAUPxcSolverBody@2@PIAUPxcSolverBodyData@2@IIPIAUPxcArticulationSolverDesc@2@IPIAUPxcSolverConstraintDesc@2@IPAH444PIAUPxcThresholdStreamElement@2@I4ABV?$Array@UPxsConstraintBatchHeader@physx@@VNamedAllocator@shdfnd@2@@shdfnd@2@6ABV?$Array@IVNamedAllocator@shdfnd@physx@@@92@PIAVSpatialVector@Cm@2@AAHI@Z 100ba670 f   LowLevelCHECKED:PxsSolverCoreGeneral.obj
 0001:000b9d50       ?solveVCoulombParallelAndWriteBack@PxsSolverCoreGeneral@physx@@UBEXMIIPIAUPxcSolverBody@2@PIAUPxcSolverBodyData@2@IIPIAUPxcArticulationSolverDesc@2@IPIAUPxcSolverConstraintDesc@2@I3IPAH4444PIAUPxcThresholdStreamElement@2@I4AAV?$Array@UPxsConstraintBatchHeader@physx@@VNamedAllocator@shdfnd@2@@shdfnd@2@6AAV?$Array@IVNamedAllocator@shdfnd@physx@@@92@7PIAVSpatialVector@Cm@2@AAH9I@Z 100bad50 f   LowLevelCHECKED:PxsSolverCoreGeneral.obj
 0001:000ba790       ?solveV_Blocks@PxsSolverCoreGeneral@physx@@UBEXMIIPIAUPxcSolverBody@2@PIAUPxcSolverBodyData@2@IIPIAUPxcArticulationSolverDesc@2@IPIAUPxcSolverConstraintDesc@2@I3IAAV?$Array@UPxsConstraintBatchHeader@physx@@VNamedAllocator@shdfnd@2@@shdfnd@2@4PIAVSpatialVector@Cm@2@PIAUPxcThresholdStreamElement@2@IAAI@Z 100bb790 f   LowLevelCHECKED:PxsSolverCoreGeneral.obj
 0001:000ba9d0       ?solveVCoulomb_Blocks@PxsSolverCoreGeneral@physx@@UBEXMIIPIAUPxcSolverBody@2@PIAUPxcSolverBodyData@2@IIPIAUPxcArticulationSolverDesc@2@IPIAUPxcSolverConstraintDesc@2@I3IAAV?$Array@UPxsConstraintBatchHeader@physx@@VNamedAllocator@shdfnd@2@@shdfnd@2@4PIAVSpatialVector@Cm@2@PIAUPxcThresholdStreamElement@2@IAAI@Z 100bb9d0 f   LowLevelCHECKED:PxsSolverCoreGeneral.obj
 0001:000bad20       ?writeBackV@PxsSolverCoreGeneral@physx@@UBEXPIBUPxcSolverConstraintDesc@2@IPIAUPxcThresholdStreamElement@2@IAAIPAUPxcSolverBodyData@2@QAP6AXABU32@AAUPxcSolverContext@2@AAU52@6@Z@Z 100bbd20 f   LowLevelCHECKED:PxsSolverCoreGeneral.obj
 0001:000badc0       ?writeBackV@PxsSolverCoreGeneral@physx@@UBEXPIBUPxcSolverConstraintDesc@2@IPAUPxsConstraintBatchHeader@2@IPIAUPxcThresholdStreamElement@2@IAAIPAUPxcSolverBodyData@2@QAP6AXPBU32@IAAUPxcSolverContext@2@2IPAH@Z@Z 100bbdc0 f   LowLevelCHECKED:PxsSolverCoreGeneral.obj
 0001:000bae50       ?solveVDefaultFriction@physx@@YAXPAVPxsSolverCore@1@MIIPIAUPxcSolverBody@1@PIAUPxcSolverBodyData@1@IIPIAUPxcArticulationSolverDesc@1@IPIAUPxcSolverConstraintDesc@1@I4IPIAVSpatialVector@Cm@1@@Z 100bbe50 f   LowLevelCHECKED:PxsSolverCoreGeneral.obj
 0001:000bae90       ?solveVCoulombFriction@physx@@YAXPAVPxsSolverCore@1@MIIPIAUPxcSolverBody@1@PIAUPxcSolverBodyData@1@IIPIAUPxcArticulationSolverDesc@1@IPIAUPxcSolverConstraintDesc@1@I4IPIAVSpatialVector@Cm@1@@Z 100bbe90 f   LowLevelCHECKED:PxsSolverCoreGeneral.obj
 0001:000baed0       ?solveVBlockDefaultFriction@physx@@YAXPAVPxsSolverCore@1@MIIPIAUPxcSolverBody@1@PIAUPxcSolverBodyData@1@IIPIAUPxcArticulationSolverDesc@1@IPIAUPxcSolverConstraintDesc@1@I4IAAV?$Array@UPxsConstraintBatchHeader@physx@@VNamedAllocator@shdfnd@2@@shdfnd@1@5PIAVSpatialVector@Cm@1@PIAUPxcThresholdStreamElement@1@IAAI@Z 100bbed0 f   LowLevelCHECKED:PxsSolverCoreGeneral.obj
 0001:000baf20       ?solveVBlockCoulombFriction@physx@@YAXPAVPxsSolverCore@1@MIIPIAUPxcSolverBody@1@PIAUPxcSolverBodyData@1@IIPIAUPxcArticulationSolverDesc@1@IPIAUPxcSolverConstraintDesc@1@I4IAAV?$Array@UPxsConstraintBatchHeader@physx@@VNamedAllocator@shdfnd@2@@shdfnd@1@5PIAVSpatialVector@Cm@1@PIAUPxcThresholdStreamElement@1@IAAI@Z 100bbf20 f   LowLevelCHECKED:PxsSolverCoreGeneral.obj
 0001:000baf70       ?PxsSolverCoreRegisterArticulationFns@physx@@YAXXZ 100bbf70 f   LowLevelCHECKED:PxsSolverCoreGeneral.obj
 0001:000bb7b0       ??$SolveBlockParallel@$0A@@@YAXPIAUPxcSolverConstraintDesc@physx@@HHHAAUPxcSolverContext@1@AAVPxsBatchIterator@@QAP6AXPBU01@I1@ZHHH@Z 100bc7b0 f i LowLevelCHECKED:PxsSolverCoreGeneral.obj
 0001:000bb8b0       ??$SolveWriteBackBlockParallel@$0A@@@YAXPIAUPxcSolverConstraintDesc@physx@@HHHAAUPxcSolverContext@1@PIAUPxcThresholdStreamElement@1@IPAHAAVPxsBatchIterator@@HHHQAP6AXPBU01@I12I3@Z@Z 100bc8b0 f i LowLevelCHECKED:PxsSolverCoreGeneral.obj
 0001:000bb9c0       ??1PxsSolverCore@physx@@UAE@XZ 100bc9c0 f i LowLevelCHECKED:PxsSolverCoreGeneral.obj
 0001:000bb9d0       ??_GPxsSolverCore@physx@@UAEPAXI@Z 100bc9d0 f i LowLevelCHECKED:PxsSolverCoreGeneral.obj
 0001:000bb9d0       ??_EPxsSolverCore@physx@@UAEPAXI@Z 100bc9d0 f i LowLevelCHECKED:PxsSolverCoreGeneral.obj
 0001:000bba00       ??_EPxsSolverCoreGeneral@physx@@UAEPAXI@Z 100bca00 f i LowLevelCHECKED:PxsSolverCoreGeneral.obj
 0001:000bba00       ??_GPxsSolverCoreGeneral@physx@@UAEPAXI@Z 100bca00 f i LowLevelCHECKED:PxsSolverCoreGeneral.obj
 0001:000bba30       ??0PxsContext@physx@@QAE@ABVPxSceneDesc@1@PAVPxTaskManager@1@PAVFlushPool@Cm@1@AAVEventProfiler@51@I@Z 100bca30 f   LowLevelCHECKED:PxsContext.obj
 0001:000bc0c0       ??1PxsContext@physx@@QAE@XZ 100bd0c0 f   LowLevelCHECKED:PxsContext.obj
 0001:000bc490       ?preAllocate@PxsContext@physx@@QAEXIIII@Z 100bd490 f   LowLevelCHECKED:PxsContext.obj
 0001:000bc4f0       ?createArticulation@PxsContext@physx@@QAEPAVPxsArticulation@2@XZ 100bd4f0 f   LowLevelCHECKED:PxsContext.obj
 0001:000bc500       ?destroyArticulation@PxsContext@physx@@QAEXAAVPxsArticulation@2@@Z 100bd500 f   LowLevelCHECKED:PxsContext.obj
 0001:000bc510       ?registerParticles@PxsContext@physx@@SAXXZ 100bd510 f   LowLevelCHECKED:PxsContext.obj
 0001:000bc530       ?addParticleSystem@PxsContext@physx@@QAEPAVPxvParticleSystemSim@2@PAVPxsParticleData@2@ABUPxvParticleSystemParameter@2@_N@Z 100bd530 f   LowLevelCHECKED:PxsContext.obj
 0001:000bc540       ?removeParticleSystem@PxsContext@physx@@QAEPAVPxsParticleData@2@PAVPxvParticleSystemSim@2@_N@Z 100bd540 f   LowLevelCHECKED:PxsContext.obj
 0001:000bc550       ?createContactManager@PxsContext@physx@@QAEPAVPxsContactManager@2@ABUPxvManagerDescRigidRigid@2@PAVPxsMaterialManager@2@@Z 100bd550 f   LowLevelCHECKED:PxsContext.obj
 0001:000bc6f0       ?destroyContactManager@PxsContext@physx@@QAEXPAVPxsContactManager@2@@Z 100bd6f0 f   LowLevelCHECKED:PxsContext.obj
 0001:000bc7f0       ?onShapeChange@PxsContext@physx@@QAEXABUPxsShapeCore@2@ABUPxsRigidCore@2@_N@Z 100bd7f0 f   LowLevelCHECKED:PxsContext.obj
 0001:000bc800       ?getSolverBatchSize@PxsContext@physx@@QBEIXZ 100bd800 f   LowLevelCHECKED:PxsContext.obj
 0001:000bc810       ?setSolverBatchSize@PxsContext@physx@@QAEXI@Z 100bd810 f   LowLevelCHECKED:PxsContext.obj
 0001:000bc830       ?getCCDContactModifyCallback@PxsContext@physx@@QBEPAVPxCCDContactModifyCallback@2@XZ 100bd830 f   LowLevelCHECKED:PxsContext.obj
 0001:000bc840       ?setCCDContactModifyCallback@PxsContext@physx@@QAEXPAVPxCCDContactModifyCallback@2@@Z 100bd840 f   LowLevelCHECKED:PxsContext.obj
 0001:000bc850       ?getCCDMaxPasses@PxsContext@physx@@QBEIXZ 100bd850 f   LowLevelCHECKED:PxsContext.obj
 0001:000bc860       ?setCCDMaxPasses@PxsContext@physx@@QAEXI@Z 100bd860 f   LowLevelCHECKED:PxsContext.obj
 0001:000bc880       ?getCurrentCCDPass@PxsContext@physx@@QBEIXZ 100bd880 f   LowLevelCHECKED:PxsContext.obj
 0001:000bc890       ?getNumSweepHits@PxsContext@physx@@QBEHXZ 100bd890 f   LowLevelCHECKED:PxsContext.obj
 0001:000bc8a0       ?setBounceThreshold@PxsContext@physx@@QAEXM@Z 100bd8a0 f   LowLevelCHECKED:PxsContext.obj
 0001:000bc8c0       ?getBounceThreshold@PxsContext@physx@@QBEMXZ 100bd8c0 f   LowLevelCHECKED:PxsContext.obj
 0001:000bc8d0       ?setScratchBlock@PxsContext@physx@@QAEXPAXI@Z 100bd8d0 f   LowLevelCHECKED:PxsContext.obj
 0001:000bc920       ?updateBroadPhase@PxsContext@physx@@QAEXPAVPxBaseTask@2@_N@Z 100bd920 f   LowLevelCHECKED:PxsContext.obj
 0001:000bc980       ?updateContactManager@PxsContext@physx@@QAEXMPAVPxBaseTask@2@@Z 100bd980 f   LowLevelCHECKED:PxsContext.obj
 0001:000bcd50       ?secondPassUpdateContactManager@PxsContext@physx@@QAEXMPAUNarrowPhaseContactManager@2@IPAVPxBaseTask@2@@Z 100bdd50 f   LowLevelCHECKED:PxsContext.obj
 0001:000bd070       ?swapStreams@PxsContext@physx@@QAEXXZ 100be070 f   LowLevelCHECKED:PxsContext.obj
 0001:000bd080       ?runModifiableContactManagers@PxsContext@physx@@QAEXXZ 100be080 f   LowLevelCHECKED:PxsContext.obj
 0001:000bd770       ?updateIslands@PxsContext@physx@@QAEXMPAVPxBaseTask@2@@Z 100be770 f   LowLevelCHECKED:PxsContext.obj
 0001:000bd920       ?updateDynamics@PxsContext@physx@@QAEXMPAVPxBaseTask@2@AAVPxsMaterialManager@2@@Z 100be920 f   LowLevelCHECKED:PxsContext.obj
 0001:000bdb10       ?resetThreadContexts@PxsContext@physx@@QAEXXZ 100beb10 f   LowLevelCHECKED:PxsContext.obj
 0001:000bdb80       ?getManagerTouchEventCount@PxsContext@physx@@QBE_NPAH00@Z 100beb80 f   LowLevelCHECKED:PxsContext.obj
 0001:000bdbc0       ?fillManagerTouchEvents@PxsContext@physx@@QAE_NPAUPxvContactManagerTouchEvent@2@AAH0101@Z 100bebc0 f   LowLevelCHECKED:PxsContext.obj
 0001:000bdd20       ?beginUpdate@PxsContext@physx@@QAEXXZ 100bed20 f   LowLevelCHECKED:PxsContext.obj
 0001:000bdd40       ?getVisualizationParameter@PxsContext@physx@@QBEMW4Enum@PxVisualizationParameter@2@@Z 100bed40 f   LowLevelCHECKED:PxsContext.obj
 0001:000bdd60       ?setVisualizationParameter@PxsContext@physx@@QAEXW4Enum@PxVisualizationParameter@2@M@Z 100bed60 f   LowLevelCHECKED:PxsContext.obj
 0001:000bdd80       ?shiftOrigin@PxsContext@physx@@QAEXABVPxVec3@2@@Z 100bed80 f   LowLevelCHECKED:PxsContext.obj
 0001:000be0e0       ?createFluidShape@PxsContext@physx@@QAEPAVPxsParticleShape@2@PAVPxsParticleSystemSim@2@PBUPxsParticleCell@2@@Z 100bf0e0 f   LowLevelCHECKED:PxsContext.obj
 0001:000be160       ?releaseFluidShape@PxsContext@physx@@QAEXPAVPxsParticleShape@2@@Z 100bf160 f   LowLevelCHECKED:PxsContext.obj
 0001:000be1c0       ?setCreateContactStream@PxsContext@physx@@QAEX_N@Z 100bf1c0 f   LowLevelCHECKED:PxsContext.obj
 0001:000be230       ?updateCCDBegin@PxsContext@physx@@QAEXXZ 100bf230 f   LowLevelCHECKED:PxsContext.obj
 0001:000be240       ?updateCCD@PxsContext@physx@@QAEXMPAVPxBaseTask@2@_N@Z 100bf240 f   LowLevelCHECKED:PxsContext.obj
 0001:000be260       ?addThreadStats@PxsContext@physx@@QAEXABUThreadSimStats@PxsThreadContext@2@@Z 100bf260 f   LowLevelCHECKED:PxsContext.obj
 0001:000be290       ?prepareCMDiscreteUpdate@PxsContext@physx@@AAEXPAVPxBaseTask@2@@Z 100bf290 f   LowLevelCHECKED:PxsContext.obj
 0001:000be430       ?mergeCMDiscreteUpdateResults@PxsContext@physx@@AAEXPAVPxBaseTask@2@@Z 100bf430 f   LowLevelCHECKED:PxsContext.obj
 0001:000be690       ?processContactManager@PxsContext@physx@@AAEIPAVPxsContactManager@2@IPAX@Z 100bf690 f   LowLevelCHECKED:PxsContext.obj
 0001:000be6c0       ?addParticleSystemImpl@PxsContext@physx@@AAEPAVPxvParticleSystemSim@2@PAVPxsParticleData@2@ABUPxvParticleSystemParameter@2@_N@Z 100bf6c0 f   LowLevelCHECKED:PxsContext.obj
 0001:000be720       ?removeParticleSystemImpl@PxsContext@physx@@AAEPAVPxsParticleData@2@PAVPxvParticleSystemSim@2@_N@Z 100bf720 f   LowLevelCHECKED:PxsContext.obj
 0001:000bf2e0       ??$combine1@UOR@?$BitMapBase@VAllocator@shdfnd@physx@@@Cm@physx@@@?$BitMapBase@VAllocator@shdfnd@physx@@@Cm@physx@@IAEXPBII@Z 100c02e0 f i LowLevelCHECKED:PxsContext.obj
 0001:000bf3c0       ??$pointerOffset@PBVPxRigidActor@physx@@@shdfnd@physx@@YAPBVPxRigidActor@1@PBXH@Z 100c03c0 f i LowLevelCHECKED:PxsContext.obj
 0001:000bf3d0       ??$pointerOffset@PBVPxShape@physx@@@shdfnd@physx@@YAPBVPxShape@1@PBXH@Z 100c03d0 f i LowLevelCHECKED:PxsContext.obj
 0001:000bf3e0       ??0?$PxcPoolList@VPxsContactManager@physx@@VPxsContext@2@@physx@@QAE@ABVNamedAllocator@shdfnd@1@PAVPxsContext@1@II@Z 100c03e0 f i LowLevelCHECKED:PxsContext.obj
 0001:000bf490       ??0?$PxcPoolList@VPxsParticleShape@physx@@VPxsContext@2@@physx@@QAE@ABVNamedAllocator@shdfnd@1@PAVPxsContext@1@II@Z 100c0490 f i LowLevelCHECKED:PxsContext.obj
 0001:000bf540       ??0?$PxcPoolList@VPxsParticleSystemSim@physx@@VPxsContext@2@@physx@@QAE@ABVNamedAllocator@shdfnd@1@PAVPxsContext@1@II@Z 100c0540 f i LowLevelCHECKED:PxsContext.obj
 0001:000bf5f0       ??0?$SListT@V?$ReflectionAllocator@USListImpl@shdfnd@physx@@@shdfnd@physx@@@shdfnd@physx@@QAE@ABV?$ReflectionAllocator@USListImpl@shdfnd@physx@@@12@@Z 100c05f0 f i LowLevelCHECKED:PxsContext.obj
 0001:000bf680       ??0LargePersistentContactManifold@Gu@physx@@QAE@XZ 100c0680 f i LowLevelCHECKED:PxsContext.obj
 0001:000bf6f0       ??0PersistentContact@Gu@physx@@QAE@XZ 100c06f0 f i LowLevelCHECKED:PxsContext.obj
 0001:000bf700       ??0PxTransform@physx@@QAE@ABV01@@Z 100c0700 f i LowLevelCHECKED:PxsContext.obj
 0001:000bf750       ??0PxcScratchAllocator@physx@@QAE@XZ 100c0750 f i LowLevelCHECKED:PxsContext.obj
 0001:000bf830       ??0PxsTransformCache@physx@@QAE@XZ 100c0830 f i LowLevelCHECKED:PxsContext.obj
 0001:000bf990       ??0SpherePersistentContactManifold@Gu@physx@@QAE@XZ 100c0990 f i LowLevelCHECKED:PxsContext.obj
 0001:000bfa00       ??1?$PoolBase@VLargePersistentContactManifold@Gu@physx@@VNamedAllocator@shdfnd@3@@shdfnd@physx@@QAE@XZ 100c0a00 f i LowLevelCHECKED:PxsContext.obj
 0001:000bfaf0       ??1?$PoolBase@VSpherePersistentContactManifold@Gu@physx@@VNamedAllocator@shdfnd@3@@shdfnd@physx@@QAE@XZ 100c0af0 f i LowLevelCHECKED:PxsContext.obj
 0001:000bfbe0       ??1?$PxcThreadCoherantCache@VPxsThreadContext@physx@@@physx@@QAE@XZ 100c0be0 f i LowLevelCHECKED:PxsContext.obj
 0001:000bfc60       ??1PxsCMDiscreteUpdateTask@@UAE@XZ 100c0c60 f i LowLevelCHECKED:PxsContext.obj
 0001:000bfc80       ??1PxsThreadContext@physx@@QAE@XZ 100c0c80 f i LowLevelCHECKED:PxsContext.obj
 0001:000c0080       ??1PxsTransformCache@physx@@QAE@XZ 100c1080 f i LowLevelCHECKED:PxsContext.obj
 0001:000c0110       ??_E?$DelegateTask@VPxsContext@physx@@$1?mergeCMDiscreteUpdateResults@12@AAEXPAVPxBaseTask@2@@Z@Cm@physx@@UAEPAXI@Z 100c1110 f i LowLevelCHECKED:PxsContext.obj
 0001:000c0110       ??_G?$DelegateTask@VPxsContext@physx@@$1?mergeCMDiscreteUpdateResults@12@AAEXPAVPxBaseTask@2@@Z@Cm@physx@@UAEPAXI@Z 100c1110 f i LowLevelCHECKED:PxsContext.obj
 0001:000c0170       ??_E?$DelegateTask@VPxsContext@physx@@$1?prepareCMDiscreteUpdate@12@AAEXPAVPxBaseTask@2@@Z@Cm@physx@@UAEPAXI@Z 100c1170 f i LowLevelCHECKED:PxsContext.obj
 0001:000c0170       ??_G?$DelegateTask@VPxsContext@physx@@$1?prepareCMDiscreteUpdate@12@AAEXPAVPxBaseTask@2@@Z@Cm@physx@@UAEPAXI@Z 100c1170 f i LowLevelCHECKED:PxsContext.obj
 0001:000c01d0       ??_EPxsCMDiscreteUpdateTask@@UAEPAXI@Z 100c11d0 f i LowLevelCHECKED:PxsContext.obj
 0001:000c01d0       ??_GPxsCMDiscreteUpdateTask@@UAEPAXI@Z 100c11d0 f i LowLevelCHECKED:PxsContext.obj
 0001:000c0210       ??_EPxsCMUpdateTask@@UAEPAXI@Z 100c1210 f i LowLevelCHECKED:PxsContext.obj
 0001:000c0210       ??_GPxsCMUpdateTask@@UAEPAXI@Z 100c1210 f i LowLevelCHECKED:PxsContext.obj
 0001:000c0250       ??__G@YGXPAX0IIP6EPAX00@Z@Z 100c1250 f i LowLevelCHECKED:PxsContext.obj
 0001:000c0290       ?allocate@?$AlignedAllocator@$0BA@V?$ReflectionAllocator@VPxsThreadContext@physx@@@shdfnd@physx@@@shdfnd@physx@@QAEPAXIPBDH@Z 100c1290 f i LowLevelCHECKED:PxsContext.obj
 0001:000c0320       ?allocate@?$PoolBase@VLargePersistentContactManifold@Gu@physx@@VNamedAllocator@shdfnd@3@@shdfnd@physx@@QAEPAVLargePersistentContactManifold@Gu@3@XZ 100c1320 f i LowLevelCHECKED:PxsContext.obj
 0001:000c0370       ?allocate@?$PoolBase@VSpherePersistentContactManifold@Gu@physx@@VNamedAllocator@shdfnd@3@@shdfnd@physx@@QAEPAVSpherePersistentContactManifold@Gu@3@XZ 100c1370 f i LowLevelCHECKED:PxsContext.obj
 0001:000c03d0       ?allocateSlab@?$PoolBase@VLargePersistentContactManifold@Gu@physx@@VNamedAllocator@shdfnd@3@@shdfnd@physx@@IAEXXZ 100c13d0 f i LowLevelCHECKED:PxsContext.obj
 0001:000c04a0       ?allocateSlab@?$PoolBase@VSpherePersistentContactManifold@Gu@physx@@VNamedAllocator@shdfnd@3@@shdfnd@physx@@IAEXXZ 100c14a0 f i LowLevelCHECKED:PxsContext.obj
 0001:000c0570       ?copy@?$Array@VPxContactModifyPair@physx@@VNamedAllocator@shdfnd@2@@shdfnd@physx@@KAXPAVPxContactModifyPair@3@0PBV43@@Z 100c1570 f i LowLevelCHECKED:PxsContext.obj
 0001:000c0710       ?deallocate@?$PoolBase@VLargePersistentContactManifold@Gu@physx@@VNamedAllocator@shdfnd@3@@shdfnd@physx@@QAEXPAVLargePersistentContactManifold@Gu@3@@Z 100c1710 f i LowLevelCHECKED:PxsContext.obj
 0001:000c0770       ?deallocate@?$PoolBase@VSpherePersistentContactManifold@Gu@physx@@VNamedAllocator@shdfnd@3@@shdfnd@physx@@QAEXPAVSpherePersistentContactManifold@Gu@3@@Z 100c1770 f i LowLevelCHECKED:PxsContext.obj
 0001:000c07d0       ?destroy@?$PxcPoolList@VPxsContactManager@physx@@VPxsContext@2@@physx@@QAEXXZ 100c17d0 f i LowLevelCHECKED:PxsContext.obj
 0001:000c08a0       ?destroy@?$PxcPoolList@VPxsParticleShape@physx@@VPxsContext@2@@physx@@QAEXXZ 100c18a0 f i LowLevelCHECKED:PxsContext.obj
 0001:000c0970       ?destroy@?$PxcPoolList@VPxsParticleSystemSim@physx@@VPxsContext@2@@physx@@QAEXXZ 100c1970 f i LowLevelCHECKED:PxsContext.obj
 0001:000c0a40       ?disposeElements@?$PoolBase@VLargePersistentContactManifold@Gu@physx@@VNamedAllocator@shdfnd@3@@shdfnd@physx@@IAEXXZ 100c1a40 f i LowLevelCHECKED:PxsContext.obj
 0001:000c0bd0       ?disposeElements@?$PoolBase@VSpherePersistentContactManifold@Gu@physx@@VNamedAllocator@shdfnd@3@@shdfnd@physx@@IAEXXZ 100c1bd0 f i LowLevelCHECKED:PxsContext.obj
 0001:000c0d70       ?extend@?$PxcPoolList@VPxsContactManager@physx@@VPxsContext@2@@physx@@QAE_NXZ 100c1d70 f i LowLevelCHECKED:PxsContext.obj
 0001:000c0e80       ?extend@?$PxcPoolList@VPxsParticleShape@physx@@VPxsContext@2@@physx@@QAE_NXZ 100c1e80 f i LowLevelCHECKED:PxsContext.obj
 0001:000c0f80       ?extend@?$PxcPoolList@VPxsParticleSystemSim@physx@@VPxsContext@2@@physx@@QAE_NXZ 100c1f80 f i LowLevelCHECKED:PxsContext.obj
 0001:000c1090       ?getName@?$DelegateTask@VPxsContext@physx@@$1?mergeCMDiscreteUpdateResults@12@AAEXPAVPxBaseTask@2@@Z@Cm@physx@@UBEPBDXZ 100c2090 f i LowLevelCHECKED:PxsContext.obj
 0001:000c10a0       ?getName@?$DelegateTask@VPxsContext@physx@@$1?prepareCMDiscreteUpdate@12@AAEXPAVPxBaseTask@2@@Z@Cm@physx@@UBEPBDXZ 100c20a0 f i LowLevelCHECKED:PxsContext.obj
 0001:000c10b0       ?getName@PxsCMDiscreteUpdateTask@@UBEPBDXZ 100c20b0 f i LowLevelCHECKED:PxsContext.obj
 0001:000c10c0       ?getNext@Iterator@?$BitMapBase@VAllocator@shdfnd@physx@@@Cm@physx@@QAEIXZ 100c20c0 f i LowLevelCHECKED:PxsContext.obj
 0001:000c1ad0       ?recreate@?$Array@PAEVNamedAllocator@shdfnd@physx@@@shdfnd@physx@@IAEXI@Z 100c2ad0 f i LowLevelCHECKED:PxsContext.obj
 0001:000c1b90       ?recreate@?$Array@VPxContactModifyPair@physx@@VNamedAllocator@shdfnd@2@@shdfnd@physx@@IAEXI@Z 100c2b90 f i LowLevelCHECKED:PxsContext.obj
 0001:000c1c40       ?recreate@?$Array@VPxTransform@physx@@VNamedAllocator@shdfnd@2@@shdfnd@physx@@IAEXI@Z 100c2c40 f i LowLevelCHECKED:PxsContext.obj
 0001:000c1cf0       ?release@PxsCMUpdateTask@@UAEXXZ 100c2cf0 f i LowLevelCHECKED:PxsContext.obj
 0001:000c1d10       ?releaseEmptySlabs@?$PoolBase@VLargePersistentContactManifold@Gu@physx@@VNamedAllocator@shdfnd@3@@shdfnd@physx@@IAEXXZ 100c2d10 f i LowLevelCHECKED:PxsContext.obj
 0001:000c2000       ?releaseEmptySlabs@?$PoolBase@VSpherePersistentContactManifold@Gu@physx@@VNamedAllocator@shdfnd@3@@shdfnd@physx@@IAEXXZ 100c3000 f i LowLevelCHECKED:PxsContext.obj
 0001:000c22f0       ?runInternal@?$DelegateTask@VPxsContext@physx@@$1?mergeCMDiscreteUpdateResults@12@AAEXPAVPxBaseTask@2@@Z@Cm@physx@@UAEXXZ 100c32f0 f i LowLevelCHECKED:PxsContext.obj
 0001:000c2300       ?runInternal@?$DelegateTask@VPxsContext@physx@@$1?prepareCMDiscreteUpdate@12@AAEXPAVPxBaseTask@2@@Z@Cm@physx@@UAEXXZ 100c3300 f i LowLevelCHECKED:PxsContext.obj
 0001:000c2310       ?runInternal@PxsCMDiscreteUpdateTask@@UAEXXZ 100c3310 f i LowLevelCHECKED:PxsContext.obj
 0001:000c2820       ?PxcContactSphereHeightFieldShared@physx@@YA_NABVGeometryUnion@Gu@1@0ABVPxTransform@1@1ABMAAUPxcNpCache@1@AAVContactBuffer@31@_N@Z 100c3820 f   LowLevelCHECKED:PxcContactSphereHeightField.obj
 0001:000c4230       ?PxcContactSphereHeightField@physx@@YA_NABVGeometryUnion@Gu@1@0ABVPxTransform@1@1ABMAAUPxcNpCache@1@AAVContactBuffer@31@@Z 100c5230 f   LowLevelCHECKED:PxcContactSphereHeightField.obj
 0001:000c4260       ?PxcContactSphereHeightFieldUnified@physx@@YA_NABVGeometryUnion@Gu@1@0ABVPxTransform@1@1ABMAAUPxcNpCache@1@AAVContactBuffer@31@@Z 100c5260 f   LowLevelCHECKED:PxcContactSphereHeightField.obj
 0001:000c4900       ?getEdgeTriangleIndices@HeightField@Gu@physx@@QBEIIQAI@Z 100c5900 f i LowLevelCHECKED:PxcContactSphereHeightField.obj
 0001:000c4a50       ?getHeightInternal2@HeightField@Gu@physx@@QBEMIMM@Z 100c5a50 f i LowLevelCHECKED:PxcContactSphereHeightField.obj
 0001:000c4bf0       ?getNormal_2@HeightField@Gu@physx@@QBE?AVPxVec3@3@IMMMMM@Z 100c5bf0 f i LowLevelCHECKED:PxcContactSphereHeightField.obj
 0001:000c4d40       ?getTriangleNormalInternal@HeightField@Gu@physx@@QBE?AVPxVec3@3@I@Z 100c5d40 f i LowLevelCHECKED:PxcContactSphereHeightField.obj
 0001:000c4e80       ?getTriangleVertexIndices@HeightField@Gu@physx@@QBEXIAAI00@Z 100c5e80 f i LowLevelCHECKED:PxcContactSphereHeightField.obj
 0001:000c4f40       ?PxcContactCapsuleHeightFieldUnified@physx@@YA_NABVGeometryUnion@Gu@1@0ABVPxTransform@1@1ABMAAUPxcNpCache@1@AAVContactBuffer@31@@Z 100c5f40 f   LowLevelCHECKED:PxcContactCapsuleHeightField.obj
 0001:000c4f50       ?PxcContactCapsuleHeightField@physx@@YA_NABVGeometryUnion@Gu@1@0ABVPxTransform@1@1ABMAAUPxcNpCache@1@AAVContactBuffer@31@@Z 100c5f50 f   LowLevelCHECKED:PxcContactCapsuleHeightField.obj
 0001:000c7a20       ?PxcContactBoxHeightFieldUnified@physx@@YA_NABVGeometryUnion@Gu@1@0ABVPxTransform@1@1ABMAAUPxcNpCache@1@AAVContactBuffer@31@@Z 100c8a20 f   LowLevelCHECKED:PxcContactBoxHeightField.obj
 0001:000c7a30       ?PxcContactBoxHeightField@physx@@YA_NABVGeometryUnion@Gu@1@0ABVPxTransform@1@1ABMAAUPxcNpCache@1@AAVContactBuffer@31@@Z 100c8a30 f   LowLevelCHECKED:PxcContactBoxHeightField.obj
 0001:000ca540       ??$traceSegment@UPxcContactTraceSegmentCallback@physx@@$00$00$0A@@HeightFieldUtil@Gu@physx@@QBEXABVPxVec3@2@0PAUPxcContactTraceSegmentCallback@2@PBV32@@Z 100cb540 f i LowLevelCHECKED:PxcContactBoxHeightField.obj
 0001:000cb940       ?getInverse@PxMat33@physx@@QBE?AV12@XZ 100cc940 f i LowLevelCHECKED:PxcContactBoxHeightField.obj
 0001:000cbc30       ?underFaceHit@PxcContactTraceSegmentCallback@physx@@QAE_NABVHeightFieldUtil@Gu@2@ABVPxVec3@2@1MMMI@Z 100ccc30 f i LowLevelCHECKED:PxcContactBoxHeightField.obj
 0001:000cc040       ?PxcContactConvexHeightFieldUnified@physx@@YA_NABVGeometryUnion@Gu@1@0ABVPxTransform@1@1ABMAAUPxcNpCache@1@AAVContactBuffer@31@@Z 100cd040 f   LowLevelCHECKED:PxcContactConvexHeightField.obj
 0001:000cc050       ?PxcContactConvexHeightField@physx@@YA_NABVGeometryUnion@Gu@1@0ABVPxTransform@1@1ABMAAUPxcNpCache@1@AAVContactBuffer@31@@Z 100cd050 f   LowLevelCHECKED:PxcContactConvexHeightField.obj
 0001:000ce2f0       ??0ConvexEdge@Gu@physx@@QAE@XZ 100cf2f0 f i LowLevelCHECKED:PxcContactConvexHeightField.obj
 0001:000ce300       ??0FastVertex2ShapeScaling@Cm@physx@@QAE@XZ 100cf300 f i LowLevelCHECKED:PxcContactConvexHeightField.obj
 0001:000ce6c0       ?init@FastVertex2ShapeScaling@Cm@physx@@QAEXABVPxVec3@3@ABVPxQuat@3@@Z 100cf6c0 f i LowLevelCHECKED:PxcContactConvexHeightField.obj
 0001:000ced70       ?PxcPCMContactSphereHeightField@physx@@YA_NABVGeometryUnion@Gu@1@0ABVPxTransform@1@1ABMAAUPxcNpCache@1@AAVContactBuffer@31@@Z 100cfd70 f   LowLevelCHECKED:PxcPCMContactSphereHeightField.obj
 0001:000ced80       ?PxcPCMContactCapsuleHeightField@physx@@YA_NABVGeometryUnion@Gu@1@0ABVPxTransform@1@1ABMAAUPxcNpCache@1@AAVContactBuffer@31@@Z 100cfd80 f   LowLevelCHECKED:PxcPCMContactCapsuleHeightField.obj
 0001:000ced90       ?PxcPCMContactBoxHeightField@physx@@YA_NABVGeometryUnion@Gu@1@0ABVPxTransform@1@1ABMAAUPxcNpCache@1@AAVContactBuffer@31@@Z 100cfd90 f   LowLevelCHECKED:PxcPCMContactBoxHeightField.obj
 0001:000ceda0       ?PxcPCMContactConvexHeightField@physx@@YA_NABVGeometryUnion@Gu@1@0ABVPxTransform@1@1ABMAAUPxcNpCache@1@AAVContactBuffer@31@@Z 100cfda0 f   LowLevelCHECKED:PxcPCMContactConvexHeightField.obj
 0001:000cedc0       ?PxcInvalidSweptContactPair@physx@@YA_NABUPxsCCDShape@1@0PBVPxsRigidBody@1@1ABVPxTransform@1@222MAAVPxVec3@1@3AAUPxcNpCache@1@AAVPxcNpThreadContext@1@M@Z 100cfdc0 f   LowLevelCHECKED:PxcContactMethodImpl.obj
 0001:000cedd0       ?PxcUnimplementedSweep@physx@@YAMABUPxsCCDShape@1@0PBVPxsRigidBody@1@1ABVPxTransform@1@222MAAVPxVec3@1@3AAUPxcNpCache@1@AAVPxcNpThreadContext@1@M@Z 100cfdd0 f   LowLevelCHECKED:PxcContactMethodImpl.obj
 0001:000cede0       ??0PxcNpMemBlockPool@physx@@QAE@AAVPxcScratchAllocator@1@@Z 100cfde0 f   LowLevelCHECKED:PxcNpMemBlockPool.obj
 0001:000cf010       ??1PxcNpMemBlockPool@physx@@QAE@XZ 100d0010 f   LowLevelCHECKED:PxcNpMemBlockPool.obj
 0001:000cf270       ?init@PxcNpMemBlockPool@physx@@QAEXII@Z 100d0270 f   LowLevelCHECKED:PxcNpMemBlockPool.obj
 0001:000cf340       ?setBlockCount@PxcNpMemBlockPool@physx@@QAEXI@Z 100d0340 f   LowLevelCHECKED:PxcNpMemBlockPool.obj
 0001:000cf3d0       ?getUsedBlockCount@PxcNpMemBlockPool@physx@@QBEIXZ 100d03d0 f   LowLevelCHECKED:PxcNpMemBlockPool.obj
 0001:000cf3e0       ?getMaxUsedBlockCount@PxcNpMemBlockPool@physx@@QBEIXZ 100d03e0 f   LowLevelCHECKED:PxcNpMemBlockPool.obj
 0001:000cf3f0       ?getPeakConstraintBlockCount@PxcNpMemBlockPool@physx@@QBEIXZ 100d03f0 f   LowLevelCHECKED:PxcNpMemBlockPool.obj
 0001:000cf400       ?releaseUnusedBlocks@PxcNpMemBlockPool@physx@@QAEXXZ 100d0400 f   LowLevelCHECKED:PxcNpMemBlockPool.obj
 0001:000cf450       ?acquireConstraintBlock@PxcNpMemBlockPool@physx@@QAEPAUPxcNpMemBlock@2@XZ 100d0450 f   LowLevelCHECKED:PxcNpMemBlockPool.obj
 0001:000cf460       ?acquireConstraintBlock@PxcNpMemBlockPool@physx@@QAEPAUPxcNpMemBlock@2@AAV?$Array@PAUPxcNpMemBlock@physx@@VNamedAllocator@shdfnd@2@@shdfnd@2@@Z 100d0460 f   LowLevelCHECKED:PxcNpMemBlockPool.obj
 0001:000cf480       ?acquireContactBlock@PxcNpMemBlockPool@physx@@QAEPAUPxcNpMemBlock@2@XZ 100d0480 f   LowLevelCHECKED:PxcNpMemBlockPool.obj
 0001:000cf4a0       ?acquireFrictionBlock@PxcNpMemBlockPool@physx@@QAEPAUPxcNpMemBlock@2@XZ 100d04a0 f   LowLevelCHECKED:PxcNpMemBlockPool.obj
 0001:000cf4c0       ?acquireNpCacheBlock@PxcNpMemBlockPool@physx@@QAEPAUPxcNpMemBlock@2@XZ 100d04c0 f   LowLevelCHECKED:PxcNpMemBlockPool.obj
 0001:000cf4e0       ?acquireExceptionalConstraintMemory@PxcNpMemBlockPool@physx@@QAEPAEI@Z 100d04e0 f   LowLevelCHECKED:PxcNpMemBlockPool.obj
 0001:000cf560       ?acquireConstraintMemory@PxcNpMemBlockPool@physx@@QAEXXZ 100d0560 f   LowLevelCHECKED:PxcNpMemBlockPool.obj
 0001:000cf5e0       ?releaseConstraintMemory@PxcNpMemBlockPool@physx@@QAEXXZ 100d05e0 f   LowLevelCHECKED:PxcNpMemBlockPool.obj
 0001:000cf710       ?releaseConstraintBlocks@PxcNpMemBlockPool@physx@@QAEXAAV?$Array@PAUPxcNpMemBlock@physx@@VNamedAllocator@shdfnd@2@@shdfnd@2@@Z 100d0710 f   LowLevelCHECKED:PxcNpMemBlockPool.obj
 0001:000cf7d0       ?releaseContacts@PxcNpMemBlockPool@physx@@QAEXXZ 100d07d0 f   LowLevelCHECKED:PxcNpMemBlockPool.obj
 0001:000cf810       ?swapFrictionStreams@PxcNpMemBlockPool@physx@@QAEXXZ 100d0810 f   LowLevelCHECKED:PxcNpMemBlockPool.obj
 0001:000cf850       ?swapNpCacheStreams@PxcNpMemBlockPool@physx@@QAEXXZ 100d0850 f   LowLevelCHECKED:PxcNpMemBlockPool.obj
 0001:000cf880       ?flushUnused@PxcNpMemBlockPool@physx@@QAEXXZ 100d0880 f   LowLevelCHECKED:PxcNpMemBlockPool.obj
 0001:000cf8c0       ?acquire@PxcNpMemBlockPool@physx@@AAEPAUPxcNpMemBlock@2@AAV?$Array@PAUPxcNpMemBlock@physx@@VNamedAllocator@shdfnd@2@@shdfnd@2@PAI1_N@Z 100d08c0 f   LowLevelCHECKED:PxcNpMemBlockPool.obj
 0001:000cfa80       ?release@PxcNpMemBlockPool@physx@@AAEXAAV?$Array@PAUPxcNpMemBlock@physx@@VNamedAllocator@shdfnd@2@@shdfnd@2@PAI@Z 100d0a80 f   LowLevelCHECKED:PxcNpMemBlockPool.obj
 0001:000cfe50       ??1?$Array@PAUPxcNpMemBlock@physx@@VNamedAllocator@shdfnd@2@@shdfnd@physx@@QAE@XZ 100d0e50 f i LowLevelCHECKED:PxcNpMemBlockPool.obj
 0001:000cfe80       ??_F?$Array@PAUPxcNpMemBlock@physx@@VNamedAllocator@shdfnd@2@@shdfnd@physx@@QAEXXZ 100d0e80 f i LowLevelCHECKED:PxcNpMemBlockPool.obj
 0001:000cfed0       ?allocAll@PxcScratchAllocator@physx@@QAEPAXAAI@Z 100d0ed0 f i LowLevelCHECKED:PxcNpMemBlockPool.obj
 0001:000cff80       ?free@PxcScratchAllocator@physx@@QAEXPAX@Z 100d0f80 f i LowLevelCHECKED:PxcNpMemBlockPool.obj
 0001:000d0020       ?growAndPushBack@?$Array@PAUPxcNpMemBlock@physx@@VNamedAllocator@shdfnd@2@@shdfnd@physx@@IAEAAPAUPxcNpMemBlock@3@ABQAU43@@Z 100d1020 f i LowLevelCHECKED:PxcNpMemBlockPool.obj
 0001:000d0110       ?recreate@?$Array@PAUPxcNpMemBlock@physx@@VNamedAllocator@shdfnd@2@@shdfnd@physx@@IAEXI@Z 100d1110 f i LowLevelCHECKED:PxcNpMemBlockPool.obj
 0001:000d01d0       ?resize@?$Array@PAUPxcNpMemBlock@physx@@VNamedAllocator@shdfnd@2@@shdfnd@physx@@QAEXIABQAUPxcNpMemBlock@3@@Z 100d11d0 f i LowLevelCHECKED:PxcNpMemBlockPool.obj
 0001:000d0230       ?PxcFsApplyImpulse@physx@@YAXAAUPxcFsData@1@IT__m128@@1@Z 100d1230 f   LowLevelCHECKED:PxcArticulationSIMD.obj
 0001:000d03b0       ?PxcFsGetVelocity@physx@@YA?AUPxcSIMDSpatial@1@AAUPxcFsData@1@I@Z 100d13b0 f   LowLevelCHECKED:PxcArticulationSIMD.obj
 0001:000d0930       ?PxcFsFlushVelocity@physx@@YAXAAUPxcFsData@1@@Z 100d1930 f   LowLevelCHECKED:PxcArticulationSIMD.obj
 0001:000d10b0       ?solve1D@physx@@YAXABUPxcSolverConstraintDesc@1@AAUPxcSolverContext@1@@Z 100d20b0 f   LowLevelCHECKED:PxsSolverCoreSIMD.obj
 0001:000d1300       ?solveContact@physx@@YAXABUPxcSolverConstraintDesc@1@AAUPxcSolverContext@1@@Z 100d2300 f   LowLevelCHECKED:PxsSolverCoreSIMD.obj
 0001:000d1840       ?solveContact_BStatic@physx@@YAXABUPxcSolverConstraintDesc@1@AAUPxcSolverContext@1@@Z 100d2840 f   LowLevelCHECKED:PxsSolverCoreSIMD.obj
 0001:000d1bd0       ?solveConclude1D@physx@@YAXABUPxcSolverConstraintDesc@1@AAUPxcSolverContext@1@@Z 100d2bd0 f   LowLevelCHECKED:PxsSolverCoreSIMD.obj
 0001:000d1c20       ?solveConcludeContact@physx@@YAXABUPxcSolverConstraintDesc@1@AAUPxcSolverContext@1@@Z 100d2c20 f   LowLevelCHECKED:PxsSolverCoreSIMD.obj
 0001:000d1c40       ?solveConcludeExtContact@physx@@YAXABUPxcSolverConstraintDesc@1@AAUPxcSolverContext@1@@Z 100d2c40 f   LowLevelCHECKED:PxsSolverCoreSIMD.obj
 0001:000d1c60       ?solveConcludeExt1D@physx@@YAXABUPxcSolverConstraintDesc@1@AAUPxcSolverContext@1@@Z 100d2c60 f   LowLevelCHECKED:PxsSolverCoreSIMD.obj
 0001:000d1cb0       ?solveConcludeContact_BStatic@physx@@YAXABUPxcSolverConstraintDesc@1@AAUPxcSolverContext@1@@Z 100d2cb0 f   LowLevelCHECKED:PxsSolverCoreSIMD.obj
 0001:000d1cd0       ?solve1DBlock@physx@@YAXPIBUPxcSolverConstraintDesc@1@IAAUPxcSolverContext@1@@Z 100d2cd0 f   LowLevelCHECKED:PxsSolverCoreSIMD.obj
 0001:000d1f90       ?solveContactBlock@physx@@YAXPIBUPxcSolverConstraintDesc@1@IAAUPxcSolverContext@1@@Z 100d2f90 f   LowLevelCHECKED:PxsSolverCoreSIMD.obj
 0001:000d2000       ?solveContact_BStaticBlock@physx@@YAXPIBUPxcSolverConstraintDesc@1@IAAUPxcSolverContext@1@@Z 100d3000 f   LowLevelCHECKED:PxsSolverCoreSIMD.obj
 0001:000d2070       ?solve1DConcludeBlock@physx@@YAXPIBUPxcSolverConstraintDesc@1@IAAUPxcSolverContext@1@@Z 100d3070 f   LowLevelCHECKED:PxsSolverCoreSIMD.obj
 0001:000d2140       ?solveContactConcludeBlock@physx@@YAXPIBUPxcSolverConstraintDesc@1@IAAUPxcSolverContext@1@@Z 100d3140 f   LowLevelCHECKED:PxsSolverCoreSIMD.obj
 0001:000d21c0       ?solveContact_BStaticConcludeBlock@physx@@YAXPIBUPxcSolverConstraintDesc@1@IAAUPxcSolverContext@1@@Z 100d31c0 f   LowLevelCHECKED:PxsSolverCoreSIMD.obj
 0001:000d2240       ?solve1DBlockWriteBack@physx@@YAXPIBUPxcSolverConstraintDesc@1@IAAUPxcSolverContext@1@PIAUPxcThresholdStreamElement@1@IPAH@Z 100d3240 f   LowLevelCHECKED:PxsSolverCoreSIMD.obj
 0001:000d2300       ?solveContactBlockWriteBack@physx@@YAXPIBUPxcSolverConstraintDesc@1@IAAUPxcSolverContext@1@PIAUPxcThresholdStreamElement@1@IPAH@Z 100d3300 f   LowLevelCHECKED:PxsSolverCoreSIMD.obj
 0001:000d2400       ?solveContact_BStaticBlockWriteBack@physx@@YAXPIBUPxcSolverConstraintDesc@1@IAAUPxcSolverContext@1@PIAUPxcThresholdStreamElement@1@IPAH@Z 100d3400 f   LowLevelCHECKED:PxsSolverCoreSIMD.obj
 0001:000d2500       ?writeBack1DBlock@physx@@YAXPIBUPxcSolverConstraintDesc@1@IAAUPxcSolverContext@1@PIAUPxcThresholdStreamElement@1@IPAH@Z 100d3500 f   LowLevelCHECKED:PxsSolverCoreSIMD.obj
 0001:000d25a0       ?contactBlockWriteBack@physx@@YAXPIBUPxcSolverConstraintDesc@1@IAAUPxcSolverContext@1@PIAUPxcThresholdStreamElement@1@IPAH@Z 100d35a0 f   LowLevelCHECKED:PxsSolverCoreSIMD.obj
 0001:000d27c0       ?conclude1D@physx@@YAXABUPxcSolverConstraintDesc@1@AAUPxcSolverContext@1@@Z 100d37c0 f   LowLevelCHECKED:PxsSolverCoreSIMD.obj
 0001:000d2800       ?concludeContact@physx@@YAXABUPxcSolverConstraintDesc@1@AAUPxcSolverContext@1@@Z 100d3800 f   LowLevelCHECKED:PxsSolverCoreSIMD.obj
 0001:000d28f0       ?writeBack1D@physx@@YAXABUPxcSolverConstraintDesc@1@AAUPxcSolverContext@1@AAUPxcSolverBodyData@1@2@Z 100d38f0 f   LowLevelCHECKED:PxsSolverCoreSIMD.obj
 0001:000d2a90       ?writeBackContact@physx@@YAXABUPxcSolverConstraintDesc@1@AAUPxcSolverContext@1@AAUPxcSolverBodyData@1@2@Z 100d3a90 f   LowLevelCHECKED:PxsSolverCoreSIMD.obj
 0001:000d32f0       ?solveContactPreBlock@physx@@YAXPIBUPxcSolverConstraintDesc@1@IAAUPxcSolverContext@1@@Z 100d42f0 f   LowLevelCHECKED:PxsSolverCoreSIMDBlock.obj
 0001:000d3310       ?solveContactPreBlock_Static@physx@@YAXPIBUPxcSolverConstraintDesc@1@IAAUPxcSolverContext@1@@Z 100d4310 f   LowLevelCHECKED:PxsSolverCoreSIMDBlock.obj
 0001:000d3330       ?solve1D4_Block@physx@@YAXPIBUPxcSolverConstraintDesc@1@IAAUPxcSolverContext@1@@Z 100d4330 f   LowLevelCHECKED:PxsSolverCoreSIMDBlock.obj
 0001:000d3350       ?solveContactPreBlock_Conclude@physx@@YAXPIBUPxcSolverConstraintDesc@1@IAAUPxcSolverContext@1@@Z 100d4350 f   LowLevelCHECKED:PxsSolverCoreSIMDBlock.obj
 0001:000d3380       ?solveContactPreBlock_ConcludeStatic@physx@@YAXPIBUPxcSolverConstraintDesc@1@IAAUPxcSolverContext@1@@Z 100d4380 f   LowLevelCHECKED:PxsSolverCoreSIMDBlock.obj
 0001:000d33b0       ?solve1D4Block_Conclude@physx@@YAXPIBUPxcSolverConstraintDesc@1@IAAUPxcSolverContext@1@@Z 100d43b0 f   LowLevelCHECKED:PxsSolverCoreSIMDBlock.obj
 0001:000d3410       ?solveContactPreBlock_WriteBack@physx@@YAXPIBUPxcSolverConstraintDesc@1@IAAUPxcSolverContext@1@PIAUPxcThresholdStreamElement@1@IPAH@Z 100d4410 f   LowLevelCHECKED:PxsSolverCoreSIMDBlock.obj
 0001:000d34f0       ?solveContactPreBlock_WriteBackStatic@physx@@YAXPIBUPxcSolverConstraintDesc@1@IAAUPxcSolverContext@1@PIAUPxcThresholdStreamElement@1@IPAH@Z 100d44f0 f   LowLevelCHECKED:PxsSolverCoreSIMDBlock.obj
 0001:000d35d0       ?solve1D4Block_WriteBack@physx@@YAXPIBUPxcSolverConstraintDesc@1@IAAUPxcSolverContext@1@PIAUPxcThresholdStreamElement@1@IPAH@Z 100d45d0 f   LowLevelCHECKED:PxsSolverCoreSIMDBlock.obj
 0001:000d3600       ?contactPreBlock_WriteBack@physx@@YAXPIBUPxcSolverConstraintDesc@1@IAAUPxcSolverContext@1@PIAUPxcThresholdStreamElement@1@IPAH@Z 100d4600 f   LowLevelCHECKED:PxsSolverCoreSIMDBlock.obj
 0001:000d36d0       ?writeBack1D4Block@physx@@YAXPIBUPxcSolverConstraintDesc@1@IAAUPxcSolverContext@1@PIAUPxcThresholdStreamElement@1@IPAH@Z 100d46d0 f   LowLevelCHECKED:PxsSolverCoreSIMDBlock.obj
 0001:000d36f0       ?writeBack1D4@physx@@YAXPIBUPxcSolverConstraintDesc@1@AAUPxcSolverContext@1@PIAPBUPxcSolverBodyData@1@2@Z 100d46f0 f   LowLevelCHECKED:PxsSolverCoreSIMDBlock.obj
 0001:000d3a00       ?writeBackContact4_Block@physx@@YAXPIBUPxcSolverConstraintDesc@1@AAUPxcSolverContext@1@PIAPBUPxcSolverBodyData@1@2@Z 100d4a00 f   LowLevelCHECKED:PxsSolverCoreSIMDBlock.obj
 0001:000d5c70       ?solveContactCoulomb@physx@@YAXABUPxcSolverConstraintDesc@1@AAUPxcSolverContext@1@@Z 100d6c70 f   LowLevelCHECKED:PxsSolverCoreSIMDPF.obj
 0001:000d5f80       ?solveContactCoulomb_BStatic@physx@@YAXABUPxcSolverConstraintDesc@1@AAUPxcSolverContext@1@@Z 100d6f80 f   LowLevelCHECKED:PxsSolverCoreSIMDPF.obj
 0001:000d61a0       ?solveConcludeContactCoulomb@physx@@YAXABUPxcSolverConstraintDesc@1@AAUPxcSolverContext@1@@Z 100d71a0 f   LowLevelCHECKED:PxsSolverCoreSIMDPF.obj
 0001:000d61c0       ?solveConcludeContactCoulomb_BStatic@physx@@YAXABUPxcSolverConstraintDesc@1@AAUPxcSolverContext@1@@Z 100d71c0 f   LowLevelCHECKED:PxsSolverCoreSIMDPF.obj
 0001:000d61e0       ?solveFriction@physx@@YAXABUPxcSolverConstraintDesc@1@AAUPxcSolverContext@1@@Z 100d71e0 f   LowLevelCHECKED:PxsSolverCoreSIMDPF.obj
 0001:000d64b0       ?solveFriction_BStatic@physx@@YAXABUPxcSolverConstraintDesc@1@AAUPxcSolverContext@1@@Z 100d74b0 f   LowLevelCHECKED:PxsSolverCoreSIMDPF.obj
 0001:000d66a0       ?solveFrictionBlock@physx@@YAXPIBUPxcSolverConstraintDesc@1@IAAUPxcSolverContext@1@@Z 100d76a0 f   LowLevelCHECKED:PxsSolverCoreSIMDPF.obj
 0001:000d69a0       ?solveFriction_BStaticBlock@physx@@YAXPIBUPxcSolverConstraintDesc@1@IAAUPxcSolverContext@1@@Z 100d79a0 f   LowLevelCHECKED:PxsSolverCoreSIMDPF.obj
 0001:000d6bb0       ?solveContactCoulombBlock@physx@@YAXPIBUPxcSolverConstraintDesc@1@IAAUPxcSolverContext@1@@Z 100d7bb0 f   LowLevelCHECKED:PxsSolverCoreSIMDPF.obj
 0001:000d6ee0       ?solveContactCoulomb_BStaticBlock@physx@@YAXPIBUPxcSolverConstraintDesc@1@IAAUPxcSolverContext@1@@Z 100d7ee0 f   LowLevelCHECKED:PxsSolverCoreSIMDPF.obj
 0001:000d7120       ?solveContactCoulombConcludeBlock@physx@@YAXPIBUPxcSolverConstraintDesc@1@IAAUPxcSolverContext@1@@Z 100d8120 f   LowLevelCHECKED:PxsSolverCoreSIMDPF.obj
 0001:000d7160       ?solveContactCoulomb_BStaticConcludeBlock@physx@@YAXPIBUPxcSolverConstraintDesc@1@IAAUPxcSolverContext@1@@Z 100d8160 f   LowLevelCHECKED:PxsSolverCoreSIMDPF.obj
 0001:000d71a0       ?solveContactCoulombBlockWriteBack@physx@@YAXPIBUPxcSolverConstraintDesc@1@IAAUPxcSolverContext@1@PIAUPxcThresholdStreamElement@1@IPAH@Z 100d81a0 f   LowLevelCHECKED:PxsSolverCoreSIMDPF.obj
 0001:000d7230       ?solveContactCoulomb_BStaticBlockWriteBack@physx@@YAXPIBUPxcSolverConstraintDesc@1@IAAUPxcSolverContext@1@PIAUPxcThresholdStreamElement@1@IPAH@Z 100d8230 f   LowLevelCHECKED:PxsSolverCoreSIMDPF.obj
 0001:000d72c0       ?solveFrictionBlockWriteBack@physx@@YAXPIBUPxcSolverConstraintDesc@1@IAAUPxcSolverContext@1@PIAUPxcThresholdStreamElement@1@IPAH@Z 100d82c0 f   LowLevelCHECKED:PxsSolverCoreSIMDPF.obj
 0001:000d75e0       ?solveFriction_BStaticBlockWriteBack@physx@@YAXPIBUPxcSolverConstraintDesc@1@IAAUPxcSolverContext@1@PIAUPxcThresholdStreamElement@1@IPAH@Z 100d85e0 f   LowLevelCHECKED:PxsSolverCoreSIMDPF.obj
 0001:000d77f0       ?concludeContactCoulomb@physx@@YAXABUPxcSolverConstraintDesc@1@AAUPxcSolverContext@1@@Z 100d87f0 f   LowLevelCHECKED:PxsSolverCoreSIMDPF.obj
 0001:000d7880       ?writeBackContactCoulomb@physx@@YAXABUPxcSolverConstraintDesc@1@AAUPxcSolverContext@1@AAUPxcSolverBodyData@1@2@Z 100d8880 f   LowLevelCHECKED:PxsSolverCoreSIMDPF.obj
 0001:000d7900       ?solveFriction_BStaticConcludeBlock@physx@@YAXPIBUPxcSolverConstraintDesc@1@IAAUPxcSolverContext@1@@Z 100d8900 f   LowLevelCHECKED:PxsSolverCoreSIMDPF.obj
 0001:000d82c0       ?solveContactCoulombPreBlock@physx@@YAXPIBUPxcSolverConstraintDesc@1@IAAUPxcSolverContext@1@@Z 100d92c0 f   LowLevelCHECKED:PxsSolverCoreSIMDBlockPF.obj
 0001:000d82e0       ?solveContactCoulombPreBlock_Static@physx@@YAXPIBUPxcSolverConstraintDesc@1@IAAUPxcSolverContext@1@@Z 100d92e0 f   LowLevelCHECKED:PxsSolverCoreSIMDBlockPF.obj
 0001:000d8300       ?solveContactCoulombPreBlock_Conclude@physx@@YAXPIBUPxcSolverConstraintDesc@1@IAAUPxcSolverContext@1@@Z 100d9300 f   LowLevelCHECKED:PxsSolverCoreSIMDBlockPF.obj
 0001:000d8320       ?solveContactCoulombPreBlock_ConcludeStatic@physx@@YAXPIBUPxcSolverConstraintDesc@1@IAAUPxcSolverContext@1@@Z 100d9320 f   LowLevelCHECKED:PxsSolverCoreSIMDBlockPF.obj
 0001:000d8340       ?solveContactCoulombPreBlock_WriteBack@physx@@YAXPIBUPxcSolverConstraintDesc@1@IAAUPxcSolverContext@1@PIAUPxcThresholdStreamElement@1@IPAH@Z 100d9340 f   LowLevelCHECKED:PxsSolverCoreSIMDBlockPF.obj
 0001:000d8420       ?solveContactCoulombPreBlock_WriteBackStatic@physx@@YAXPIBUPxcSolverConstraintDesc@1@IAAUPxcSolverContext@1@PIAUPxcThresholdStreamElement@1@IPAH@Z 100d9420 f   LowLevelCHECKED:PxsSolverCoreSIMDBlockPF.obj
 0001:000d8500       ?solveFrictionCoulombPreBlock@physx@@YAXPIBUPxcSolverConstraintDesc@1@IAAUPxcSolverContext@1@@Z 100d9500 f   LowLevelCHECKED:PxsSolverCoreSIMDBlockPF.obj
 0001:000d8520       ?solveFrictionCoulombPreBlock_Static@physx@@YAXPIBUPxcSolverConstraintDesc@1@IAAUPxcSolverContext@1@@Z 100d9520 f   LowLevelCHECKED:PxsSolverCoreSIMDBlockPF.obj
 0001:000d8540       ?solveFrictionCoulombPreBlock_Conclude@physx@@YAXPIBUPxcSolverConstraintDesc@1@IAAUPxcSolverContext@1@@Z 100d9540 f   LowLevelCHECKED:PxsSolverCoreSIMDBlockPF.obj
 0001:000d8560       ?solveFrictionCoulombPreBlock_ConcludeStatic@physx@@YAXPIBUPxcSolverConstraintDesc@1@IAAUPxcSolverContext@1@@Z 100d9560 f   LowLevelCHECKED:PxsSolverCoreSIMDBlockPF.obj
 0001:000d8580       ?solveFrictionCoulombPreBlock_WriteBack@physx@@YAXPIBUPxcSolverConstraintDesc@1@IAAUPxcSolverContext@1@PIAUPxcThresholdStreamElement@1@IPAH@Z 100d9580 f   LowLevelCHECKED:PxsSolverCoreSIMDBlockPF.obj
 0001:000d85a0       ?solveFrictionCoulombPreBlock_WriteBackStatic@physx@@YAXPIBUPxcSolverConstraintDesc@1@IAAUPxcSolverContext@1@PIAUPxcThresholdStreamElement@1@IPAH@Z 100d95a0 f   LowLevelCHECKED:PxsSolverCoreSIMDBlockPF.obj
 0001:000d85c0       ?writeBackContactCoulomb4@physx@@YAXPBUPxcSolverConstraintDesc@1@AAUPxcSolverContext@1@PIAPBUPxcSolverBodyData@1@2@Z 100d95c0 f   LowLevelCHECKED:PxsSolverCoreSIMDBlockPF.obj
 0001:000da7d0       ?solveExtContact@physx@@YAXABUPxcSolverConstraintDesc@1@AAUPxcSolverContext@1@@Z 100db7d0 f   LowLevelCHECKED:PxsSolverExt.obj
 0001:000dae70       ?solveExt1D@physx@@YAXABUPxcSolverConstraintDesc@1@AAUPxcSolverContext@1@@Z 100dbe70 f   LowLevelCHECKED:PxsSolverExt.obj
 0001:000db1e0       ?solveExtContactBlock@physx@@YAXPIBUPxcSolverConstraintDesc@1@IAAUPxcSolverContext@1@@Z 100dc1e0 f   LowLevelCHECKED:PxsSolverExt.obj
 0001:000db210       ?solveExtContactConcludeBlock@physx@@YAXPIBUPxcSolverConstraintDesc@1@IAAUPxcSolverContext@1@@Z 100dc210 f   LowLevelCHECKED:PxsSolverExt.obj
 0001:000db250       ?solveExtContactBlockWriteBack@physx@@YAXPIBUPxcSolverConstraintDesc@1@IAAUPxcSolverContext@1@PIAUPxcThresholdStreamElement@1@IPAH@Z 100dc250 f   LowLevelCHECKED:PxsSolverExt.obj
 0001:000db310       ?extContactBlockWriteBack@physx@@YAXPIBUPxcSolverConstraintDesc@1@IAAUPxcSolverContext@1@PIAUPxcThresholdStreamElement@1@IPAH@Z 100dc310 f   LowLevelCHECKED:PxsSolverExt.obj
 0001:000db3c0       ?solveExt1DBlock@physx@@YAXPIBUPxcSolverConstraintDesc@1@IAAUPxcSolverContext@1@@Z 100dc3c0 f   LowLevelCHECKED:PxsSolverExt.obj
 0001:000db750       ?solveExt1DConcludeBlock@physx@@YAXPIBUPxcSolverConstraintDesc@1@IAAUPxcSolverContext@1@@Z 100dc750 f   LowLevelCHECKED:PxsSolverExt.obj
 0001:000dbae0       ?solveExt1DBlockWriteBack@physx@@YAXPIBUPxcSolverConstraintDesc@1@IAAUPxcSolverContext@1@PIAUPxcThresholdStreamElement@1@IPAH@Z 100dcae0 f   LowLevelCHECKED:PxsSolverExt.obj
 0001:000dbeb0       ?ext1DBlockWriteBack@physx@@YAXPIBUPxcSolverConstraintDesc@1@IAAUPxcSolverContext@1@PIAUPxcThresholdStreamElement@1@IPAH@Z 100dceb0 f   LowLevelCHECKED:PxsSolverExt.obj
 0001:000dc4f0       ?solveExtContactCoulomb@physx@@YAXABUPxcSolverConstraintDesc@1@AAUPxcSolverContext@1@@Z 100dd4f0 f   LowLevelCHECKED:PxsSolverExtPF.obj
 0001:000dc920       ?solveExtFriction@physx@@YAXABUPxcSolverConstraintDesc@1@AAUPxcSolverContext@1@@Z 100dd920 f   LowLevelCHECKED:PxsSolverExtPF.obj
 0001:000dcdc0       ?solveExtFrictionBlock@physx@@YAXPIBUPxcSolverConstraintDesc@1@IAAUPxcSolverContext@1@@Z 100dddc0 f   LowLevelCHECKED:PxsSolverExtPF.obj
 0001:000dcdf0       ?solveExtFrictionConcludeBlock@physx@@YAXPIBUPxcSolverConstraintDesc@1@IAAUPxcSolverContext@1@@Z 100dddf0 f   LowLevelCHECKED:PxsSolverExtPF.obj
 0001:000dce20       ?solveExtFrictionBlockWriteBack@physx@@YAXPIBUPxcSolverConstraintDesc@1@IAAUPxcSolverContext@1@PIAUPxcThresholdStreamElement@1@IPAH@Z 100dde20 f   LowLevelCHECKED:PxsSolverExtPF.obj
 0001:000dce50       ?solveConcludeExtContactCoulomb@physx@@YAXABUPxcSolverConstraintDesc@1@AAUPxcSolverContext@1@@Z 100dde50 f   LowLevelCHECKED:PxsSolverExtPF.obj
 0001:000dce70       ?solveExtContactCoulombBlock@physx@@YAXPIBUPxcSolverConstraintDesc@1@IAAUPxcSolverContext@1@@Z 100dde70 f   LowLevelCHECKED:PxsSolverExtPF.obj
 0001:000dcea0       ?solveExtContactCoulombConcludeBlock@physx@@YAXPIBUPxcSolverConstraintDesc@1@IAAUPxcSolverContext@1@@Z 100ddea0 f   LowLevelCHECKED:PxsSolverExtPF.obj
 0001:000dcee0       ?solveExtContactCoulombBlockWriteBack@physx@@YAXPIBUPxcSolverConstraintDesc@1@IAAUPxcSolverContext@1@PIAUPxcThresholdStreamElement@1@IPAH@Z 100ddee0 f   LowLevelCHECKED:PxsSolverExtPF.obj
 0001:000dd240       ?runInternal@BroadPhaseBatchUpdateWorkTask@physx@@UAEXXZ 100de240 f   LowLevelCHECKED:PxsBroadPhaseSap.obj
 0001:000dd260       ??0PxsBroadPhaseContextSap@physx@@QAE@AAVPxcScratchAllocator@1@AAVEventProfiler@Cm@1@@Z 100de260 f   LowLevelCHECKED:PxsBroadPhaseSap.obj
 0001:000dd7e0       ??1PxsBroadPhaseContextSap@physx@@UAE@XZ 100de7e0 f   LowLevelCHECKED:PxsBroadPhaseSap.obj
 0001:000dd940       ?create@PxsBroadPhaseContextSap@physx@@SAPAV12@AAVPxcScratchAllocator@2@AAVEventProfiler@Cm@2@@Z 100de940 f   LowLevelCHECKED:PxsBroadPhaseSap.obj
 0001:000dd980       ?destroy@PxsBroadPhaseContextSap@physx@@UAEXXZ 100de980 f   LowLevelCHECKED:PxsBroadPhaseSap.obj
 0001:000dd9a0       ?update@PxsBroadPhaseContextSap@physx@@UAEXIIABVPxcBroadPhaseUpdateData@2@PAVPxBaseTask@2@@Z 100de9a0 f   LowLevelCHECKED:PxsBroadPhaseSap.obj
 0001:000dda30       ?freeBuffers@PxsBroadPhaseContextSap@physx@@UAEXXZ 100dea30 f   LowLevelCHECKED:PxsBroadPhaseSap.obj
 0001:000ddb90       ?shiftOrigin@PxsBroadPhaseContextSap@physx@@UAEXABVPxVec3@2@@Z 100deb90 f   LowLevelCHECKED:PxsBroadPhaseSap.obj
 0001:000ddf50       ?isValid@PxsBroadPhaseContextSap@physx@@MBE_NABVPxcBroadPhaseUpdateData@2@@Z 100def50 f   LowLevelCHECKED:PxsBroadPhaseSap.obj
 0001:000de0f0       ?setUpdateData@PxsBroadPhaseContextSap@physx@@AAE_NABVPxcBroadPhaseUpdateData@2@@Z 100df0f0 f   LowLevelCHECKED:PxsBroadPhaseSap.obj
 0001:000de700       ?updatePPU@PxsBroadPhaseContextSap@physx@@AAEXPAVPxBaseTask@2@@Z 100df700 f   LowLevelCHECKED:PxsBroadPhaseSap.obj
 0001:000de740       ?postUpdatePPU@PxsBroadPhaseContextSap@physx@@AAEXPAVPxBaseTask@2@@Z 100df740 f   LowLevelCHECKED:PxsBroadPhaseSap.obj
 0001:000de9f0       ?batchCreate@PxsBroadPhaseContextSap@physx@@AAEXXZ 100df9f0 f   LowLevelCHECKED:PxsBroadPhaseSap.obj
 0001:000ded80       ?batchRemove@PxsBroadPhaseContextSap@physx@@AAEXXZ 100dfd80 f   LowLevelCHECKED:PxsBroadPhaseSap.obj
 0001:000deff0       ?batchUpdate@PxsBroadPhaseContextSap@physx@@AAEXIAAPAUPxcBroadPhasePair@2@AAI1@Z 100dfff0 f   LowLevelCHECKED:PxsBroadPhaseSap.obj
 0001:000df620       ?batchUpdateFewUpdates@PxsBroadPhaseContextSap@physx@@AAEXIAAPAUPxcBroadPhasePair@2@AAI1@Z 100e0620 f   LowLevelCHECKED:PxsBroadPhaseSap.obj
 0001:000dfda0       ?performBoxPruning@PxsBroadPhaseContextSap@physx@@AAEXVAxes@Gu@2@@Z 100e0da0 f   LowLevelCHECKED:PxsBroadPhaseSap.obj
 0001:000e0be0       ??$partition@I$$CBU?$Less@I@shdfnd@physx@@@internal@shdfnd@physx@@YAHPAIHHABU?$Less@I@12@@Z 100e1be0 f i LowLevelCHECKED:PxsBroadPhaseSap.obj
 0001:000e0c90       ??$smallSort@I$$CBU?$Less@I@shdfnd@physx@@@internal@shdfnd@physx@@YAXPAIHHABU?$Less@I@12@@Z 100e1c90 f i LowLevelCHECKED:PxsBroadPhaseSap.obj
 0001:000e0d30       ??$sort@I@shdfnd@physx@@YAXPAII@Z 100e1d30 f i LowLevelCHECKED:PxsBroadPhaseSap.obj
 0001:000e0d70       ??$sort@IU?$Less@I@shdfnd@physx@@VNamedAllocator@23@@shdfnd@physx@@YAXPAIIABU?$Less@I@01@ABVNamedAllocator@01@I@Z 100e1d70 f i LowLevelCHECKED:PxsBroadPhaseSap.obj
 0001:000e1000       ??0BroadPhaseBatchUpdateWorkTask@physx@@QAE@XZ 100e2000 f i LowLevelCHECKED:PxsBroadPhaseSap.obj
 0001:000e1080       ??1BroadPhaseBatchUpdateWorkTask@physx@@UAE@XZ 100e2080 f i LowLevelCHECKED:PxsBroadPhaseSap.obj
 0001:000e10a0       ??1PxBroadPhaseBase@physx@@UAE@XZ 100e20a0 f i LowLevelCHECKED:PxsBroadPhaseSap.obj
 0001:000e10b0       ??_GBroadPhaseBatchUpdateWorkTask@physx@@UAEPAXI@Z 100e20b0 f i LowLevelCHECKED:PxsBroadPhaseSap.obj
 0001:000e10b0       ??_EBroadPhaseBatchUpdateWorkTask@physx@@UAEPAXI@Z 100e20b0 f i LowLevelCHECKED:PxsBroadPhaseSap.obj
 0001:000e10f0       ??_GPxBroadPhaseBase@physx@@UAEPAXI@Z 100e20f0 f i LowLevelCHECKED:PxsBroadPhaseSap.obj
 0001:000e10f0       ??_EPxBroadPhaseBase@physx@@UAEPAXI@Z 100e20f0 f i LowLevelCHECKED:PxsBroadPhaseSap.obj
 0001:000e1120       ??_EPxsBroadPhaseContextSap@physx@@UAEPAXI@Z 100e2120 f i LowLevelCHECKED:PxsBroadPhaseSap.obj
 0001:000e1120       ??_GPxsBroadPhaseContextSap@physx@@UAEPAXI@Z 100e2120 f i LowLevelCHECKED:PxsBroadPhaseSap.obj
 0001:000e1150       ??_GPxvBroadPhase@physx@@UAEPAXI@Z 100e2150 f i LowLevelCHECKED:PxsBroadPhaseSap.obj
 0001:000e1150       ??_EPxvBroadPhase@physx@@UAEPAXI@Z 100e2150 f i LowLevelCHECKED:PxsBroadPhaseSap.obj
 0001:000e1180       ??_GSapPostUpdateWorkTask@physx@@UAEPAXI@Z 100e2180 f i LowLevelCHECKED:PxsBroadPhaseSap.obj
 0001:000e1180       ??_ESapPostUpdateWorkTask@physx@@UAEPAXI@Z 100e2180 f i LowLevelCHECKED:PxsBroadPhaseSap.obj
 0001:000e11c0       ??_ESapUpdateWorkTask@physx@@UAEPAXI@Z 100e21c0 f i LowLevelCHECKED:PxsBroadPhaseSap.obj
 0001:000e11c0       ??_GSapUpdateWorkTask@physx@@UAEPAXI@Z 100e21c0 f i LowLevelCHECKED:PxsBroadPhaseSap.obj
 0001:000e1200       ?addRegion@PxBroadPhaseBase@physx@@UAEIABUPxBroadPhaseRegion@2@_N@Z 100e2200 f i LowLevelCHECKED:PxsBroadPhaseSap.obj
 0001:000e1210       ?getCaps@PxBroadPhaseBase@physx@@UBE_NAAUPxBroadPhaseCaps@2@@Z 100e2210 f i LowLevelCHECKED:PxsBroadPhaseSap.obj
 0001:000e1240       ?getCreatedPairs@PxsBroadPhaseContextSap@physx@@UAEPAUPxcBroadPhasePair@2@XZ 100e2240 f i LowLevelCHECKED:PxsBroadPhaseSap.obj
 0001:000e1250       ?getDeletedPairs@PxsBroadPhaseContextSap@physx@@UAEPAUPxcBroadPhasePair@2@XZ 100e2250 f i LowLevelCHECKED:PxsBroadPhaseSap.obj
 0001:000e1260       ?getName@BroadPhaseBatchUpdateWorkTask@physx@@UBEPBDXZ 100e2260 f i LowLevelCHECKED:PxsBroadPhaseSap.obj
 0001:000e1270       ?getName@SapPostUpdateWorkTask@physx@@UBEPBDXZ 100e2270 f i LowLevelCHECKED:PxsBroadPhaseSap.obj
 0001:000e1280       ?getName@SapUpdateWorkTask@physx@@UBEPBDXZ 100e2280 f i LowLevelCHECKED:PxsBroadPhaseSap.obj
 0001:000e1290       ?getNbRegions@PxBroadPhaseBase@physx@@UBEIXZ 100e2290 f i LowLevelCHECKED:PxsBroadPhaseSap.obj
 0001:000e12a0       ?getNumCreatedPairs@PxsBroadPhaseContextSap@physx@@UBEIXZ 100e22a0 f i LowLevelCHECKED:PxsBroadPhaseSap.obj
 0001:000e12b0       ?getNumDeletedPairs@PxsBroadPhaseContextSap@physx@@UBEIXZ 100e22b0 f i LowLevelCHECKED:PxsBroadPhaseSap.obj
 0001:000e12c0       ?getNumOutOfBoundsObjects@PxBroadPhaseBase@physx@@UBEIXZ 100e22c0 f i LowLevelCHECKED:PxsBroadPhaseSap.obj
 0001:000e12d0       ?getOutOfBoundsObjects@PxBroadPhaseBase@physx@@UBEPBIXZ 100e22d0 f i LowLevelCHECKED:PxsBroadPhaseSap.obj
 0001:000e12e0       ?getRegions@PxBroadPhaseBase@physx@@UBEIPAUPxBroadPhaseRegionInfo@2@II@Z 100e22e0 f i LowLevelCHECKED:PxsBroadPhaseSap.obj
 0001:000e12f0       ?getType@PxsBroadPhaseContextSap@physx@@UBE?AW4Enum@PxBroadPhaseType@2@XZ 100e22f0 f i LowLevelCHECKED:PxsBroadPhaseSap.obj
 0001:000e1300       ?removeRegion@PxBroadPhaseBase@physx@@UAE_NI@Z 100e2300 f i LowLevelCHECKED:PxsBroadPhaseSap.obj
 0001:000e1370       ??0PxsBroadPhaseMBP@physx@@QAE@AAVPxcScratchAllocator@1@AAVEventProfiler@Cm@1@ABVPxSceneDesc@1@PAVPxsAABBManager@1@@Z 100e2370 f   LowLevelCHECKED:PxsBroadPhaseMBP.obj
 0001:000e14e0       ??1PxsBroadPhaseMBP@physx@@UAE@XZ 100e24e0 f   LowLevelCHECKED:PxsBroadPhaseMBP.obj
 0001:000e1580       ?getCaps@PxsBroadPhaseMBP@physx@@UBE_NAAUPxBroadPhaseCaps@2@@Z 100e2580 f   LowLevelCHECKED:PxsBroadPhaseMBP.obj
 0001:000e15a0       ?getNbRegions@PxsBroadPhaseMBP@physx@@UBEIXZ 100e25a0 f   LowLevelCHECKED:PxsBroadPhaseMBP.obj
 0001:000e15b0       ?getRegions@PxsBroadPhaseMBP@physx@@UBEIPAUPxBroadPhaseRegionInfo@2@II@Z 100e25b0 f   LowLevelCHECKED:PxsBroadPhaseMBP.obj
 0001:000e16e0       ?addRegion@PxsBroadPhaseMBP@physx@@UAEIABUPxBroadPhaseRegion@2@_N@Z 100e26e0 f   LowLevelCHECKED:PxsBroadPhaseMBP.obj
 0001:000e16f0       ?removeRegion@PxsBroadPhaseMBP@physx@@UAE_NI@Z 100e26f0 f   LowLevelCHECKED:PxsBroadPhaseMBP.obj
 0001:000e1700       ?getNumOutOfBoundsObjects@PxsBroadPhaseMBP@physx@@UBEIXZ 100e2700 f   LowLevelCHECKED:PxsBroadPhaseMBP.obj
 0001:000e1710       ?getOutOfBoundsObjects@PxsBroadPhaseMBP@physx@@UBEPBIXZ 100e2710 f   LowLevelCHECKED:PxsBroadPhaseMBP.obj
 0001:000e1720       ?destroy@PxsBroadPhaseMBP@physx@@UAEXXZ 100e2720 f   LowLevelCHECKED:PxsBroadPhaseMBP.obj
 0001:000e1730       ?update@PxsBroadPhaseMBP@physx@@UAEXIIABVPxcBroadPhaseUpdateData@2@PAVPxBaseTask@2@@Z 100e2730 f   LowLevelCHECKED:PxsBroadPhaseMBP.obj
 0001:000e17b0       ?getNumCreatedPairs@PxsBroadPhaseMBP@physx@@UBEIXZ 100e27b0 f   LowLevelCHECKED:PxsBroadPhaseMBP.obj
 0001:000e17c0       ?getCreatedPairs@PxsBroadPhaseMBP@physx@@UAEPAUPxcBroadPhasePair@2@XZ 100e27c0 f   LowLevelCHECKED:PxsBroadPhaseMBP.obj
 0001:000e17d0       ?getNumDeletedPairs@PxsBroadPhaseMBP@physx@@UBEIXZ 100e27d0 f   LowLevelCHECKED:PxsBroadPhaseMBP.obj
 0001:000e17e0       ?getDeletedPairs@PxsBroadPhaseMBP@physx@@UAEPAUPxcBroadPhasePair@2@XZ 100e27e0 f   LowLevelCHECKED:PxsBroadPhaseMBP.obj
 0001:000e17f0       ?freeBuffers@PxsBroadPhaseMBP@physx@@UAEXXZ 100e27f0 f   LowLevelCHECKED:PxsBroadPhaseMBP.obj
 0001:000e1850       ?shiftOrigin@PxsBroadPhaseMBP@physx@@UAEXABVPxVec3@2@@Z 100e2850 f   LowLevelCHECKED:PxsBroadPhaseMBP.obj
 0001:000e1860       ?isValid@PxsBroadPhaseMBP@physx@@UBE_NABVPxcBroadPhaseUpdateData@2@@Z 100e2860 f   LowLevelCHECKED:PxsBroadPhaseMBP.obj
 0001:000e1920       ?setUpdateData@PxsBroadPhaseMBP@physx@@QAEXABVPxcBroadPhaseUpdateData@2@@Z 100e2920 f   LowLevelCHECKED:PxsBroadPhaseMBP.obj
 0001:000e1b40       ?updatePPU@PxsBroadPhaseMBP@physx@@QAEXPAVPxBaseTask@2@@Z 100e2b40 f   LowLevelCHECKED:PxsBroadPhaseMBP.obj
 0001:000e1b50       ?postUpdatePPU@PxsBroadPhaseMBP@physx@@QAEXPAVPxBaseTask@2@@Z 100e2b50 f   LowLevelCHECKED:PxsBroadPhaseMBP.obj
 0001:000e1bb0       ??0BitArray@@QAE@XZ        100e2bb0 f   LowLevelCHECKED:PxsBroadPhaseMBP.obj
 0001:000e1bc0       ??0BitArray@@QAE@I@Z       100e2bc0 f   LowLevelCHECKED:PxsBroadPhaseMBP.obj
 0001:000e1c20       ??1BitArray@@QAE@XZ        100e2c20 f   LowLevelCHECKED:PxsBroadPhaseMBP.obj
 0001:000e1c50       ?init@BitArray@@QAE_NI@Z   100e2c50 f   LowLevelCHECKED:PxsBroadPhaseMBP.obj
 0001:000e1cc0       ?empty@BitArray@@QAEXXZ    100e2cc0 f   LowLevelCHECKED:PxsBroadPhaseMBP.obj
 0001:000e1cf0       ?resize@BitArray@@QAEXI@Z  100e2cf0 f   LowLevelCHECKED:PxsBroadPhaseMBP.obj
 0001:000e1d80       ??0MBP_PairManager@@QAE@XZ 100e2d80 f   LowLevelCHECKED:PxsBroadPhaseMBP.obj
 0001:000e1dc0       ??1MBP_PairManager@@QAE@XZ 100e2dc0 f   LowLevelCHECKED:PxsBroadPhaseMBP.obj
 0001:000e1dd0       ?purge@MBP_PairManager@@QAEXXZ 100e2dd0 f   LowLevelCHECKED:PxsBroadPhaseMBP.obj
 0001:000e1e40       ?shrinkMemory@MBP_PairManager@@QAEXXZ 100e2e40 f   LowLevelCHECKED:PxsBroadPhaseMBP.obj
 0001:000e1e90       ?addPair@MBP_PairManager@@QAEPAUMBP_Pair@@IIPIBIPBUMBP_Object@@@Z 100e2e90 f   LowLevelCHECKED:PxsBroadPhaseMBP.obj
 0001:000e2020       ?removePair@MBP_PairManager@@QAE_NII@Z 100e3020 f   LowLevelCHECKED:PxsBroadPhaseMBP.obj
 0001:000e2120       ?removeMarkedPairs@MBP_PairManager@@QAE_NPBUMBP_Object@@PAVPxsBroadPhaseMBP@physx@@ABVBitArray@@2@Z 100e3120 f   LowLevelCHECKED:PxsBroadPhaseMBP.obj
 0001:000e23d0       ?findPair@MBP_PairManager@@QBEPBUMBP_Pair@@II@Z 100e33d0 f   LowLevelCHECKED:PxsBroadPhaseMBP.obj
 0001:000e2490       ?removePair@MBP_PairManager@@QAEXIIII@Z 100e3490 f   LowLevelCHECKED:PxsBroadPhaseMBP.obj
 0001:000e25b0       ?reallocPairs@MBP_PairManager@@QAEXXZ 100e35b0 f   LowLevelCHECKED:PxsBroadPhaseMBP.obj
 0001:000e2700       ?reserveMemory@MBP_PairManager@@QAEXI@Z 100e3700 f   LowLevelCHECKED:PxsBroadPhaseMBP.obj
 0001:000e2750       ??0MBPOS_TmpBuffers@@QAE@XZ 100e3750 f   LowLevelCHECKED:PxsBroadPhaseMBP.obj
 0001:000e2790       ??1MBPOS_TmpBuffers@@QAE@XZ 100e3790 f   LowLevelCHECKED:PxsBroadPhaseMBP.obj
 0001:000e2820       ?allocateSleeping@MBPOS_TmpBuffers@@QAEXII@Z 100e3820 f   LowLevelCHECKED:PxsBroadPhaseMBP.obj
 0001:000e2910       ?allocateUpdated@MBPOS_TmpBuffers@@QAEXII@Z 100e3910 f   LowLevelCHECKED:PxsBroadPhaseMBP.obj
 0001:000e29b0       ??0BoxPruner@@QAE@XZ       100e39b0 f   LowLevelCHECKED:PxsBroadPhaseMBP.obj
 0001:000e2a80       ??1BoxPruner@@QAE@XZ       100e3a80 f   LowLevelCHECKED:PxsBroadPhaseMBP.obj
 0001:000e2b50       ?updateObject@BoxPruner@@QAEXABUSIMD_AABB@@G@Z 100e3b50 f   LowLevelCHECKED:PxsBroadPhaseMBP.obj
 0001:000e2c80       ?addObject@BoxPruner@@QAEGABUSIMD_AABB@@I_N@Z 100e3c80 f   LowLevelCHECKED:PxsBroadPhaseMBP.obj
 0001:000e2f70       ?removeObject@BoxPruner@@QAEXG@Z 100e3f70 f   LowLevelCHECKED:PxsBroadPhaseMBP.obj
 0001:000e30a0       ?retrieveBounds@BoxPruner@@QBEIAAUSIMD_AABB@@G@Z 100e40a0 f   LowLevelCHECKED:PxsBroadPhaseMBP.obj
 0001:000e30f0       ?setBounds@BoxPruner@@QAEXGABUSIMD_AABB@@@Z 100e40f0 f   LowLevelCHECKED:PxsBroadPhaseMBP.obj
 0001:000e3130       ?prepareOverlapsMT@BoxPruner@@QAEXXZ 100e4130 f   LowLevelCHECKED:PxsBroadPhaseMBP.obj
 0001:000e31c0       ?findOverlapsMT@BoxPruner@@QAEXAAVMBP_PairManager@@PIBIPIBUMBP_Object@@@Z 100e41c0 f   LowLevelCHECKED:PxsBroadPhaseMBP.obj
 0001:000e3210       ?optimizeMemory@BoxPruner@@QAEXXZ 100e4210 f   LowLevelCHECKED:PxsBroadPhaseMBP.obj
 0001:000e3220       ?resizeObjects@BoxPruner@@QAEXXZ 100e4220 f   LowLevelCHECKED:PxsBroadPhaseMBP.obj
 0001:000e3300       ?staticSort@BoxPruner@@QAEXXZ 100e4300 f   LowLevelCHECKED:PxsBroadPhaseMBP.obj
 0001:000e3680       ?preparePruning@BoxPruner@@QAEXAAUMBPOS_TmpBuffers@@@Z 100e4680 f   LowLevelCHECKED:PxsBroadPhaseMBP.obj
 0001:000e38f0       ?prepareBIPPruning@BoxPruner@@QAEXABUMBPOS_TmpBuffers@@@Z 100e48f0 f   LowLevelCHECKED:PxsBroadPhaseMBP.obj
 0001:000e3950       ??0MBP@@QAE@PAVPxsAABBManager@physx@@@Z 100e4950 f   LowLevelCHECKED:PxsBroadPhaseMBP.obj
 0001:000e3a30       ??1MBP@@UAE@XZ             100e4a30 f   LowLevelCHECKED:PxsBroadPhaseMBP.obj
 0001:000e3b10       ?preallocate@MBP@@QAE_NII@Z 100e4b10 f   LowLevelCHECKED:PxsBroadPhaseMBP.obj
 0001:000e3ba0       ?reset@MBP@@QAEXXZ         100e4ba0 f   LowLevelCHECKED:PxsBroadPhaseMBP.obj
 0001:000e3d20       ?freeBuffers@MBP@@QAEXXZ   100e4d20 f   LowLevelCHECKED:PxsBroadPhaseMBP.obj
 0001:000e3d60       ?addBoxPruner@MBP@@QAEIABUPxBroadPhaseRegion@physx@@_N@Z 100e4d60 f   LowLevelCHECKED:PxsBroadPhaseMBP.obj
 0001:000e3f00       ?removeBoxPruner@MBP@@QAE_NI@Z 100e4f00 f   LowLevelCHECKED:PxsBroadPhaseMBP.obj
 0001:000e4090       ?getBoxPruner@MBP@@QBEPBVBoxPruner@@I@Z 100e5090 f   LowLevelCHECKED:PxsBroadPhaseMBP.obj
 0001:000e40b0       ?addObject@MBP@@QAEIABUSIMD_AABB@@I_N@Z 100e50b0 f   LowLevelCHECKED:PxsBroadPhaseMBP.obj
 0001:000e4360       ?removeObject@MBP@@QAE_NI@Z 100e5360 f   LowLevelCHECKED:PxsBroadPhaseMBP.obj
 0001:000e4480       ?updateObject@MBP@@QAE_NIABUSIMD_AABB@@@Z 100e5480 f   LowLevelCHECKED:PxsBroadPhaseMBP.obj
 0001:000e49b0       ?updateObject@MBP@@QAE_NIPAVBoxPruner@@@Z 100e59b0 f   LowLevelCHECKED:PxsBroadPhaseMBP.obj
 0001:000e4ab0       ?prepareOverlapsMT@MBP@@QAEXXZ 100e5ab0 f   LowLevelCHECKED:PxsBroadPhaseMBP.obj
 0001:000e4b70       ?findOverlapsMT@MBP@@QAEXPIBI@Z 100e5b70 f   LowLevelCHECKED:PxsBroadPhaseMBP.obj
 0001:000e4c00       ?finalize@MBP@@QAEIPAVPxsBroadPhaseMBP@physx@@@Z 100e5c00 f   LowLevelCHECKED:PxsBroadPhaseMBP.obj
 0001:000e4c40       ?shiftOrigin@MBP@@QAEXABVPxVec3@physx@@@Z 100e5c40 f   LowLevelCHECKED:PxsBroadPhaseMBP.obj
 0001:000e4f10       ?purgeHandles@MBP@@QAEXPIAUMBP_Object@@I@Z 100e5f10 f   LowLevelCHECKED:PxsBroadPhaseMBP.obj
 0001:000e4f50       ?storeHandles@MBP@@QAEXPIAUMBP_Object@@IPIBUBoxPrunerHandle@@@Z 100e5f50 f   LowLevelCHECKED:PxsBroadPhaseMBP.obj
 0001:000e4ff0       ?addToOutOfBoundsArray@MBP@@QAEXI@Z 100e5ff0 f   LowLevelCHECKED:PxsBroadPhaseMBP.obj
 0001:000e5030       ?populateNewRegion@MBP@@QAEXABUSIMD_AABB@@@Z 100e6030 f   LowLevelCHECKED:PxsBroadPhaseMBP.obj
 0001:000e6220       ??$?_UV?$ReflectionAllocator@USIMD_AABB@@@shdfnd@physx@@@UserAllocated@shdfnd@physx@@SAPAXIV?$ReflectionAllocator@USIMD_AABB@@@12@PBDH@Z 100e7220 f i LowLevelCHECKED:PxsBroadPhaseMBP.obj
 0001:000e6290       ??0BoxPruning_Input@@QAE@XZ 100e7290 f i LowLevelCHECKED:PxsBroadPhaseMBP.obj
 0001:000e6320       ??0MBPEntry@@QAE@XZ        100e7320 f i LowLevelCHECKED:PxsBroadPhaseMBP.obj
 0001:000e6330       ??_GMBP@@UAEPAXI@Z         100e7330 f i LowLevelCHECKED:PxsBroadPhaseMBP.obj
 0001:000e6330       ??_EMBP@@UAEPAXI@Z         100e7330 f i LowLevelCHECKED:PxsBroadPhaseMBP.obj
 0001:000e6380       ??_EPxsBroadPhaseMBP@physx@@UAEPAXI@Z 100e7380 f i LowLevelCHECKED:PxsBroadPhaseMBP.obj
 0001:000e6380       ??_GPxsBroadPhaseMBP@physx@@UAEPAXI@Z 100e7380 f i LowLevelCHECKED:PxsBroadPhaseMBP.obj
 0001:000e6b90       ?getType@PxsBroadPhaseMBP@physx@@UBE?AW4Enum@PxBroadPhaseType@2@XZ 100e7b90 f i LowLevelCHECKED:PxsBroadPhaseMBP.obj
 0001:000e6ba0       ?growAndPushBack@?$Array@UPxcBroadPhasePair@physx@@VNamedAllocator@shdfnd@2@@shdfnd@physx@@IAEAAUPxcBroadPhasePair@3@ABU43@@Z 100e7ba0 f i LowLevelCHECKED:PxsBroadPhaseMBP.obj
 0001:000e6ca0       ?recreate@?$Array@UPxcBroadPhasePair@physx@@VNamedAllocator@shdfnd@2@@shdfnd@physx@@IAEXI@Z 100e7ca0 f i LowLevelCHECKED:PxsBroadPhaseMBP.obj
 0001:000e6d60       ?resize@?$Array@UPxcBroadPhasePair@physx@@VNamedAllocator@shdfnd@2@@shdfnd@physx@@QAEXIABUPxcBroadPhasePair@3@@Z 100e7d60 f i LowLevelCHECKED:PxsBroadPhaseMBP.obj
 0001:000e6f70       ??0PxcNpThreadContext@physx@@QAE@MMMABVRenderOutput@Cm@1@AAVPxcNpMemBlockPool@1@_N@Z 100e7f70 f   LowLevelCHECKED:PxcNpThreadContext.obj
 0001:000e7090       ??1PxcNpThreadContext@physx@@QAE@XZ 100e8090 f   LowLevelCHECKED:PxcNpThreadContext.obj
 0001:000e70c0       ?clearStats@PxcNpThreadContext@physx@@QAEXXZ 100e80c0 f   LowLevelCHECKED:PxcNpThreadContext.obj
 0001:000e7150       ??0ContactPoint@Gu@physx@@QAE@XZ 100e8150 f i LowLevelCHECKED:PxcNpThreadContext.obj
 0001:000e7160       ??0PxcFrictionPatch@physx@@QAE@XZ 100e8160 f i LowLevelCHECKED:PxcNpThreadContext.obj
 0001:000e7170       ??0PxsContactManager@physx@@QAE@PAVPxsContext@1@I@Z 100e8170 f   LowLevelCHECKED:PxsContactManager.obj
 0001:000e71d0       ??1PxsContactManager@physx@@QAE@XZ 100e81d0 f   LowLevelCHECKED:PxsContactManager.obj
 0001:000e71e0       ?init@PxsContactManager@physx@@QAEXABUPxvManagerDescRigidRigid@2@PBVPxsMaterialManager@2@@Z 100e81e0 f   LowLevelCHECKED:PxsContactManager.obj
 0001:000e7400       ?setCCD@PxsContactManager@physx@@QAEX_N@Z 100e8400 f   LowLevelCHECKED:PxsContactManager.obj
 0001:000e7420       ?resetCachedState@PxsContactManager@physx@@QAEXXZ 100e8420 f   LowLevelCHECKED:PxsContactManager.obj
 0001:000e7580       ??0PxsSimObjectFactory@physx@@QAE@XZ 100e8580 f   LowLevelCHECKED:PxsSimObjectFactory.obj
 0001:000e75d0       ??1PxsSimObjectFactory@physx@@QAE@XZ 100e85d0 f   LowLevelCHECKED:PxsSimObjectFactory.obj
 0001:000e75f0       ?createArticulation@PxsSimObjectFactory@physx@@QAEPAVPxsArticulation@2@XZ 100e85f0 f   LowLevelCHECKED:PxsSimObjectFactory.obj
 0001:000e7640       ?destroyArticulation@PxsSimObjectFactory@physx@@QAEXAAVPxsArticulation@2@@Z 100e8640 f   LowLevelCHECKED:PxsSimObjectFactory.obj
 0001:000e76e0       ??$copy@V?$InlineAllocator@$0BAA@V?$AlignedAllocator@$0EA@VAllocator@shdfnd@physx@@@shdfnd@physx@@@shdfnd@physx@@@?$Array@PAXV?$AlignedAllocator@$0EA@VAllocator@shdfnd@physx@@@shdfnd@physx@@@shdfnd@physx@@IAEXABV?$Array@PAXV?$InlineAllocator@$0BAA@V?$AlignedAllocator@$0EA@VAllocator@shdfnd@physx@@@shdfnd@physx@@@shdfnd@physx@@@12@@Z 100e86e0 f i LowLevelCHECKED:PxsSimObjectFactory.obj
 0001:000e7760       ??$sort@PAXU?$Less@PAX@shdfnd@physx@@V?$AlignedAllocator@$0EA@VAllocator@shdfnd@physx@@@23@@shdfnd@physx@@YAXPAPAXIABU?$Less@PAX@01@ABV?$AlignedAllocator@$0EA@VAllocator@shdfnd@physx@@@01@I@Z 100e8760 f i LowLevelCHECKED:PxsSimObjectFactory.obj
 0001:000e7a40       ??0PxsSimFactoryPools@physx@@QAE@XZ 100e8a40 f i LowLevelCHECKED:PxsSimObjectFactory.obj
 0001:000e7ad0       ??1?$PoolBase@VPxsArticulation@physx@@V?$AlignedAllocator@$0EA@VAllocator@shdfnd@physx@@@shdfnd@2@@shdfnd@physx@@QAE@XZ 100e8ad0 f i LowLevelCHECKED:PxsSimObjectFactory.obj
 0001:000e7bb0       ?allocate@?$Array@PAXV?$AlignedAllocator@$0EA@VAllocator@shdfnd@physx@@@shdfnd@physx@@@shdfnd@physx@@IAEPAPAXI@Z 100e8bb0 f i LowLevelCHECKED:PxsSimObjectFactory.obj
 0001:000e7c40       ?allocate@?$Array@PAXV?$InlineAllocator@$0BAA@V?$AlignedAllocator@$0EA@VAllocator@shdfnd@physx@@@shdfnd@physx@@@shdfnd@physx@@@shdfnd@physx@@IAEPAPAXI@Z 100e8c40 f i LowLevelCHECKED:PxsSimObjectFactory.obj
 0001:000e7cf0       ?allocateSlab@?$PoolBase@VPxsArticulation@physx@@V?$AlignedAllocator@$0EA@VAllocator@shdfnd@physx@@@shdfnd@2@@shdfnd@physx@@IAEXXZ 100e8cf0 f i LowLevelCHECKED:PxsSimObjectFactory.obj
 0001:000e7dd0       ?disposeElements@?$PoolBase@VPxsArticulation@physx@@V?$AlignedAllocator@$0EA@VAllocator@shdfnd@physx@@@shdfnd@2@@shdfnd@physx@@IAEXXZ 100e8dd0 f i LowLevelCHECKED:PxsSimObjectFactory.obj
 0001:000e7f60       ?growAndPushBack@?$Array@PAXV?$AlignedAllocator@$0EA@VAllocator@shdfnd@physx@@@shdfnd@physx@@@shdfnd@physx@@IAEAAPAXABQAX@Z 100e8f60 f i LowLevelCHECKED:PxsSimObjectFactory.obj
 0001:000e8010       ?growAndPushBack@?$Array@PAXV?$InlineAllocator@$0BAA@V?$AlignedAllocator@$0EA@VAllocator@shdfnd@physx@@@shdfnd@physx@@@shdfnd@physx@@@shdfnd@physx@@IAEAAPAXABQAX@Z 100e9010 f i LowLevelCHECKED:PxsSimObjectFactory.obj
 0001:000e8100       ?releaseEmptySlabs@?$PoolBase@VPxsArticulation@physx@@V?$AlignedAllocator@$0EA@VAllocator@shdfnd@physx@@@shdfnd@2@@shdfnd@physx@@IAEXXZ 100e9100 f i LowLevelCHECKED:PxsSimObjectFactory.obj
