 PhysX3Common_x86

 Timestamp is 58ed760b (Tue Apr 11 18:34:19 2017)

 Preferred load address is 10000000

 Start         Length     Name                   Class
 0001:00000000 000053e0H .text$di                CODE
 0001:000053e0 0012dd40H .text$mn                CODE
 0001:00133120 0000000bH .text$yd                CODE
 0002:00000000 00000204H .idata$5                DATA
 0002:00000204 00000004H .00cfg                  DATA
 0002:00000208 00000004H .CRT$XCA                DATA
 0002:0000020c 000009ccH .CRT$XCU                DATA
 0002:00000bd8 00000004H .CRT$XCZ                DATA
 0002:00000bdc 00000004H .CRT$XIA                DATA
 0002:00000be0 00000004H .CRT$XIZ                DATA
 0002:00000be4 00000004H .CRT$XPA                DATA
 0002:00000be8 00000004H .CRT$XPZ                DATA
 0002:00000bec 00000004H .CRT$XTA                DATA
 0002:00000bf0 00000010H .CRT$XTZ                DATA
 0002:00000c00 000042d4H .rdata                  DATA
 0002:00004ed4 0000012cH .rdata$r                DATA
 0002:00005000 00000008H .rdata$sxdata           DATA
 0002:00005008 0000031cH .rdata$zzzdbg           DATA
 0002:00005324 00000004H .rtc$IAA                DATA
 0002:00005328 00000004H .rtc$IZZ                DATA
 0002:0000532c 00000004H .rtc$TAA                DATA
 0002:00005330 00000008H .rtc$TZZ                DATA
 0002:00005338 00000128H .xdata$x                DATA
 0002:00005460 00012b9cH .edata                  DATA
 0002:00017ffc 000000a0H .idata$2                DATA
 0002:0001809c 00000014H .idata$3                DATA
 0002:000180b0 00000204H .idata$4                DATA
 0002:000182b4 00000822H .idata$6                DATA
 0003:00000000 00000bbcH .data                   DATA
 0003:00000bbc 00000344H .data$r                 DATA
 0003:00000f00 00002708H .bss                    DATA
 0004:00000000 0000004cH .gfids$y                DATA
 0005:00000000 000000a0H .rsrc$01                DATA
 0005:000000a0 000004b8H .rsrc$02                DATA

  Address         Publics by Value              Rva+Base       Lib:Object

 0000:00000000       ___guard_fids_count        00000000     <absolute>
 0000:00000000       ___guard_iat_count         00000000     <absolute>
 0000:00000000       ___guard_longjmp_table     00000000     <absolute>
 0000:00000000       ___dynamic_value_reloc_table 00000000     <absolute>
 0000:00000000       ___guard_iat_table         00000000     <absolute>
 0000:00000000       ___guard_longjmp_count     00000000     <absolute>
 0000:00000000       ___guard_fids_table        00000000     <absolute>
 0000:00000002       ___safe_se_handler_count   00000002     <absolute>
 0000:00000100       ___guard_flags             00000100     <absolute>
 0000:00000000       ___ImageBase               10000000     <linker-defined>
 0001:000053e0       ?atomicExchange@shdfnd@physx@@YAHPCHH@Z 100063e0 f   PsWindowsAtomic.obj
 0001:000053f0       ?atomicCompareExchange@shdfnd@physx@@YAHPCHHH@Z 100063f0 f   PsWindowsAtomic.obj
 0001:00005410       ?atomicCompareExchangePointer@shdfnd@physx@@YAPAXPAPCXPAX1@Z 10006410 f   PsWindowsAtomic.obj
 0001:00005430       ?atomicIncrement@shdfnd@physx@@YAHPCH@Z 10006430 f   PsWindowsAtomic.obj
 0001:00005450       ?atomicDecrement@shdfnd@physx@@YAHPCH@Z 10006450 f   PsWindowsAtomic.obj
 0001:00005460       ?atomicAdd@shdfnd@physx@@YAHPCHH@Z 10006460 f   PsWindowsAtomic.obj
 0001:00005490       ?atomicMax@shdfnd@physx@@YAHPCHH@Z 10006490 f   PsWindowsAtomic.obj
 0001:000054c0       ?getCpuId@Cpu@shdfnd@physx@@SAEXZ 100064c0 f   PsWindowsCpu.obj
 0001:00005500       ??0FPUGuard@shdfnd@physx@@QAE@XZ 10006500 f   PsWindowsFPU.obj
 0001:00005540       ??1FPUGuard@shdfnd@physx@@QAE@XZ 10006540 f   PsWindowsFPU.obj
 0001:00005580       ?enableFPExceptions@shdfnd@physx@@YAXXZ 10006580 f   PsWindowsFPU.obj
 0001:000055a0       ?disableFPExceptions@shdfnd@physx@@YAXXZ 100065a0 f   PsWindowsFPU.obj
 0001:000055c0       ??4FPUGuard@shdfnd@physx@@QAEAAV012@ABV012@@Z 100065c0 f i PsWindowsFPU.obj
 0001:000055e0       ??0MemoryMappedFile@shdfnd@physx@@QAE@PBDI@Z 100065e0 f   PsWindowsMemoryMappedFile.obj
 0001:00005660       ??1MemoryMappedFile@shdfnd@physx@@QAE@XZ 10006660 f   PsWindowsMemoryMappedFile.obj
 0001:000056a0       ?getBaseAddress@MemoryMappedFile@shdfnd@physx@@QAEPAXXZ 100066a0 f   PsWindowsMemoryMappedFile.obj
 0001:000056b0       ??0Allocator@shdfnd@physx@@QAE@PBD@Z 100066b0 f i PsWindowsMemoryMappedFile.obj
 0001:000056c0       ??0PxFoundation@physx@@QAE@ABV01@@Z 100066c0 f i PsWindowsMemoryMappedFile.obj
 0001:000056d0       ??0PxFoundation@physx@@QAE@XZ 100066d0 f i PsWindowsMemoryMappedFile.obj
 0001:000056e0       ??1PxFoundation@physx@@MAE@XZ 100066e0 f i PsWindowsMemoryMappedFile.obj
 0001:000056f0       ??4Allocator@shdfnd@physx@@QAEAAV012@$$QAV012@@Z 100066f0 f i PsWindowsMemoryMappedFile.obj
 0001:00005700       ??4Allocator@shdfnd@physx@@QAEAAV012@ABV012@@Z 10006700 f i PsWindowsMemoryMappedFile.obj
 0001:00005710       ??4ErrorHandler@shdfnd@physx@@QAEAAV012@ABV012@@Z 10006710 f i PsWindowsMemoryMappedFile.obj
 0001:00005730       ??4MutexImpl@shdfnd@physx@@QAEAAV012@ABV012@@Z 10006730 f i PsWindowsMemoryMappedFile.obj
 0001:00005740       ??4PAUtils@shdfnd@physx@@QAEAAV012@ABV012@@Z 10006740 f i PsWindowsMemoryMappedFile.obj
 0001:00005750       ??4PxFoundation@physx@@QAEAAV01@ABV01@@Z 10006750 f i PsWindowsMemoryMappedFile.obj
 0001:00005760       ??_EPxFoundation@physx@@MAEPAXI@Z 10006760 f i PsWindowsMemoryMappedFile.obj
 0001:000057d0       ??_FAllocator@shdfnd@physx@@QAEXXZ 100067d0 f i PsWindowsMemoryMappedFile.obj
 0001:000057e0       ??_GPxFoundation@physx@@MAEPAXI@Z 100067e0 f i PsWindowsMemoryMappedFile.obj
 0001:00005810       ??_I@YGXPAXIIP6EX0@Z@Z     10006810 f i PsWindowsMemoryMappedFile.obj
 0001:00005850       ?getAllocator@Foundation@shdfnd@physx@@UBEAAVPxBroadcastingAllocator@3@XZ 10006850 f i PsWindowsMemoryMappedFile.obj
 0001:00005860       ?getCallbackCount@ErrorHandler@shdfnd@physx@@QBEIXZ 10006860 f i PsWindowsMemoryMappedFile.obj
 0001:00005870       ?getCheckedAllocator@Foundation@shdfnd@physx@@QAEAAVPxAllocatorCallback@3@XZ 10006870 f i PsWindowsMemoryMappedFile.obj
 0001:00005880       ?getErrorCallback@ErrorHandler@shdfnd@physx@@QBEPAVPxErrorCallback@3@H@Z 10006880 f i PsWindowsMemoryMappedFile.obj
 0001:00005890       ?getErrorHandler@Foundation@shdfnd@physx@@QAEAAVErrorHandler@23@XZ 10006890 f i PsWindowsMemoryMappedFile.obj
 0001:000058a0       ?getErrorMutex@Foundation@shdfnd@physx@@QAEAAV?$MutexT@V?$ReflectionAllocator@VMutexImpl@shdfnd@physx@@@shdfnd@physx@@@23@XZ 100068a0 f i PsWindowsMemoryMappedFile.obj
 0001:000058b0       ?getMaxCallbackNum@ErrorHandler@shdfnd@physx@@QBEIXZ 100068b0 f i PsWindowsMemoryMappedFile.obj
 0001:000058c0       ?getNamedAllocMap@Foundation@shdfnd@physx@@QAEAAV?$HashMap@PBVNamedAllocator@shdfnd@physx@@PBDU?$Hash@PBVNamedAllocator@shdfnd@physx@@@23@VNonTrackingAllocator@23@@23@XZ 100068c0 f i PsWindowsMemoryMappedFile.obj
 0001:000058d0       ?getNamedAllocMutex@Foundation@shdfnd@physx@@QAEAAV?$MutexT@V?$ReflectionAllocator@VMutexImpl@shdfnd@physx@@@shdfnd@physx@@@23@XZ 100068d0 f i PsWindowsMemoryMappedFile.obj
 0001:000058e0       ?getPAUtils@Foundation@shdfnd@physx@@QAEAAVPAUtils@23@XZ 100068e0 f i PsWindowsMemoryMappedFile.obj
 0001:000058f0       ?getReportAllocationNames@Foundation@shdfnd@physx@@UBE_NXZ 100068f0 f i PsWindowsMemoryMappedFile.obj
 0001:00005900       ?getTempAllocFreeTable@Foundation@shdfnd@physx@@QAEAAV?$Array@PATTempAllocatorChunk@shdfnd@physx@@VAllocator@23@@23@XZ 10006900 f i PsWindowsMemoryMappedFile.obj
 0001:00005910       ?getTempAllocMutex@Foundation@shdfnd@physx@@QAEAAV?$MutexT@V?$ReflectionAllocator@VMutexImpl@shdfnd@physx@@@shdfnd@physx@@@23@XZ 10006910 f i PsWindowsMemoryMappedFile.obj
 0001:00005920       ?setReportAllocationNames@Foundation@shdfnd@physx@@UAEX_N@Z 10006920 f i PsWindowsMemoryMappedFile.obj
 0001:00005930       ??0PsModuleUpdateLoader@shdfnd@physx@@QAE@PBD@Z 10006930 f   PsWindowsModuleUpdateLoader.obj
 0001:00005970       ??1PsModuleUpdateLoader@shdfnd@physx@@QAE@XZ 10006970 f   PsWindowsModuleUpdateLoader.obj
 0001:00005990       ?LoadModule@PsModuleUpdateLoader@shdfnd@physx@@QAEPAUHINSTANCE__@@PBD0@Z 10006990 f   PsWindowsModuleUpdateLoader.obj
 0001:000059c0       ??4PsModuleUpdateLoader@shdfnd@physx@@QAEAAV012@ABV012@@Z 100069c0 f i PsWindowsModuleUpdateLoader.obj
 0001:000059e0       ??0MutexImpl@shdfnd@physx@@QAE@XZ 100069e0 f   PsWindowsMutex.obj
 0001:00005a00       ??1MutexImpl@shdfnd@physx@@QAE@XZ 10006a00 f   PsWindowsMutex.obj
 0001:00005a10       ?lock@MutexImpl@shdfnd@physx@@QAEXXZ 10006a10 f   PsWindowsMutex.obj
 0001:00005a20       ?trylock@MutexImpl@shdfnd@physx@@QAE_NXZ 10006a20 f   PsWindowsMutex.obj
 0001:00005a30       ?unlock@MutexImpl@shdfnd@physx@@QAEXXZ 10006a30 f   PsWindowsMutex.obj
 0001:00005a40       ?getSize@MutexImpl@shdfnd@physx@@SAABIXZ 10006a40 f   PsWindowsMutex.obj
 0001:00005a50       ??0ReadWriteLock@shdfnd@physx@@QAE@XZ 10006a50 f   PsWindowsMutex.obj
 0001:00005a90       ??1ReadWriteLock@shdfnd@physx@@QAE@XZ 10006a90 f   PsWindowsMutex.obj
 0001:00005ad0       ?lockReader@ReadWriteLock@shdfnd@physx@@QAEXXZ 10006ad0 f   PsWindowsMutex.obj
 0001:00005b00       ?lockWriter@ReadWriteLock@shdfnd@physx@@QAEXXZ 10006b00 f   PsWindowsMutex.obj
 0001:00005b20       ?unlockReader@ReadWriteLock@shdfnd@physx@@QAEXXZ 10006b20 f   PsWindowsMutex.obj
 0001:00005b30       ?unlockWriter@ReadWriteLock@shdfnd@physx@@QAEXXZ 10006b30 f   PsWindowsMutex.obj
 0001:00005b40       ??0?$MutexT@V?$ReflectionAllocator@VMutexImpl@shdfnd@physx@@@shdfnd@physx@@@shdfnd@physx@@QAE@ABV?$ReflectionAllocator@VMutexImpl@shdfnd@physx@@@12@@Z 10006b40 f i PsWindowsMutex.obj
 0001:00005bb0       ??4ThreadImpl@shdfnd@physx@@QAEAAV012@ABV012@@Z 10006bb0 f i PsWindowsMutex.obj
 0001:00005bc0       ?__empty_global_delete@@YAXPAX@Z 10006bc0 f i PsWindowsMutex.obj
 0001:00005bd0       ?__empty_global_delete@@YAXPAXI@Z 10006bd0 f i PsWindowsMutex.obj
 0001:00005bf0       ??0PAUtils@shdfnd@physx@@QAE@XZ 10006bf0 f   PsWindowsPAEventSrc.obj
 0001:00005c00       ??1PAUtils@shdfnd@physx@@QAE@XZ 10006c00 f   PsWindowsPAEventSrc.obj
 0001:00005c50       ?isEnabled@PAUtils@shdfnd@physx@@QAE_NXZ 10006c50 f   PsWindowsPAEventSrc.obj
 0001:00005c70       ?isEventEnabled@PAUtils@shdfnd@physx@@QAE_NG@Z 10006c70 f   PsWindowsPAEventSrc.obj
 0001:00005ca0       ?registerEvent@PAUtils@shdfnd@physx@@QAEGPBD@Z 10006ca0 f   PsWindowsPAEventSrc.obj
 0001:00005d30       ?startEvent@PAUtils@shdfnd@physx@@QAEXGG@Z 10006d30 f   PsWindowsPAEventSrc.obj
 0001:00005dd0       ?stopEvent@PAUtils@shdfnd@physx@@QAEXGG@Z 10006dd0 f   PsWindowsPAEventSrc.obj
 0001:00005e70       ?statEvent@PAUtils@shdfnd@physx@@QAEXGI@Z 10006e70 f   PsWindowsPAEventSrc.obj
 0001:00005eb0       ?statEvent@PAUtils@shdfnd@physx@@QAEXGII@Z 10006eb0 f   PsWindowsPAEventSrc.obj
 0001:00005ee0       ?debugEvent@PAUtils@shdfnd@physx@@QAEXGII@Z 10006ee0 f   PsWindowsPAEventSrc.obj
 0001:00005f10       ?rawEvent@PAUtils@shdfnd@physx@@QAEXGIIE@Z 10006f10 f   PsWindowsPAEventSrc.obj
 0001:00005f40       ?rawEventWithTimestamp@PAUtils@shdfnd@physx@@QAE_NG_KIIE@Z 10006f40 f   PsWindowsPAEventSrc.obj
 0001:00005f70       ?lock@PAUtils@shdfnd@physx@@QAE_NXZ 10006f70 f   PsWindowsPAEventSrc.obj
 0001:00005fc0       ?unlock@PAUtils@shdfnd@physx@@QAE_NXZ 10006fc0 f   PsWindowsPAEventSrc.obj
 0001:00005fe0       ??0ConnImpl@shdfnd@physx@@QAE@XZ 10006fe0 f   PsWindowsPAEventSrc.obj
 0001:00006140       ??1ConnImpl@shdfnd@physx@@QAE@XZ 10007140 f   PsWindowsPAEventSrc.obj
 0001:00006180       ?GetProcID@ConnImpl@shdfnd@physx@@QAEEXZ 10007180 f i PsWindowsPAEventSrc.obj
 0001:000061b0       ?printFormatted@shdfnd@physx@@YAXPBDZZ 100071b0 f   PsWindowsPrintString.obj
 0001:00006210       ?printString@shdfnd@physx@@YAXPBD@Z 10007210 f   PsWindowsPrintString.obj
 0001:00006240       ??$__vcrt_va_start_verify_argument_type@PBD@@YAXXZ 10007240 f i PsWindowsPrintString.obj
 0001:00006250       ___local_stdio_printf_options 10007250 f i PsWindowsPrintString.obj
 0001:00006260       ??0SListImpl@shdfnd@physx@@QAE@XZ 10007260 f   PsWindowsSList.obj
 0001:00006270       ??1SListImpl@shdfnd@physx@@QAE@XZ 10007270 f   PsWindowsSList.obj
 0001:00006280       ?push@SListImpl@shdfnd@physx@@QAEXPAVSListEntry@23@@Z 10007280 f   PsWindowsSList.obj
 0001:000062a0       ?pop@SListImpl@shdfnd@physx@@QAEPAVSListEntry@23@XZ 100072a0 f   PsWindowsSList.obj
 0001:000062b0       ?flush@SListImpl@shdfnd@physx@@QAEPAVSListEntry@23@XZ 100072b0 f   PsWindowsSList.obj
 0001:000062c0       ?getSize@SListImpl@shdfnd@physx@@SAABIXZ 100072c0 f   PsWindowsSList.obj
 0001:000062d0       ??4SListImpl@shdfnd@physx@@QAEAAU012@ABU012@@Z 100072d0 f i PsWindowsSList.obj
 0001:000062e0       ??0Socket@shdfnd@physx@@QAE@_N@Z 100072e0 f   PsWindowsSocket.obj
 0001:00006350       ??1Socket@shdfnd@physx@@UAE@XZ 10007350 f   PsWindowsSocket.obj
 0001:00006390       ?connect@Socket@shdfnd@physx@@QAE_NPBDGI@Z 10007390 f   PsWindowsSocket.obj
 0001:000063a0       ?listen@Socket@shdfnd@physx@@QAE_NGPAVConnection@123@@Z 100073a0 f   PsWindowsSocket.obj
 0001:000063b0       ?disconnect@Socket@shdfnd@physx@@QAEXXZ 100073b0 f   PsWindowsSocket.obj
 0001:000063c0       ?isConnected@Socket@shdfnd@physx@@QBE_NXZ 100073c0 f   PsWindowsSocket.obj
 0001:000063d0       ?getHost@Socket@shdfnd@physx@@QBEPBDXZ 100073d0 f   PsWindowsSocket.obj
 0001:000063e0       ?getPort@Socket@shdfnd@physx@@QBEGXZ 100073e0 f   PsWindowsSocket.obj
 0001:000063f0       ?flush@Socket@shdfnd@physx@@QAE_NXZ 100073f0 f   PsWindowsSocket.obj
 0001:00006410       ?write@Socket@shdfnd@physx@@QAEIPBEI@Z 10007410 f   PsWindowsSocket.obj
 0001:00006430       ?read@Socket@shdfnd@physx@@QAEIPAEI@Z 10007430 f   PsWindowsSocket.obj
 0001:00006450       ?setBlocking@Socket@shdfnd@physx@@QAEX_N@Z 10007450 f   PsWindowsSocket.obj
 0001:00006490       ?isBlocking@Socket@shdfnd@physx@@QBE_NXZ 10007490 f   PsWindowsSocket.obj
 0001:000064a0       ??0SocketImpl@shdfnd@physx@@QAE@XZ 100074a0 f   PsWindowsSocket.obj
 0001:00006510       ??1SocketImpl@shdfnd@physx@@UAE@XZ 10007510 f   PsWindowsSocket.obj
 0001:00006560       ?connect@SocketImpl@shdfnd@physx@@QAE_NPBDGI@Z 10007560 f   PsWindowsSocket.obj
 0001:00006770       ?listen@SocketImpl@shdfnd@physx@@QAE_NGPAVConnection@Socket@23@@Z 10007770 f   PsWindowsSocket.obj
 0001:00006840       ?disconnect@SocketImpl@shdfnd@physx@@QAEXXZ 10007840 f   PsWindowsSocket.obj
 0001:000068a0       ?setBlocking@SocketImpl@shdfnd@physx@@QAEX_N@Z 100078a0 f   PsWindowsSocket.obj
 0001:000068d0       ?write@SocketImpl@shdfnd@physx@@UAEIPBEI@Z 100078d0 f   PsWindowsSocket.obj
 0001:00006930       ?flush@SocketImpl@shdfnd@physx@@UAE_NXZ 10007930 f   PsWindowsSocket.obj
 0001:00006940       ?read@SocketImpl@shdfnd@physx@@QAEIPAEI@Z 10007940 f   PsWindowsSocket.obj
 0001:000069f0       ?execute@SocketImpl@shdfnd@physx@@UAEXXZ 100079f0 f   PsWindowsSocket.obj
 0001:00006a40       ??0BufferedSocketImpl@shdfnd@physx@@QAE@XZ 10007a40 f   PsWindowsSocket.obj
 0001:00006ac0       ?flush@BufferedSocketImpl@shdfnd@physx@@UAE_NXZ 10007ac0 f   PsWindowsSocket.obj
 0001:00006b40       ?write@BufferedSocketImpl@shdfnd@physx@@UAEIPBEI@Z 10007b40 f   PsWindowsSocket.obj
 0001:00006bf0       ??0?$ThreadT@V?$ReflectionAllocator@VThreadImpl@shdfnd@physx@@@shdfnd@physx@@@shdfnd@physx@@QAE@ABV?$ReflectionAllocator@VThreadImpl@shdfnd@physx@@@12@@Z 10007bf0 f i PsWindowsSocket.obj
 0001:00006c70       ??0Socket@shdfnd@physx@@QAE@ABV012@@Z 10007c70 f i PsWindowsSocket.obj
 0001:00006c90       ??1?$ThreadT@V?$ReflectionAllocator@VThreadImpl@shdfnd@physx@@@shdfnd@physx@@@shdfnd@physx@@UAE@XZ 10007c90 f i PsWindowsSocket.obj
 0001:00006cc0       ??1BufferedSocketImpl@shdfnd@physx@@UAE@XZ 10007cc0 f i PsWindowsSocket.obj
 0001:00006d10       ??1Runnable@shdfnd@physx@@UAE@XZ 10007d10 f i PsWindowsSocket.obj
 0001:00006d20       ??4Socket@shdfnd@physx@@QAEAAV012@ABV012@@Z 10007d20 f i PsWindowsSocket.obj
 0001:00006d40       ??_ESocket@shdfnd@physx@@UAEPAXI@Z 10007d40 f i PsWindowsSocket.obj
 0001:00006ea0       ??_FSocket@shdfnd@physx@@QAEXXZ 10007ea0 f i PsWindowsSocket.obj
 0001:00006ef0       ??_E?$ThreadT@V?$ReflectionAllocator@VThreadImpl@shdfnd@physx@@@shdfnd@physx@@@shdfnd@physx@@UAEPAXI@Z 10007ef0 f i PsWindowsSocket.obj
 0001:00006ef0       ??_G?$ThreadT@V?$ReflectionAllocator@VThreadImpl@shdfnd@physx@@@shdfnd@physx@@@shdfnd@physx@@UAEPAXI@Z 10007ef0 f i PsWindowsSocket.obj
 0001:00006f50       ??_GBufferedSocketImpl@shdfnd@physx@@UAEPAXI@Z 10007f50 f i PsWindowsSocket.obj
 0001:00006f50       ??_EBufferedSocketImpl@shdfnd@physx@@UAEPAXI@Z 10007f50 f i PsWindowsSocket.obj
 0001:00006fd0       ??_ERunnable@shdfnd@physx@@UAEPAXI@Z 10007fd0 f i PsWindowsSocket.obj
 0001:00006fd0       ??_GRunnable@shdfnd@physx@@UAEPAXI@Z 10007fd0 f i PsWindowsSocket.obj
 0001:00007000       ??_GSocket@shdfnd@physx@@UAEPAXI@Z 10008000 f i PsWindowsSocket.obj
 0001:00007070       ??_ESocketImpl@shdfnd@physx@@UAEPAXI@Z 10008070 f i PsWindowsSocket.obj
 0001:00007070       ??_GSocketImpl@shdfnd@physx@@UAEPAXI@Z 10008070 f i PsWindowsSocket.obj
 0001:000070e0       ?__global_array_delete@@YAXPAX@Z 100080e0 f i PsWindowsSocket.obj
 0001:000070f0       ?__global_array_delete@@YAXPAXI@Z 100080f0 f i PsWindowsSocket.obj
 0001:00007100       ?__global_delete@@YAXPAX@Z 10008100 f i PsWindowsSocket.obj
 0001:00007110       ?__global_delete@@YAXPAXI@Z 10008110 f i PsWindowsSocket.obj
 0001:00007120       ?execute@?$ThreadT@V?$ReflectionAllocator@VThreadImpl@shdfnd@physx@@@shdfnd@physx@@@shdfnd@physx@@UAEXXZ 10008120 f i PsWindowsSocket.obj
 0001:00007130       ?execute@Runnable@shdfnd@physx@@UAEXXZ 10008130 f i PsWindowsSocket.obj
 0001:00007140       ??0SyncImpl@shdfnd@physx@@QAE@XZ 10008140 f   PsWindowsSync.obj
 0001:00007160       ??1SyncImpl@shdfnd@physx@@QAE@XZ 10008160 f   PsWindowsSync.obj
 0001:00007170       ?wait@SyncImpl@shdfnd@physx@@QAE_NI@Z 10008170 f   PsWindowsSync.obj
 0001:00007190       ?set@SyncImpl@shdfnd@physx@@QAEXXZ 10008190 f   PsWindowsSync.obj
 0001:000071a0       ?reset@SyncImpl@shdfnd@physx@@QAEXXZ 100081a0 f   PsWindowsSync.obj
 0001:000071b0       ?getSize@SyncImpl@shdfnd@physx@@SAABIXZ 100081b0 f   PsWindowsSync.obj
 0001:000071c0       ??4SyncImpl@shdfnd@physx@@QAEAAV012@ABV012@@Z 100081c0 f i PsWindowsSync.obj
 0001:000071d0       ?getDefaultStackSize@ThreadImpl@shdfnd@physx@@SAIXZ 100081d0 f   PsWindowsThread.obj
 0001:000071e0       ?getId@ThreadImpl@shdfnd@physx@@SAIXZ 100081e0 f   PsWindowsThread.obj
 0001:000071f0       ??0ThreadImpl@shdfnd@physx@@QAE@XZ 100081f0 f   PsWindowsThread.obj
 0001:00007220       ??0ThreadImpl@shdfnd@physx@@QAE@P6APAXPAX@Z0@Z 10008220 f   PsWindowsThread.obj
 0001:00007290       ??1ThreadImpl@shdfnd@physx@@QAE@XZ 10008290 f   PsWindowsThread.obj
 0001:000072c0       ?start@ThreadImpl@shdfnd@physx@@QAEXIPAVRunnable@23@@Z 100082c0 f   PsWindowsThread.obj
 0001:00007330       ?kill@ThreadImpl@shdfnd@physx@@QAEXXZ 10008330 f   PsWindowsThread.obj
 0001:00007350       ?signalQuit@ThreadImpl@shdfnd@physx@@QAEXXZ 10008350 f   PsWindowsThread.obj
 0001:00007360       ?waitForQuit@ThreadImpl@shdfnd@physx@@QAE_NXZ 10008360 f   PsWindowsThread.obj
 0001:00007380       ?quitIsSignalled@ThreadImpl@shdfnd@physx@@QAE_NXZ 10008380 f   PsWindowsThread.obj
 0001:000073a0       ?quit@ThreadImpl@shdfnd@physx@@QAEXXZ 100083a0 f   PsWindowsThread.obj
 0001:000073b0       ?setAffinityMask@ThreadImpl@shdfnd@physx@@QAEII@Z 100083b0 f   PsWindowsThread.obj
 0001:000073e0       ?getPriority@ThreadImpl@shdfnd@physx@@SA?AW4Enum@ThreadPriority@23@I@Z 100083e0 f   PsWindowsThread.obj
 0001:00007430       ?setPriority@ThreadImpl@shdfnd@physx@@QAEXW4Enum@ThreadPriority@23@@Z 10008430 f   PsWindowsThread.obj
 0001:000074a0       ?setName@ThreadImpl@shdfnd@physx@@QAEXPBD@Z 100084a0 f   PsWindowsThread.obj
 0001:00007520       ?sleep@ThreadImpl@shdfnd@physx@@SAXI@Z 10008520 f   PsWindowsThread.obj
 0001:00007530       ?yield@ThreadImpl@shdfnd@physx@@SAXXZ 10008530 f   PsWindowsThread.obj
 0001:00007540       ?getNbPhysicalCores@ThreadImpl@shdfnd@physx@@SAIXZ 10008540 f   PsWindowsThread.obj
 0001:00007620       ?getSize@ThreadImpl@shdfnd@physx@@SAABIXZ 10008620 f   PsWindowsThread.obj
 0001:00007630       ?TlsAlloc@shdfnd@physx@@YAIXZ 10008630 f   PsWindowsThread.obj
 0001:00007640       ?TlsFree@shdfnd@physx@@YAXI@Z 10008640 f   PsWindowsThread.obj
 0001:00007650       ?TlsGet@shdfnd@physx@@YAPAXI@Z 10008650 f   PsWindowsThread.obj
 0001:00007660       ?TlsSet@shdfnd@physx@@YAIIPAX@Z 10008660 f   PsWindowsThread.obj
 0001:000076b0       ?getBootCounterFrequency@Time@shdfnd@physx@@SAABUCounterFrequencyToTensOfNanos@23@XZ 100086b0 f   PsWindowsTime.obj
 0001:000076c0       ?getCounterFrequency@Time@shdfnd@physx@@SA?AUCounterFrequencyToTensOfNanos@23@XZ 100086c0 f   PsWindowsTime.obj
 0001:000076f0       ?getCurrentCounterValue@Time@shdfnd@physx@@SA_KXZ 100086f0 f   PsWindowsTime.obj
 0001:00007710       ??0Time@shdfnd@physx@@QAE@XZ 10008710 f   PsWindowsTime.obj
 0001:00007750       ?getElapsedSeconds@Time@shdfnd@physx@@QAENXZ 10008750 f   PsWindowsTime.obj
 0001:000077a0       ?peekElapsedSeconds@Time@shdfnd@physx@@QAENXZ 100087a0 f   PsWindowsTime.obj
 0001:000077e0       ?getLastTime@Time@shdfnd@physx@@QBENXZ 100087e0 f   PsWindowsTime.obj
 0001:00007810       ??4Time@shdfnd@physx@@QAEAAV012@$$QAV012@@Z 10008810 f i PsWindowsTime.obj
 0001:00007830       ??4Time@shdfnd@physx@@QAEAAV012@ABV012@@Z 10008830 f i PsWindowsTime.obj
 0001:00007850       ?getCurrentTimeInTensOfNanoSeconds@Time@shdfnd@physx@@SA_KXZ 10008850 f i PsWindowsTime.obj
 0001:00007890       ?allocate@Allocator@shdfnd@physx@@QAEPAXIPBDH@Z 10008890 f   PsAllocator.obj
 0001:000078c0       ?deallocate@Allocator@shdfnd@physx@@QAEXPAX@Z 100088c0 f   PsAllocator.obj
 0001:00007920       ??_EDefaultAssertHandler@?A0x06c62945@@UAEPAXI@Z 10008920 f i PsAssert.obj
 0001:00007920       ??_GDefaultAssertHandler@?A0x06c62945@@UAEPAXI@Z 10008920 f i PsAssert.obj
 0001:00007950       ??_GPxAssertHandler@physx@@UAEPAXI@Z 10008950 f i PsAssert.obj
 0001:00007950       ??_EPxAssertHandler@physx@@UAEPAXI@Z 10008950 f i PsAssert.obj
 0001:00007980       ?PxGetAssertHandler@physx@@YAAAVPxAssertHandler@1@XZ 10008980 f   PsAssert.obj
 0001:00007990       ?PxSetAssertHandler@physx@@YAXAAVPxAssertHandler@1@@Z 10008990 f   PsAssert.obj
 0001:000079a0       ??$__vcrt_va_start_verify_argument_type@QBD@@YAXXZ 100089a0 f i PsAssert.obj
 0001:000079b0       ??1PxAssertHandler@physx@@UAE@XZ 100089b0 f i PsAssert.obj
 0001:000079c0       _sprintf                   100089c0 f i PsAssert.obj
 0001:00007a00       ??0ErrorHandler@shdfnd@physx@@QAE@XZ 10008a00 f   PsErrorHandler.obj
 0001:00007a20       ??1ErrorHandler@shdfnd@physx@@QAE@XZ 10008a20 f   PsErrorHandler.obj
 0001:00007a60       ?reportError@ErrorHandler@shdfnd@physx@@QAEXW4Enum@PxErrorCode@3@PBD1H@Z 10008a60 f   PsErrorHandler.obj
 0001:00007ab0       ?registerErrorCallback@ErrorHandler@shdfnd@physx@@QAEHAAVPxErrorCallback@3@@Z 10008ab0 f   PsErrorHandler.obj
 0001:00007b20       ?unRegisterErrorCallback@ErrorHandler@shdfnd@physx@@QAEXAAVPxErrorCallback@3@@Z 10008b20 f   PsErrorHandler.obj
 0001:00007b80       ?unRegisterErrorCallback@ErrorHandler@shdfnd@physx@@QAEXH@Z 10008b80 f   PsErrorHandler.obj
 0001:00007bd0       ?createFastIPC@shdfnd@physx@@YAPAVPxIPC@12@AAW4ErrorCode@312@W4ConnectionType@312@PBDII_N3I@Z 10008bd0 f   PsFastIPC.obj
 0001:00007c70       ??0FastIPC@shdfnd@physx@@QAE@AAW4ErrorCode@PxIPC@12@W4ConnectionType@412@PBDII_N3I@Z 10008c70 f i PsFastIPC.obj
 0001:00008040       ??0MultiPartPacket@PxRingBuffer@shdfnd@physx@@QAE@W4MessageType@123@PBXIIPAV123@@Z 10009040 f i PsFastIPC.obj
 0001:000080b0       ??1PxIPC@shdfnd@physx@@MAE@XZ 100090b0 f i PsFastIPC.obj
 0001:000080c0       ??1PxRingBuffer@shdfnd@physx@@QAE@XZ 100090c0 f i PsFastIPC.obj
 0001:00008120       ??_EFastIPC@shdfnd@physx@@UAEPAXI@Z 10009120 f i PsFastIPC.obj
 0001:00008120       ??_GFastIPC@shdfnd@physx@@UAEPAXI@Z 10009120 f i PsFastIPC.obj
 0001:000081b0       ??_EPxIPC@shdfnd@physx@@MAEPAXI@Z 100091b0 f i PsFastIPC.obj
 0001:000081b0       ??_GPxIPC@shdfnd@physx@@MAEPAXI@Z 100091b0 f i PsFastIPC.obj
 0001:000081e0       ?canSend@FastIPC@shdfnd@physx@@UAE_NI@Z 100091e0 f i PsFastIPC.obj
 0001:00008230       ?canSend@PxRingBuffer@shdfnd@physx@@QBE?AW4ErrorCode@123@I@Z 10009230 f i PsFastIPC.obj
 0001:000082c0       ?haveConnection@FastIPC@shdfnd@physx@@UBE_NXZ 100092c0 f i PsFastIPC.obj
 0001:000082e0       ?init@PxRingBuffer@shdfnd@physx@@QAEXPAXI_N1IPAI2@Z 100092e0 f i PsFastIPC.obj
 0001:00008370       ?isServer@FastIPC@shdfnd@physx@@UBE_NXZ 10009370 f i PsFastIPC.obj
 0001:00008380       ?process@MultiPartPacket@PxRingBuffer@shdfnd@physx@@QAE?AW4ErrorCode@234@XZ 10009380 f i PsFastIPC.obj
 0001:00008400       ?pumpPendingSends@FastIPC@shdfnd@physx@@UAE_NXZ 10009400 f i PsFastIPC.obj
 0001:00008460       ?pumpPendingSends@PxRingBuffer@shdfnd@physx@@QAE_NXZ 10009460 f i PsFastIPC.obj
 0001:000084b0       ?receiveAcknowledge@FastIPC@shdfnd@physx@@UAE?AW4ErrorCode@PxIPC@23@XZ 100094b0 f i PsFastIPC.obj
 0001:000084d0       ?receiveAcknowledge@PxRingBuffer@shdfnd@physx@@QAE?AW4ErrorCode@123@XZ 100094d0 f i PsFastIPC.obj
 0001:00008560       ?receiveData@FastIPC@shdfnd@physx@@UAEPBXAAI@Z 10009560 f i PsFastIPC.obj
 0001:000085a0       ?receiveData@PxRingBuffer@shdfnd@physx@@QAE?AW4MessageType@123@AAPBXAAI@Z 100095a0 f i PsFastIPC.obj
 0001:000087b0       ?release@FastIPC@shdfnd@physx@@UAEXXZ 100097b0 f i PsFastIPC.obj
 0001:000087c0       ?sendData@FastIPC@shdfnd@physx@@UAE?AW4ErrorCode@PxIPC@23@PBXI_N@Z 100097c0 f i PsFastIPC.obj
 0001:000087f0       ?sendData@PxRingBuffer@shdfnd@physx@@QAE?AW4ErrorCode@123@W4MessageType@123@PBXI_N@Z 100097f0 f i PsFastIPC.obj
 0001:00008910       ?sendHeader@MultiPartPacket@PxRingBuffer@shdfnd@physx@@QAE?AW4ErrorCode@234@XZ 10009910 f i PsFastIPC.obj
 0001:00008980       ?writeData@PxRingBuffer@shdfnd@physx@@AAEXW4MessageType@123@PBXI@Z 10009980 f i PsFastIPC.obj
 0001:00008a60       ?createFastXml@shdfnd@physx@@YAPAVFastXml@12@PAVCallback@312@@Z 10009a60 f   PsFastXml.obj
 0001:00008b90       ??1FastXml@shdfnd@physx@@MAE@XZ 10009b90 f i PsFastXml.obj
 0001:00008bc0       ??_GFastXml@shdfnd@physx@@MAEPAXI@Z 10009bc0 f i PsFastXml.obj
 0001:00008bc0       ??_EFastXml@shdfnd@physx@@MAEPAXI@Z 10009bc0 f i PsFastXml.obj
 0001:00008bf0       ??_EMyFastXml@?A0xd3efc24c@@EAEPAXI@Z 10009bf0 f i PsFastXml.obj
 0001:00008bf0       ??_GMyFastXml@?A0xd3efc24c@@EAEPAXI@Z 10009bf0 f i PsFastXml.obj
 0001:000099f0       _PxCreateFoundation        1000a9f0 f   PsFoundation.obj
 0001:00009a10       _PxGetFoundation           1000aa10 f   PsFoundation.obj
 0001:00009a20       ?getAllocator@shdfnd@physx@@YAAAVPxAllocatorCallback@2@XZ 1000aa20 f   PsFoundation.obj
 0001:00009a30       ??0Foundation@shdfnd@physx@@AAE@AAVPxErrorCallback@2@AAVPxAllocatorCallback@2@@Z 1000aa30 f   PsFoundation.obj
 0001:00009b10       ??1Foundation@shdfnd@physx@@EAE@XZ 1000ab10 f   PsFoundation.obj
 0001:00009c20       ?release@Foundation@shdfnd@physx@@UAEXXZ 1000ac20 f   PsFoundation.obj
 0001:00009c30       ?createInstance@Foundation@shdfnd@physx@@SAPAV123@IAAVPxErrorCallback@3@AAVPxAllocatorCallback@3@@Z 1000ac30 f   PsFoundation.obj
 0001:00009d20       ?destroyInstance@Foundation@shdfnd@physx@@SAXXZ 1000ad20 f   PsFoundation.obj
 0001:00009d80       ?getInstance@Foundation@shdfnd@physx@@SAAAV123@XZ 1000ad80 f   PsFoundation.obj
 0001:00009d90       ?incRefCount@Foundation@shdfnd@physx@@SAXXZ 1000ad90 f   PsFoundation.obj
 0001:00009dc0       ?decRefCount@Foundation@shdfnd@physx@@SAXXZ 1000adc0 f   PsFoundation.obj
 0001:00009df0       ?getErrorCallback@Foundation@shdfnd@physx@@UBEAAVPxErrorCallback@3@XZ 1000adf0 f   PsFoundation.obj
 0001:00009e00       ?setErrorLevel@Foundation@shdfnd@physx@@UAEXW4Enum@PxErrorCode@3@@Z 1000ae00 f   PsFoundation.obj
 0001:00009e10       ?getErrorLevel@Foundation@shdfnd@physx@@UBE?AW4Enum@PxErrorCode@3@XZ 1000ae10 f   PsFoundation.obj
 0001:00009e20       ?getAllocatorCallback@Foundation@shdfnd@physx@@UBEAAVPxAllocatorCallback@3@XZ 1000ae20 f   PsFoundation.obj
 0001:00009e30       ?error@Foundation@shdfnd@physx@@QAAXW4Enum@PxErrorCode@3@PBDH1ZZ 1000ae30 f   PsFoundation.obj
 0001:00009e50       ?errorImpl@Foundation@shdfnd@physx@@QAEXW4Enum@PxErrorCode@3@PBDH1PAD@Z 1000ae50 f   PsFoundation.obj
 0001:00009ec0       ?getWarnOnceTimestamp@Foundation@shdfnd@physx@@SAIXZ 1000aec0 f   PsFoundation.obj
 0001:00009ed0       ?allocate@AlignCheckAllocator@Foundation@shdfnd@physx@@UAEPAXIPBD0H@Z 1000aed0 f   PsFoundation.obj
 0001:00009f70       ??0TempAllocator@shdfnd@physx@@QAE@PBD@Z 1000af70 f i PsFoundation.obj
 0001:00009f80       ??1PxAllocatorCallback@physx@@UAE@XZ 1000af80 f i PsFoundation.obj
 0001:00009f90       ??1PxBroadcastingAllocator@physx@@MAE@XZ 1000af90 f i PsFoundation.obj
 0001:00009fa0       ??4TempAllocator@shdfnd@physx@@QAEAAV012@$$QAV012@@Z 1000afa0 f i PsFoundation.obj
 0001:00009fb0       ??4TempAllocator@shdfnd@physx@@QAEAAV012@ABV012@@Z 1000afb0 f i PsFoundation.obj
 0001:00009fc0       ??_EFoundation@shdfnd@physx@@EAEPAXI@Z 1000afc0 f i PsFoundation.obj
 0001:0000a050       ??_FTempAllocator@shdfnd@physx@@QAEXXZ 1000b050 f i PsFoundation.obj
 0001:0000a060       ??_GAlignCheckAllocator@Foundation@shdfnd@physx@@UAEPAXI@Z 1000b060 f i PsFoundation.obj
 0001:0000a060       ??_EAlignCheckAllocator@Foundation@shdfnd@physx@@UAEPAXI@Z 1000b060 f i PsFoundation.obj
 0001:0000a090       ??_GFoundation@shdfnd@physx@@EAEPAXI@Z 1000b090 f i PsFoundation.obj
 0001:0000a0c0       ??_GPxAllocatorCallback@physx@@UAEPAXI@Z 1000b0c0 f i PsFoundation.obj
 0001:0000a0c0       ??_EPxAllocatorCallback@physx@@UAEPAXI@Z 1000b0c0 f i PsFoundation.obj
 0001:0000a0f0       ??_GPxBroadcastingAllocator@physx@@MAEPAXI@Z 1000b0f0 f i PsFoundation.obj
 0001:0000a0f0       ??_EPxBroadcastingAllocator@physx@@MAEPAXI@Z 1000b0f0 f i PsFoundation.obj
 0001:0000a120       ?deallocate@AlignCheckAllocator@Foundation@shdfnd@physx@@UAEXPAX@Z 1000b120 f i PsFoundation.obj
 0001:0000a170       ?deregisterAllocationListener@AlignCheckAllocator@Foundation@shdfnd@physx@@UAEXAAVPxAllocationListener@4@@Z 1000b170 f i PsFoundation.obj
 0001:0000a1b0       ?recreate@?$Array@PATTempAllocatorChunk@shdfnd@physx@@VAllocator@23@@shdfnd@physx@@IAEXI@Z 1000b1b0 f i PsFoundation.obj
 0001:0000a220       ?registerAllocationListener@AlignCheckAllocator@Foundation@shdfnd@physx@@UAEXAAVPxAllocationListener@4@@Z 1000b220 f i PsFoundation.obj
 0001:0000a240       ?reserveInternal@?$HashBase@V?$Pair@QBVNamedAllocator@shdfnd@physx@@PBD@shdfnd@physx@@PBVNamedAllocator@23@U?$Hash@PBVNamedAllocator@shdfnd@physx@@@23@UGetKey@?$HashMapBase@PBVNamedAllocator@shdfnd@physx@@PBDU?$Hash@PBVNamedAllocator@shdfnd@physx@@@23@VNonTrackingAllocator@23@@internal@23@VNonTrackingAllocator@23@$00@internal@shdfnd@physx@@AAEXI@Z 1000b240 f i PsFoundation.obj
 0001:0000a3d0       ?resize@?$Array@PATTempAllocatorChunk@shdfnd@physx@@VAllocator@23@@shdfnd@physx@@QAEXIABQATTempAllocatorChunk@23@@Z 1000b3d0 f i PsFoundation.obj
 0001:0000a420       ?sprintf_s@string@physx@@YAHPADIPBDZZ 1000b420 f i PsFoundation.obj
 0001:0000a450       ?computeQuatFromNormal@shdfnd@physx@@YA?AVPxQuat@2@ABVPxVec3@2@@Z 1000b450 f   PsMathUtils.obj
 0001:0000a5b0       ?optimizeBoundingBox@shdfnd@physx@@YA?AVPxVec3@2@AAVPxMat33@2@@Z 1000b5b0 f   PsMathUtils.obj
 0001:0000a940       ?slerp@shdfnd@physx@@YA?AVPxQuat@2@MABV32@0@Z 1000b940 f   PsMathUtils.obj
 0001:0000aa90       ?integrateTransform@shdfnd@physx@@YAXABVPxTransform@2@ABVPxVec3@2@1MAAV32@@Z 1000ba90 f   PsMathUtils.obj
 0001:0000acc0       ?allocate@TempAllocator@shdfnd@physx@@QAEPAXIPBDH@Z 1000bcc0 f   PsTempAllocator.obj
 0001:0000adb0       ?deallocate@TempAllocator@shdfnd@physx@@QAEXPAX@Z 1000bdb0 f   PsTempAllocator.obj
 0001:0000ae40       ?checkValid@shdfnd@physx@@YA_NABM@Z 1000be40 f   PsUtilities.obj
 0001:0000ae70       ?checkValid@shdfnd@physx@@YA_NABVPxVec3@2@@Z 1000be70 f   PsUtilities.obj
 0001:0000aee0       ?checkValid@shdfnd@physx@@YA_NABVPxQuat@2@@Z 1000bee0 f   PsUtilities.obj
 0001:0000af70       ?checkValid@shdfnd@physx@@YA_NABVPxMat33@2@@Z 1000bf70 f   PsUtilities.obj
 0001:0000b0a0       ?checkValid@shdfnd@physx@@YA_NABVPxTransform@2@@Z 1000c0a0 f   PsUtilities.obj
 0001:0000b120       ?checkValid@shdfnd@physx@@YA_NPBD@Z 1000c120 f   PsUtilities.obj
 0001:0000b140       ?PxCreateCollection@@YAPAVPxCollection@physx@@XZ 1000c140 f   CmCollection.obj
 0001:0000b1a0       ?add@Collection@Cm@physx@@UAEXAAVPxBase@3@_K@Z 1000c1a0 f   CmCollection.obj
 0001:0000b290       ?remove@Collection@Cm@physx@@UAEXAAVPxBase@3@@Z 1000c290 f   CmCollection.obj
 0001:0000b2d0       ?contains@Collection@Cm@physx@@UBE_NAAVPxBase@3@@Z 1000c2d0 f   CmCollection.obj
 0001:0000b2f0       ?addId@Collection@Cm@physx@@UAEXAAVPxBase@3@_K@Z 1000c2f0 f   CmCollection.obj
 0001:0000b3a0       ?removeId@Collection@Cm@physx@@UAEX_K@Z 1000c3a0 f   CmCollection.obj
 0001:0000b410       ?find@Collection@Cm@physx@@UBEPAVPxBase@3@_K@Z 1000c410 f   CmCollection.obj
 0001:0000b430       ?add@Collection@Cm@physx@@UAEXAAVPxCollection@3@@Z 1000c430 f   CmCollection.obj
 0001:0000b590       ?remove@Collection@Cm@physx@@UAEXAAVPxCollection@3@@Z 1000c590 f   CmCollection.obj
 0001:0000b5f0       ?getNbObjects@Collection@Cm@physx@@UBEIXZ 1000c5f0 f   CmCollection.obj
 0001:0000b600       ?getObject@Collection@Cm@physx@@UBEAAVPxBase@3@I@Z 1000c600 f   CmCollection.obj
 0001:0000b620       ?getObjects@Collection@Cm@physx@@UBEIPAPAVPxBase@3@II@Z 1000c620 f   CmCollection.obj
 0001:0000b670       ?getNbIds@Collection@Cm@physx@@UBEIXZ 1000c670 f   CmCollection.obj
 0001:0000b680       ?getId@Collection@Cm@physx@@UBE_KABVPxBase@3@@Z 1000c680 f   CmCollection.obj
 0001:0000b6c0       ?getIds@Collection@Cm@physx@@UBEIPA_KII@Z 1000c6c0 f   CmCollection.obj
 0001:0000b760       ??0Collection@Cm@physx@@QAE@XZ 1000c760 f i CmCollection.obj
 0001:0000b810       ??0Iter@?$HashBase@V?$Pair@$$CB_KPAVPxBase@physx@@@shdfnd@physx@@_KU?$Hash@_K@23@UGetKey@?$HashMapBase@_KPAVPxBase@physx@@U?$Hash@_K@shdfnd@2@VAllocator@42@@internal@23@VAllocator@23@$00@internal@shdfnd@physx@@QAE@AAV1234@@Z 1000c810 f i CmCollection.obj
 0001:0000b870       ??1PxCollection@physx@@MAE@XZ 1000c870 f i CmCollection.obj
 0001:0000b880       ??_GCollection@Cm@physx@@UAEPAXI@Z 1000c880 f i CmCollection.obj
 0001:0000b880       ??_ECollection@Cm@physx@@UAEPAXI@Z 1000c880 f i CmCollection.obj
 0001:0000b8e0       ??_GPxCollection@physx@@MAEPAXI@Z 1000c8e0 f i CmCollection.obj
 0001:0000b8e0       ??_EPxCollection@physx@@MAEPAXI@Z 1000c8e0 f i CmCollection.obj
 0001:0000b910       ?create@?$HashBase@V?$Pair@$$CB_KPAVPxBase@physx@@@shdfnd@physx@@_KU?$Hash@_K@23@UGetKey@?$HashMapBase@_KPAVPxBase@physx@@U?$Hash@_K@shdfnd@2@VAllocator@42@@internal@23@VAllocator@23@$00@internal@shdfnd@physx@@QAEPAV?$Pair@$$CB_KPAVPxBase@physx@@@34@AB_KAA_N@Z 1000c910 f i CmCollection.obj
 0001:0000ba10       ?create@?$HashBase@V?$Pair@QAVPxBase@physx@@_K@shdfnd@physx@@PAVPxBase@3@U?$Hash@PAVPxBase@physx@@@23@UGetKey@?$HashMapBase@PAVPxBase@physx@@_KU?$Hash@PAVPxBase@physx@@@shdfnd@2@VAllocator@42@@internal@23@VAllocator@23@$00@internal@shdfnd@physx@@QAEPAV?$Pair@QAVPxBase@physx@@_K@34@ABQAVPxBase@4@AA_N@Z 1000ca10 f i CmCollection.obj
 0001:0000bb30       ?erase@?$HashBase@V?$Pair@$$CB_KPAVPxBase@physx@@@shdfnd@physx@@_KU?$Hash@_K@23@UGetKey@?$HashMapBase@_KPAVPxBase@physx@@U?$Hash@_K@shdfnd@2@VAllocator@42@@internal@23@VAllocator@23@$00@internal@shdfnd@physx@@QAE_NAB_K@Z 1000cb30 f i CmCollection.obj
 0001:0000bbe0       ?erase@?$HashBase@V?$Pair@QAVPxBase@physx@@_K@shdfnd@physx@@PAVPxBase@3@U?$Hash@PAVPxBase@physx@@@23@UGetKey@?$HashMapBase@PAVPxBase@physx@@_KU?$Hash@PAVPxBase@physx@@@shdfnd@2@VAllocator@42@@internal@23@VAllocator@23@$00@internal@shdfnd@physx@@QAE_NABQAVPxBase@4@@Z 1000cbe0 f i CmCollection.obj
 0001:0000bc90       ?find@?$HashBase@V?$Pair@$$CB_KPAVPxBase@physx@@@shdfnd@physx@@_KU?$Hash@_K@23@UGetKey@?$HashMapBase@_KPAVPxBase@physx@@U?$Hash@_K@shdfnd@2@VAllocator@42@@internal@23@VAllocator@23@$00@internal@shdfnd@physx@@QBEPBV?$Pair@$$CB_KPAVPxBase@physx@@@34@AB_K@Z 1000cc90 f i CmCollection.obj
 0001:0000bd10       ?find@?$HashBase@V?$Pair@QAVPxBase@physx@@_K@shdfnd@physx@@PAVPxBase@3@U?$Hash@PAVPxBase@physx@@@23@UGetKey@?$HashMapBase@PAVPxBase@physx@@_KU?$Hash@PAVPxBase@physx@@@shdfnd@2@VAllocator@42@@internal@23@VAllocator@23@$00@internal@shdfnd@physx@@QBEPBV?$Pair@QAVPxBase@physx@@_K@34@ABQAVPxBase@4@@Z 1000cd10 f i CmCollection.obj
 0001:0000bda0       ?hash@shdfnd@physx@@YAI_K@Z 1000cda0 f i CmCollection.obj
 0001:0000be30       ?release@Collection@Cm@physx@@UAEXXZ 1000ce30 f i CmCollection.obj
 0001:0000be40       ?replaceWithLast@?$HashBase@V?$Pair@$$CB_KPAVPxBase@physx@@@shdfnd@physx@@_KU?$Hash@_K@23@UGetKey@?$HashMapBase@_KPAVPxBase@physx@@U?$Hash@_K@shdfnd@2@VAllocator@42@@internal@23@VAllocator@23@$00@internal@shdfnd@physx@@AAEXI@Z 1000ce40 f i CmCollection.obj
 0001:0000bec0       ?replaceWithLast@?$HashBase@V?$Pair@QAVPxBase@physx@@_K@shdfnd@physx@@PAVPxBase@3@U?$Hash@PAVPxBase@physx@@@23@UGetKey@?$HashMapBase@PAVPxBase@physx@@_KU?$Hash@PAVPxBase@physx@@@shdfnd@2@VAllocator@42@@internal@23@VAllocator@23@$00@internal@shdfnd@physx@@AAEXI@Z 1000cec0 f i CmCollection.obj
 0001:0000bf60       ?reserveInternal@?$HashBase@V?$Pair@$$CB_KPAVPxBase@physx@@@shdfnd@physx@@_KU?$Hash@_K@23@UGetKey@?$HashMapBase@_KPAVPxBase@physx@@U?$Hash@_K@shdfnd@2@VAllocator@42@@internal@23@VAllocator@23@$00@internal@shdfnd@physx@@AAEXI@Z 1000cf60 f i CmCollection.obj
 0001:0000c150       ?reserveInternal@?$HashBase@V?$Pair@QAVPxBase@physx@@_K@shdfnd@physx@@PAVPxBase@3@U?$Hash@PAVPxBase@physx@@@23@UGetKey@?$HashMapBase@PAVPxBase@physx@@_KU?$Hash@PAVPxBase@physx@@@shdfnd@2@VAllocator@42@@internal@23@VAllocator@23@$00@internal@shdfnd@physx@@AAEXI@Z 1000d150 f i CmCollection.obj
 0001:0000c2d0       ?getProfileNames@CmEventNameProvider@Cm@physx@@UBE?AUPxProfileNames@3@XZ 1000d2d0 f   CmEventProfiler.obj
 0001:0000c2f0       ?enableNVTXSupport@Cm@physx@@YAX_N@Z 1000d2f0 f   CmEventProfiler.obj
 0001:0000c300       ?isNVTXSupportEnabled@Cm@physx@@YA_NXZ 1000d300 f   CmEventProfiler.obj
 0001:0000c310       ?GetMBPPostUpdate@BroadPhase@ProfileEventId@Cm@physx@@SAABUPxProfileEventId@4@XZ 1000d310 f i CmEventProfiler.obj
 0001:0000c320       ?GetMBPPostUpdateSPU@BroadPhase@ProfileEventId@Cm@physx@@SAABUPxProfileEventId@4@XZ 1000d320 f i CmEventProfiler.obj
 0001:0000c330       ?GetMBPUpdate@BroadPhase@ProfileEventId@Cm@physx@@SAABUPxProfileEventId@4@XZ 1000d330 f i CmEventProfiler.obj
 0001:0000c340       ?GetMBPUpdateSPU@BroadPhase@ProfileEventId@Cm@physx@@SAABUPxProfileEventId@4@XZ 1000d340 f i CmEventProfiler.obj
 0001:0000c350       ?GetSapPostUpdate@BroadPhase@ProfileEventId@Cm@physx@@SAABUPxProfileEventId@4@XZ 1000d350 f i CmEventProfiler.obj
 0001:0000c360       ?GetSapPostUpdateSPU@BroadPhase@ProfileEventId@Cm@physx@@SAABUPxProfileEventId@4@XZ 1000d360 f i CmEventProfiler.obj
 0001:0000c370       ?GetSapUpdate@BroadPhase@ProfileEventId@Cm@physx@@SAABUPxProfileEventId@4@XZ 1000d370 f i CmEventProfiler.obj
 0001:0000c380       ?GetSapUpdateSPU@BroadPhase@ProfileEventId@Cm@physx@@SAABUPxProfileEventId@4@XZ 1000d380 f i CmEventProfiler.obj
 0001:0000c390       ?GetaddActor@API@ProfileEventId@Cm@physx@@SAABUPxProfileEventId@4@XZ 1000d390 f i CmEventProfiler.obj
 0001:0000c3a0       ?GetaddActorToSim@API@ProfileEventId@Cm@physx@@SAABUPxProfileEventId@4@XZ 1000d3a0 f i CmEventProfiler.obj
 0001:0000c3b0       ?GetaddActors@API@ProfileEventId@Cm@physx@@SAABUPxProfileEventId@4@XZ 1000d3b0 f i CmEventProfiler.obj
 0001:0000c3c0       ?GetaddAggregate@API@ProfileEventId@Cm@physx@@SAABUPxProfileEventId@4@XZ 1000d3c0 f i CmEventProfiler.obj
 0001:0000c3d0       ?GetaddArticulation@API@ProfileEventId@Cm@physx@@SAABUPxProfileEventId@4@XZ 1000d3d0 f i CmEventProfiler.obj
 0001:0000c3e0       ?GetaddCloth@API@ProfileEventId@Cm@physx@@SAABUPxProfileEventId@4@XZ 1000d3e0 f i CmEventProfiler.obj
 0001:0000c3f0       ?GetaddCollection@API@ProfileEventId@Cm@physx@@SAABUPxProfileEventId@4@XZ 1000d3f0 f i CmEventProfiler.obj
 0001:0000c400       ?GetaddParticleFluid@API@ProfileEventId@Cm@physx@@SAABUPxProfileEventId@4@XZ 1000d400 f i CmEventProfiler.obj
 0001:0000c410       ?GetaddParticleSystem@API@ProfileEventId@Cm@physx@@SAABUPxProfileEventId@4@XZ 1000d410 f i CmEventProfiler.obj
 0001:0000c420       ?GetaddShapesToSQ@API@ProfileEventId@Cm@physx@@SAABUPxProfileEventId@4@XZ 1000d420 f i CmEventProfiler.obj
 0001:0000c430       ?GetaddShapesToSim@API@ProfileEventId@Cm@physx@@SAABUPxProfileEventId@4@XZ 1000d430 f i CmEventProfiler.obj
 0001:0000c440       ?GetapplyExternalImpulses@Articulations@ProfileEventId@Cm@physx@@SAABUPxProfileEventId@4@XZ 1000d440 f i CmEventProfiler.obj
 0001:0000c450       ?GetapplyJointDrives@Articulations@ProfileEventId@Cm@physx@@SAABUPxProfileEventId@4@XZ 1000d450 f i CmEventProfiler.obj
 0001:0000c460       ?GetbroadPhase@Basic@ProfileEventId@Cm@physx@@SAABUPxProfileEventId@4@XZ 1000d460 f i CmEventProfiler.obj
 0001:0000c470       ?GetbrokenEdgeIslands@IslandGen@ProfileEventId@Cm@physx@@SAABUPxProfileEventId@4@XZ 1000d470 f i CmEventProfiler.obj
 0001:0000c480       ?GetbuildActiveTransforms@Sim@ProfileEventId@Cm@physx@@SAABUPxProfileEventId@4@XZ 1000d480 f i CmEventProfiler.obj
 0001:0000c490       ?GetccdBroadPhase@Sim@ProfileEventId@Cm@physx@@SAABUPxProfileEventId@4@XZ 1000d490 f i CmEventProfiler.obj
 0001:0000c4a0       ?GetccdBroadPhaseComplete@Sim@ProfileEventId@Cm@physx@@SAABUPxProfileEventId@4@XZ 1000d4a0 f i CmEventProfiler.obj
 0001:0000c4b0       ?GetccdIsland@Sim@ProfileEventId@Cm@physx@@SAABUPxProfileEventId@4@XZ 1000d4b0 f i CmEventProfiler.obj
 0001:0000c4c0       ?GetccdPair@Sim@ProfileEventId@Cm@physx@@SAABUPxProfileEventId@4@XZ 1000d4c0 f i CmEventProfiler.obj
 0001:0000c4d0       ?GetccdSweep@Sim@ProfileEventId@Cm@physx@@SAABUPxProfileEventId@4@XZ 1000d4d0 f i CmEventProfiler.obj
 0001:0000c4e0       ?GetccdSweepMerge@Sim@ProfileEventId@Cm@physx@@SAABUPxProfileEventId@4@XZ 1000d4e0 f i CmEventProfiler.obj
 0001:0000c4f0       ?GetcheckCollision@Basic@ProfileEventId@Cm@physx@@SAABUPxProfileEventId@4@XZ 1000d4f0 f i CmEventProfiler.obj
 0001:0000c500       ?GetcheckConstraintBreakage@Sim@ProfileEventId@Cm@physx@@SAABUPxProfileEventId@4@XZ 1000d500 f i CmEventProfiler.obj
 0001:0000c510       ?GetcheckResults@Basic@ProfileEventId@Cm@physx@@SAABUPxProfileEventId@4@XZ 1000d510 f i CmEventProfiler.obj
 0001:0000c520       ?GetcleanupEdgeEvents@IslandGen@ProfileEventId@Cm@physx@@SAABUPxProfileEventId@4@XZ 1000d520 f i CmEventProfiler.obj
 0001:0000c530       ?GetcollideQueueTasks@Sim@ProfileEventId@Cm@physx@@SAABUPxProfileEventId@4@XZ 1000d530 f i CmEventProfiler.obj
 0001:0000c540       ?Getcollision@Basic@ProfileEventId@Cm@physx@@SAABUPxProfileEventId@4@XZ 1000d540 f i CmEventProfiler.obj
 0001:0000c550       ?GetcomputeAABBUpdateLists@BroadPhase@ProfileEventId@Cm@physx@@SAABUPxProfileEventId@4@XZ 1000d550 f i CmEventProfiler.obj
 0001:0000c560       ?GetcomputeAggAggShapePairs@BroadPhase@ProfileEventId@Cm@physx@@SAABUPxProfileEventId@4@XZ 1000d560 f i CmEventProfiler.obj
 0001:0000c570       ?GetcomputeJointDrives@Articulations@ProfileEventId@Cm@physx@@SAABUPxProfileEventId@4@XZ 1000d570 f i CmEventProfiler.obj
 0001:0000c580       ?GetcorrelatePatches@Dynamics@ProfileEventId@Cm@physx@@SAABUPxProfileEventId@4@XZ 1000d580 f i CmEventProfiler.obj
 0001:0000c590       ?GetcreateBatchQuery@API@ProfileEventId@Cm@physx@@SAABUPxProfileEventId@4@XZ 1000d590 f i CmEventProfiler.obj
 0001:0000c5a0       ?GetcreateContactPatches@Dynamics@ProfileEventId@Cm@physx@@SAABUPxProfileEventId@4@XZ 1000d5a0 f i CmEventProfiler.obj
 0001:0000c5b0       ?GetcreateFinalize@Dynamics@ProfileEventId@Cm@physx@@SAABUPxProfileEventId@4@XZ 1000d5b0 f i CmEventProfiler.obj
 0001:0000c5c0       ?GetcreatePVDInstance@PVD@ProfileEventId@Cm@physx@@SAABUPxProfileEventId@4@XZ 1000d5c0 f i CmEventProfiler.obj
 0001:0000c5d0       ?GetcreatedNodes@IslandGen@ProfileEventId@Cm@physx@@SAABUPxProfileEventId@4@XZ 1000d5d0 f i CmEventProfiler.obj
 0001:0000c5e0       ?GetdeletedNodesEdges@IslandGen@ProfileEventId@Cm@physx@@SAABUPxProfileEventId@4@XZ 1000d5e0 f i CmEventProfiler.obj
 0001:0000c5f0       ?GetduplicateKinematicNodes@IslandGen@ProfileEventId@Cm@physx@@SAABUPxProfileEventId@4@XZ 1000d5f0 f i CmEventProfiler.obj
 0001:0000c600       ?Getdynamics@Basic@ProfileEventId@Cm@physx@@SAABUPxProfileEventId@4@XZ 1000d600 f i CmEventProfiler.obj
 0001:0000c610       ?GetemptyIslands@IslandGen@ProfileEventId@Cm@physx@@SAABUPxProfileEventId@4@XZ 1000d610 f i CmEventProfiler.obj
 0001:0000c620       ?GetendStep@ParticleSim@ProfileEventId@Cm@physx@@SAABUPxProfileEventId@4@XZ 1000d620 f i CmEventProfiler.obj
 0001:0000c630       ?Getexecute@BatchedSceneQuery@ProfileEventId@Cm@physx@@SAABUPxProfileEventId@4@XZ 1000d630 f i CmEventProfiler.obj
 0001:0000c640       ?GetfetchResults@Basic@ProfileEventId@Cm@physx@@SAABUPxProfileEventId@4@XZ 1000d640 f i CmEventProfiler.obj
 0001:0000c650       ?GetfetchResults@Sim@ProfileEventId@Cm@physx@@SAABUPxProfileEventId@4@XZ 1000d650 f i CmEventProfiler.obj
 0001:0000c660       ?GetfindAndReplaceWithLast@API@ProfileEventId@Cm@physx@@SAABUPxProfileEventId@4@XZ 1000d660 f i CmEventProfiler.obj
 0001:0000c670       ?Getfinish@BroadPhase@ProfileEventId@Cm@physx@@SAABUPxProfileEventId@4@XZ 1000d670 f i CmEventProfiler.obj
 0001:0000c680       ?GetfinishModifiablePairs@Sim@ProfileEventId@Cm@physx@@SAABUPxProfileEventId@4@XZ 1000d680 f i CmEventProfiler.obj
 0001:0000c690       ?GetfireCallBacksPostSync@Sim@ProfileEventId@Cm@physx@@SAABUPxProfileEventId@4@XZ 1000d690 f i CmEventProfiler.obj
 0001:0000c6a0       ?GetfireCallBacksPreSync@Sim@ProfileEventId@Cm@physx@@SAABUPxProfileEventId@4@XZ 1000d6a0 f i CmEventProfiler.obj
 0001:0000c6b0       ?GetfireCustomFilteringCallbacks@Sim@ProfileEventId@Cm@physx@@SAABUPxProfileEventId@4@XZ 1000d6b0 f i CmEventProfiler.obj
 0001:0000c6c0       ?GetflushQueryUpdates@API@ProfileEventId@Cm@physx@@SAABUPxProfileEventId@4@XZ 1000d6c0 f i CmEventProfiler.obj
 0001:0000c6d0       ?GetflushSimulation@API@ProfileEventId@Cm@physx@@SAABUPxProfileEventId@4@XZ 1000d6d0 f i CmEventProfiler.obj
 0001:0000c6e0       ?GetflushUpdates@SceneQuery@ProfileEventId@Cm@physx@@SAABUPxProfileEventId@4@XZ 1000d6e0 f i CmEventProfiler.obj
 0001:0000c6f0       ?GetforceDynamicTreeRebuild@API@ProfileEventId@Cm@physx@@SAABUPxProfileEventId@4@XZ 1000d6f0 f i CmEventProfiler.obj
 0001:0000c700       ?GetfreeBuffers@IslandGen@ProfileEventId@Cm@physx@@SAABUPxProfileEventId@4@XZ 1000d700 f i CmEventProfiler.obj
 0001:0000c710       ?GetgetFrictionPatch@Dynamics@ProfileEventId@Cm@physx@@SAABUPxProfileEventId@4@XZ 1000d710 f i CmEventProfiler.obj
 0001:0000c720       ?GetgetSimEvents@Sim@ProfileEventId@Cm@physx@@SAABUPxProfileEventId@4@XZ 1000d720 f i CmEventProfiler.obj
 0001:0000c730       ?GetgrowPatches@Dynamics@ProfileEventId@Cm@physx@@SAABUPxProfileEventId@4@XZ 1000d730 f i CmEventProfiler.obj
 0001:0000c740       ?Getintegrate@Articulations@ProfileEventId@Cm@physx@@SAABUPxProfileEventId@4@XZ 1000d740 f i CmEventProfiler.obj
 0001:0000c750       ?GetislandGen@Basic@ProfileEventId@Cm@physx@@SAABUPxProfileEventId@4@XZ 1000d750 f i CmEventProfiler.obj
 0001:0000c760       ?GetjoinedEdges@IslandGen@ProfileEventId@Cm@physx@@SAABUPxProfileEventId@4@XZ 1000d760 f i CmEventProfiler.obj
 0001:0000c770       ?GetjointLoads@Articulations@ProfileEventId@Cm@physx@@SAABUPxProfileEventId@4@XZ 1000d770 f i CmEventProfiler.obj
 0001:0000c780       ?GetnarrowPhase@Basic@ProfileEventId@Cm@physx@@SAABUPxProfileEventId@4@XZ 1000d780 f i CmEventProfiler.obj
 0001:0000c790       ?GetnarrowPhase@Sim@ProfileEventId@Cm@physx@@SAABUPxProfileEventId@4@XZ 1000d790 f i CmEventProfiler.obj
 0001:0000c7a0       ?GetnarrowPhaseMerge@Sim@ProfileEventId@Cm@physx@@SAABUPxProfileEventId@4@XZ 1000d7a0 f i CmEventProfiler.obj
 0001:0000c7b0       ?GetoriginShift@PVD@ProfileEventId@Cm@physx@@SAABUPxProfileEventId@4@XZ 1000d7b0 f i CmEventProfiler.obj
 0001:0000c7c0       ?GetoverlapMultiple@BatchedSceneQuery@ProfileEventId@Cm@physx@@SAABUPxProfileEventId@4@XZ 1000d7c0 f i CmEventProfiler.obj
 0001:0000c7d0       ?GetoverlapMultiple@SceneQuery@ProfileEventId@Cm@physx@@SAABUPxProfileEventId@4@XZ 1000d7d0 f i CmEventProfiler.obj
 0001:0000c7e0       ?GetparallelSolve@Dynamics@ProfileEventId@Cm@physx@@SAABUPxProfileEventId@4@XZ 1000d7e0 f i CmEventProfiler.obj
 0001:0000c7f0       ?GetpostIslandGenSecondPass@Sim@ProfileEventId@Cm@physx@@SAABUPxProfileEventId@4@XZ 1000d7f0 f i CmEventProfiler.obj
 0001:0000c800       ?GetpreIslandGen@Sim@ProfileEventId@Cm@physx@@SAABUPxProfileEventId@4@XZ 1000d800 f i CmEventProfiler.obj
 0001:0000c810       ?GetpreIslandGenSecondPass@Sim@ProfileEventId@Cm@physx@@SAABUPxProfileEventId@4@XZ 1000d810 f i CmEventProfiler.obj
 0001:0000c820       ?GetprepareDataBlock@Articulations@ProfileEventId@Cm@physx@@SAABUPxProfileEventId@4@XZ 1000d820 f i CmEventProfiler.obj
 0001:0000c830       ?GetprepareFsData@Articulations@ProfileEventId@Cm@physx@@SAABUPxProfileEventId@4@XZ 1000d830 f i CmEventProfiler.obj
 0001:0000c840       ?GetprocessBPResults@BroadPhase@ProfileEventId@Cm@physx@@SAABUPxProfileEventId@4@XZ 1000d840 f i CmEventProfiler.obj
 0001:0000c850       ?GetprocessLostOverlaps@Sim@ProfileEventId@Cm@physx@@SAABUPxProfileEventId@4@XZ 1000d850 f i CmEventProfiler.obj
 0001:0000c860       ?GetprocessNewOverlaps@Sim@ProfileEventId@Cm@physx@@SAABUPxProfileEventId@4@XZ 1000d860 f i CmEventProfiler.obj
 0001:0000c870       ?GetprocessSleepingIslands@IslandGen@ProfileEventId@Cm@physx@@SAABUPxProfileEventId@4@XZ 1000d870 f i CmEventProfiler.obj
 0001:0000c880       ?GetprocessTriggers@Sim@ProfileEventId@Cm@physx@@SAABUPxProfileEventId@4@XZ 1000d880 f i CmEventProfiler.obj
 0001:0000c890       ?GetprojectConstraints@Sim@ProfileEventId@Cm@physx@@SAABUPxProfileEventId@4@XZ 1000d890 f i CmEventProfiler.obj
 0001:0000c8a0       ?GetprojectContacts@Sim@ProfileEventId@Cm@physx@@SAABUPxProfileEventId@4@XZ 1000d8a0 f i CmEventProfiler.obj
 0001:0000c8b0       ?GetprojectionTreeUpdates@Sim@ProfileEventId@Cm@physx@@SAABUPxProfileEventId@4@XZ 1000d8b0 f i CmEventProfiler.obj
 0001:0000c8c0       ?GetpropagateDrivenInertia@Articulations@ProfileEventId@Cm@physx@@SAABUPxProfileEventId@4@XZ 1000d8c0 f i CmEventProfiler.obj
 0001:0000c8d0       ?GetpvdFrameStart@Basic@ProfileEventId@Cm@physx@@SAABUPxProfileEventId@4@XZ 1000d8d0 f i CmEventProfiler.obj
 0001:0000c8e0       ?GetqueueNarrowPhase@Sim@ProfileEventId@Cm@physx@@SAABUPxProfileEventId@4@XZ 1000d8e0 f i CmEventProfiler.obj
 0001:0000c8f0       ?GetraycastAny@BatchedSceneQuery@ProfileEventId@Cm@physx@@SAABUPxProfileEventId@4@XZ 1000d8f0 f i CmEventProfiler.obj
 0001:0000c900       ?GetraycastAny@SceneQuery@ProfileEventId@Cm@physx@@SAABUPxProfileEventId@4@XZ 1000d900 f i CmEventProfiler.obj
 0001:0000c910       ?GetraycastMultiple@BatchedSceneQuery@ProfileEventId@Cm@physx@@SAABUPxProfileEventId@4@XZ 1000d910 f i CmEventProfiler.obj
 0001:0000c920       ?GetraycastMultiple@SceneQuery@ProfileEventId@Cm@physx@@SAABUPxProfileEventId@4@XZ 1000d920 f i CmEventProfiler.obj
 0001:0000c930       ?GetraycastSingle@BatchedSceneQuery@ProfileEventId@Cm@physx@@SAABUPxProfileEventId@4@XZ 1000d930 f i CmEventProfiler.obj
 0001:0000c940       ?GetraycastSingle@SceneQuery@ProfileEventId@Cm@physx@@SAABUPxProfileEventId@4@XZ 1000d940 f i CmEventProfiler.obj
 0001:0000c950       ?GetreleaseBatchQuery@API@ProfileEventId@Cm@physx@@SAABUPxProfileEventId@4@XZ 1000d950 f i CmEventProfiler.obj
 0001:0000c960       ?GetreleasePVDInstance@PVD@ProfileEventId@Cm@physx@@SAABUPxProfileEventId@4@XZ 1000d960 f i CmEventProfiler.obj
 0001:0000c970       ?GetremoveActor@API@ProfileEventId@Cm@physx@@SAABUPxProfileEventId@4@XZ 1000d970 f i CmEventProfiler.obj
 0001:0000c980       ?GetremoveActorFromSim@API@ProfileEventId@Cm@physx@@SAABUPxProfileEventId@4@XZ 1000d980 f i CmEventProfiler.obj
 0001:0000c990       ?GetremoveActors@API@ProfileEventId@Cm@physx@@SAABUPxProfileEventId@4@XZ 1000d990 f i CmEventProfiler.obj
 0001:0000c9a0       ?GetremoveAggregate@API@ProfileEventId@Cm@physx@@SAABUPxProfileEventId@4@XZ 1000d9a0 f i CmEventProfiler.obj
 0001:0000c9b0       ?GetremoveArticulation@API@ProfileEventId@Cm@physx@@SAABUPxProfileEventId@4@XZ 1000d9b0 f i CmEventProfiler.obj
 0001:0000c9c0       ?GetremoveCloth@API@ProfileEventId@Cm@physx@@SAABUPxProfileEventId@4@XZ 1000d9c0 f i CmEventProfiler.obj
 0001:0000c9d0       ?GetremoveParticleFluid@API@ProfileEventId@Cm@physx@@SAABUPxProfileEventId@4@XZ 1000d9d0 f i CmEventProfiler.obj
 0001:0000c9e0       ?GetremoveParticleSystem@API@ProfileEventId@Cm@physx@@SAABUPxProfileEventId@4@XZ 1000d9e0 f i CmEventProfiler.obj
 0001:0000c9f0       ?GetremoveShapesFromSQ@API@ProfileEventId@Cm@physx@@SAABUPxProfileEventId@4@XZ 1000d9f0 f i CmEventProfiler.obj
 0001:0000ca00       ?GetremoveShapesFromSim@API@ProfileEventId@Cm@physx@@SAABUPxProfileEventId@4@XZ 1000da00 f i CmEventProfiler.obj
 0001:0000ca10       ?GetresetDependencies@Sim@ProfileEventId@Cm@physx@@SAABUPxProfileEventId@4@XZ 1000da10 f i CmEventProfiler.obj
 0001:0000ca20       ?GetresizeArrays@IslandGen@ProfileEventId@Cm@physx@@SAABUPxProfileEventId@4@XZ 1000da20 f i CmEventProfiler.obj
 0001:0000ca30       ?GetresizeForKinematics@IslandGen@ProfileEventId@Cm@physx@@SAABUPxProfileEventId@4@XZ 1000da30 f i CmEventProfiler.obj
 0001:0000ca40       ?GetrigidBodySolver@Basic@ProfileEventId@Cm@physx@@SAABUPxProfileEventId@4@XZ 1000da40 f i CmEventProfiler.obj
 0001:0000ca50       ?GetsceneFinalization@Sim@ProfileEventId@Cm@physx@@SAABUPxProfileEventId@4@XZ 1000da50 f i CmEventProfiler.obj
 0001:0000ca60       ?GetsceneUpdate@PVD@ProfileEventId@Cm@physx@@SAABUPxProfileEventId@4@XZ 1000da60 f i CmEventProfiler.obj
 0001:0000ca70       ?GetsendPVDArrays@PVD@ProfileEventId@Cm@physx@@SAABUPxProfileEventId@4@XZ 1000da70 f i CmEventProfiler.obj
 0001:0000ca80       ?GetsetupConstraints@Articulations@ProfileEventId@Cm@physx@@SAABUPxProfileEventId@4@XZ 1000da80 f i CmEventProfiler.obj
 0001:0000ca90       ?GetsetupDrives@Articulations@ProfileEventId@Cm@physx@@SAABUPxProfileEventId@4@XZ 1000da90 f i CmEventProfiler.obj
 0001:0000caa0       ?GetsetupFinalize@Dynamics@ProfileEventId@Cm@physx@@SAABUPxProfileEventId@4@XZ 1000daa0 f i CmEventProfiler.obj
 0001:0000cab0       ?GetsetupProject@Articulations@ProfileEventId@Cm@physx@@SAABUPxProfileEventId@4@XZ 1000dab0 f i CmEventProfiler.obj
 0001:0000cac0       ?GetshapesUpdateProcessing@ParticleSim@ProfileEventId@Cm@physx@@SAABUPxProfileEventId@4@XZ 1000dac0 f i CmEventProfiler.obj
 0001:0000cad0       ?GetshiftOrigin@API@ProfileEventId@Cm@physx@@SAABUPxProfileEventId@4@XZ 1000dad0 f i CmEventProfiler.obj
 0001:0000cae0       ?GetsimAddShapeToBroadPhase@API@ProfileEventId@Cm@physx@@SAABUPxProfileEventId@4@XZ 1000dae0 f i CmEventProfiler.obj
 0001:0000caf0       ?Getsimulate@Basic@ProfileEventId@Cm@physx@@SAABUPxProfileEventId@4@XZ 1000daf0 f i CmEventProfiler.obj
 0001:0000cb00       ?GetsolveGroup@Dynamics@ProfileEventId@Cm@physx@@SAABUPxProfileEventId@4@XZ 1000db00 f i CmEventProfiler.obj
 0001:0000cb10       ?GetsolveQueueTasks@Sim@ProfileEventId@Cm@physx@@SAABUPxProfileEventId@4@XZ 1000db10 f i CmEventProfiler.obj
 0001:0000cb20       ?Getsolver@Dynamics@ProfileEventId@Cm@physx@@SAABUPxProfileEventId@4@XZ 1000db20 f i CmEventProfiler.obj
 0001:0000cb30       ?GetsolverMergeResults@Dynamics@ProfileEventId@Cm@physx@@SAABUPxProfileEventId@4@XZ 1000db30 f i CmEventProfiler.obj
 0001:0000cb40       ?GetsolverQueueTasks@Dynamics@ProfileEventId@Cm@physx@@SAABUPxProfileEventId@4@XZ 1000db40 f i CmEventProfiler.obj
 0001:0000cb50       ?GetstartStep@ParticleSim@ProfileEventId@Cm@physx@@SAABUPxProfileEventId@4@XZ 1000db50 f i CmEventProfiler.obj
 0001:0000cb60       ?GetstepSetupCollide@Sim@ProfileEventId@Cm@physx@@SAABUPxProfileEventId@4@XZ 1000db60 f i CmEventProfiler.obj
 0001:0000cb70       ?GetstepSetupSimulate@Sim@ProfileEventId@Cm@physx@@SAABUPxProfileEventId@4@XZ 1000db70 f i CmEventProfiler.obj
 0001:0000cb80       ?GetstepSetupSolve@Sim@ProfileEventId@Cm@physx@@SAABUPxProfileEventId@4@XZ 1000db80 f i CmEventProfiler.obj
 0001:0000cb90       ?GetsweepAny@SceneQuery@ProfileEventId@Cm@physx@@SAABUPxProfileEventId@4@XZ 1000db90 f i CmEventProfiler.obj
 0001:0000cba0       ?GetsweepAnyList@SceneQuery@ProfileEventId@Cm@physx@@SAABUPxProfileEventId@4@XZ 1000dba0 f i CmEventProfiler.obj
 0001:0000cbb0       ?GetsweepMultiple@BatchedSceneQuery@ProfileEventId@Cm@physx@@SAABUPxProfileEventId@4@XZ 1000dbb0 f i CmEventProfiler.obj
 0001:0000cbc0       ?GetsweepMultiple@SceneQuery@ProfileEventId@Cm@physx@@SAABUPxProfileEventId@4@XZ 1000dbc0 f i CmEventProfiler.obj
 0001:0000cbd0       ?GetsweepMultipleList@SceneQuery@ProfileEventId@Cm@physx@@SAABUPxProfileEventId@4@XZ 1000dbd0 f i CmEventProfiler.obj
 0001:0000cbe0       ?GetsweepSingle@BatchedSceneQuery@ProfileEventId@Cm@physx@@SAABUPxProfileEventId@4@XZ 1000dbe0 f i CmEventProfiler.obj
 0001:0000cbf0       ?GetsweepSingle@SceneQuery@ProfileEventId@Cm@physx@@SAABUPxProfileEventId@4@XZ 1000dbf0 f i CmEventProfiler.obj
 0001:0000cc00       ?GetsweepSingleList@SceneQuery@ProfileEventId@Cm@physx@@SAABUPxProfileEventId@4@XZ 1000dc00 f i CmEventProfiler.obj
 0001:0000cc10       ?GetsyncBodiesAfterIntegration@Sim@ProfileEventId@Cm@physx@@SAABUPxProfileEventId@4@XZ 1000dc10 f i CmEventProfiler.obj
 0001:0000cc20       ?GetsyncBodiesAfterSolver@Sim@ProfileEventId@Cm@physx@@SAABUPxProfileEventId@4@XZ 1000dc20 f i CmEventProfiler.obj
 0001:0000cc30       ?GetsyncState@Sim@ProfileEventId@Cm@physx@@SAABUPxProfileEventId@4@XZ 1000dc30 f i CmEventProfiler.obj
 0001:0000cc40       ?GettaskFrameworkSetup@Sim@ProfileEventId@Cm@physx@@SAABUPxProfileEventId@4@XZ 1000dc40 f i CmEventProfiler.obj
 0001:0000cc50       ?GetupdateAggAABBs@BroadPhase@ProfileEventId@Cm@physx@@SAABUPxProfileEventId@4@XZ 1000dc50 f i CmEventProfiler.obj
 0001:0000cc60       ?GetupdateAggLocalSpaceBounds@BroadPhase@ProfileEventId@Cm@physx@@SAABUPxProfileEventId@4@XZ 1000dc60 f i CmEventProfiler.obj
 0001:0000cc70       ?GetupdateBroadphase@BroadPhase@ProfileEventId@Cm@physx@@SAABUPxProfileEventId@4@XZ 1000dc70 f i CmEventProfiler.obj
 0001:0000cc80       ?GetupdateCCDMultiPass@Sim@ProfileEventId@Cm@physx@@SAABUPxProfileEventId@4@XZ 1000dc80 f i CmEventProfiler.obj
 0001:0000cc90       ?GetupdateCCDSinglePass@Sim@ProfileEventId@Cm@physx@@SAABUPxProfileEventId@4@XZ 1000dc90 f i CmEventProfiler.obj
 0001:0000cca0       ?GetupdateCloths@PVD@ProfileEventId@Cm@physx@@SAABUPxProfileEventId@4@XZ 1000dca0 f i CmEventProfiler.obj
 0001:0000ccb0       ?GetupdateCollision@ParticleSim@ProfileEventId@Cm@physx@@SAABUPxProfileEventId@4@XZ 1000dcb0 f i CmEventProfiler.obj
 0001:0000ccc0       ?GetupdateContacts@PVD@ProfileEventId@Cm@physx@@SAABUPxProfileEventId@4@XZ 1000dcc0 f i CmEventProfiler.obj
 0001:0000ccd0       ?GetupdateDirtyShaders@Sim@ProfileEventId@Cm@physx@@SAABUPxProfileEventId@4@XZ 1000dcd0 f i CmEventProfiler.obj
 0001:0000cce0       ?GetupdateDynamicBodies@PVD@ProfileEventId@Cm@physx@@SAABUPxProfileEventId@4@XZ 1000dce0 f i CmEventProfiler.obj
 0001:0000ccf0       ?GetupdateForces@Sim@ProfileEventId@Cm@physx@@SAABUPxProfileEventId@4@XZ 1000dcf0 f i CmEventProfiler.obj
 0001:0000cd00       ?GetupdateIslands@Sim@ProfileEventId@Cm@physx@@SAABUPxProfileEventId@4@XZ 1000dd00 f i CmEventProfiler.obj
 0001:0000cd10       ?GetupdateIslandsSecondPass@Sim@ProfileEventId@Cm@physx@@SAABUPxProfileEventId@4@XZ 1000dd10 f i CmEventProfiler.obj
 0001:0000cd20       ?GetupdateJoints@PVD@ProfileEventId@Cm@physx@@SAABUPxProfileEventId@4@XZ 1000dd20 f i CmEventProfiler.obj
 0001:0000cd30       ?GetupdateKinematics@Dynamics@ProfileEventId@Cm@physx@@SAABUPxProfileEventId@4@XZ 1000dd30 f i CmEventProfiler.obj
 0001:0000cd40       ?GetupdateLazyAggShapeAABBs@BroadPhase@ProfileEventId@Cm@physx@@SAABUPxProfileEventId@4@XZ 1000dd40 f i CmEventProfiler.obj
 0001:0000cd50       ?GetupdatePVDProperties@PVD@ProfileEventId@Cm@physx@@SAABUPxProfileEventId@4@XZ 1000dd50 f i CmEventProfiler.obj
 0001:0000cd60       ?GetupdatePariclesAndFluids@PVD@ProfileEventId@Cm@physx@@SAABUPxProfileEventId@4@XZ 1000dd60 f i CmEventProfiler.obj
 0001:0000cd70       ?GetupdatePositions@Dynamics@ProfileEventId@Cm@physx@@SAABUPxProfileEventId@4@XZ 1000dd70 f i CmEventProfiler.obj
 0001:0000cd80       ?GetupdatePruningTrees@Sim@ProfileEventId@Cm@physx@@SAABUPxProfileEventId@4@XZ 1000dd80 f i CmEventProfiler.obj
 0001:0000cd90       ?GetupdateShapeAABBs@BroadPhase@ProfileEventId@Cm@physx@@SAABUPxProfileEventId@4@XZ 1000dd90 f i CmEventProfiler.obj
 0001:0000cda0       ?GetupdateSleeping@PVD@ProfileEventId@Cm@physx@@SAABUPxProfileEventId@4@XZ 1000dda0 f i CmEventProfiler.obj
 0001:0000cdb0       ?GetupdateVelocities@Dynamics@ProfileEventId@Cm@physx@@SAABUPxProfileEventId@4@XZ 1000ddb0 f i CmEventProfiler.obj
 0001:0000cdc0       ?GetvisualizeEndStep@Sim@ProfileEventId@Cm@physx@@SAABUPxProfileEventId@4@XZ 1000ddc0 f i CmEventProfiler.obj
 0001:0000cdd0       ?GetvisualizeStartStep@Sim@ProfileEventId@Cm@physx@@SAABUPxProfileEventId@4@XZ 1000ddd0 f i CmEventProfiler.obj
 0001:0000cde0       ?dumpFreeListAllocatorState@Cm@physx@@YAXAAVFreeListAllocator@12@@Z 1000dde0 f   CmFreeListAllocator.obj
 0001:0000cec0       ??0FreeListAllocator@Cm@physx@@QAE@AAVPxAllocatorCallback@2@@Z 1000dec0 f   CmFreeListAllocator.obj
 0001:0000cf50       ??1FreeListAllocator@Cm@physx@@UAE@XZ 1000df50 f   CmFreeListAllocator.obj
 0001:0000cfd0       ?getQWSize@FreeListAllocator@Cm@physx@@SAII@Z 1000dfd0 f   CmFreeListAllocator.obj
 0001:0000cff0       ?allocate@FreeListAllocator@Cm@physx@@UAEPAXIPBD0H@Z 1000dff0 f   CmFreeListAllocator.obj
 0001:0000d070       ?deallocate@FreeListAllocator@Cm@physx@@UAEXPAX@Z 1000e070 f   CmFreeListAllocator.obj
 0001:0000d0c0       ?findBestFit@FreeListAllocator@Cm@physx@@AAEPAVChunk@23@IAAI@Z 1000e0c0 f   CmFreeListAllocator.obj
 0001:0000d140       ?pushOnFreeList@FreeListAllocator@Cm@physx@@AAEXPAVChunk@23@I@Z 1000e140 f   CmFreeListAllocator.obj
 0001:0000d1a0       ?popFromFreeList@FreeListAllocator@Cm@physx@@AAEPAVChunk@23@I@Z 1000e1a0 f   CmFreeListAllocator.obj
 0001:0000d220       ?unlinkFromFreeList@FreeListAllocator@Cm@physx@@AAEXPAVChunk@23@@Z 1000e220 f   CmFreeListAllocator.obj
 0001:0000d2a0       ?allocChunk@FreeListAllocator@Cm@physx@@AAEPAXI@Z 1000e2a0 f   CmFreeListAllocator.obj
 0001:0000d390       ?freeChunk@FreeListAllocator@Cm@physx@@AAEXPAVChunk@23@@Z 1000e390 f   CmFreeListAllocator.obj
 0001:0000d530       ?directAlloc@FreeListAllocator@Cm@physx@@AAEPAXI@Z 1000e530 f   CmFreeListAllocator.obj
 0001:0000d560       ?directFree@FreeListAllocator@Cm@physx@@AAEXPAX@Z 1000e560 f   CmFreeListAllocator.obj
 0001:0000d580       ?createFreeListAllocator@Cm@physx@@YAPAVFreeListAllocator@12@AAVPxAllocatorCallback@2@@Z 1000e580 f   CmFreeListAllocator.obj
 0001:0000d5c0       ?destroyFreeListAllocator@Cm@physx@@YAXAAVFreeListAllocator@12@@Z 1000e5c0 f   CmFreeListAllocator.obj
 0001:0000d5e0       ??$addAddr@VBlock@Cm@physx@@@Cm@physx@@YAPAVBlock@01@PAV201@H@Z 1000e5e0 f i CmFreeListAllocator.obj
 0001:0000d5f0       ??$addAddr@VChunk@Cm@physx@@@Cm@physx@@YAPAVChunk@01@PAV201@H@Z 1000e5f0 f i CmFreeListAllocator.obj
 0001:0000d600       ??$addAddr@X@Cm@physx@@YAPAXPAXH@Z 1000e600 f i CmFreeListAllocator.obj
 0001:0000d610       ??_EFreeListAllocator@Cm@physx@@UAEPAXI@Z 1000e610 f i CmFreeListAllocator.obj
 0001:0000d610       ??_GFreeListAllocator@Cm@physx@@UAEPAXI@Z 1000e610 f i CmFreeListAllocator.obj
 0001:0000d640       ?split@Chunk@Cm@physx@@QAEPAV123@I@Z 1000e640 f i CmFreeListAllocator.obj
 0001:0000d6b0       _printf                    1000e6b0 f i CmFreeListAllocator.obj
 0001:0000d6e0       ?PxShortestRotation@physx@@YA?AVPxQuat@1@ABVPxVec3@1@0@Z 1000e6e0 f   CmMathUtils.obj
 0001:0000d860       ?PxTransformFromPlaneEquation@physx@@YA?AVPxTransform@1@ABVPxPlane@1@@Z 1000e860 f   CmMathUtils.obj
 0001:0000da10       ?PxTransformFromSegment@physx@@YA?AVPxTransform@1@ABVPxVec3@1@0PAM@Z 1000ea10 f   CmMathUtils.obj
 0001:0000db50       ?PxDiagonalize@physx@@YA?AVPxVec3@1@ABVPxMat33@1@AAVPxQuat@1@@Z 1000eb50 f   CmMathUtils.obj
 0001:0000e320       ??0PtrTable@Cm@physx@@QAE@XZ 1000f320 f   CmPtrTable.obj
 0001:0000e330       ??1PtrTable@Cm@physx@@QAE@XZ 1000f330 f   CmPtrTable.obj
 0001:0000e340       ?add@PtrTable@Cm@physx@@QAEXPAXAAVPtrTableStorageManager@23@@Z 1000f340 f   CmPtrTable.obj
 0001:0000e3f0       ?replaceWithLast@PtrTable@Cm@physx@@QAEXIAAVPtrTableStorageManager@23@@Z 1000f3f0 f   CmPtrTable.obj
 0001:0000e4c0       ?clear@PtrTable@Cm@physx@@QAEXAAVPtrTableStorageManager@23@@Z 1000f4c0 f   CmPtrTable.obj
 0001:0000e530       ?find@PtrTable@Cm@physx@@QBEIPBX@Z 1000f530 f   CmPtrTable.obj
 0001:0000e570       ?exportExtraData@PtrTable@Cm@physx@@QAEXAAVPxSerializationContext@3@@Z 1000f570 f   CmPtrTable.obj
 0001:0000e5b0       ?importExtraData@PtrTable@Cm@physx@@QAEXAAVPxDeserializationContext@3@@Z 1000f5b0 f   CmPtrTable.obj
 0001:0000e5e0       ?getBinaryMetaData@PtrTable@Cm@physx@@SAXAAVPxOutputStream@3@@Z 1000f5e0 f   CmPtrTable.obj
 0001:0000e790       ?realloc@PtrTable@Cm@physx@@AAEXIIAAVPtrTableStorageManager@23@@Z 1000f790 f   CmPtrTable.obj
 0001:0000e800       ??0PtrTable@Cm@physx@@QAE@ABW4PxEMPTY@2@@Z 1000f800 f i CmPtrTable.obj
 0001:0000e820       ??4PtrTable@Cm@physx@@QAEAAU012@ABU012@@Z 1000f820 f i CmPtrTable.obj
 0001:0000e840       ?getCount@PtrTable@Cm@physx@@QBEIXZ 1000f840 f i CmPtrTable.obj
 0001:0000e850       ?getPtrs@PtrTable@Cm@physx@@QAEPAPAXXZ 1000f850 f i CmPtrTable.obj
 0001:0000e860       ?getPtrs@PtrTable@Cm@physx@@QBEPBQAXXZ 1000f860 f i CmPtrTable.obj
 0001:0000e870       ??6RenderOutput@Cm@physx@@QAEAAV012@W4Primitive@012@@Z 1000f870 f   CmRenderOutput.obj
 0001:0000e890       ??6RenderOutput@Cm@physx@@QAEAAV012@I@Z 1000f890 f   CmRenderOutput.obj
 0001:0000e8a0       ??6RenderOutput@Cm@physx@@QAEAAV012@ABVPxMat44@2@@Z 1000f8a0 f   CmRenderOutput.obj
 0001:0000e8c0       ??6RenderOutput@Cm@physx@@QAEAAV012@ABVPxTransform@2@@Z 1000f8c0 f   CmRenderOutput.obj
 0001:0000e8f0       ??6RenderOutput@Cm@physx@@QAEAAV012@VPxVec3@2@@Z 1000f8f0 f   CmRenderOutput.obj
 0001:0000ec60       ??6RenderOutput@Cm@physx@@QAEAAV012@ABUDebugText@12@@Z 1000fc60 f   CmRenderOutput.obj
 0001:0000ee50       ?outputCapsule@RenderOutput@Cm@physx@@QAEAAV123@MMABVMatrix34@23@@Z 1000fe50 f   CmRenderOutput.obj
 0001:0000fb10       ??0DebugText@Cm@physx@@QAA@ABVPxVec3@2@MPBDZZ 10010b10 f   CmRenderOutput.obj
 0001:0000fb80       ??6Cm@physx@@YAAAVRenderOutput@01@AAV201@ABUDebugBox@01@@Z 10010b80 f   CmRenderOutput.obj
 0001:0000ffd0       ??6Cm@physx@@YAAAVRenderOutput@01@AAV201@ABUDebugArrow@01@@Z 10010fd0 f   CmRenderOutput.obj
 0001:00010390       ??6Cm@physx@@YAAAVRenderOutput@01@AAV201@ABUDebugBasis@01@@Z 10011390 f   CmRenderOutput.obj
 0001:00010490       ??6Cm@physx@@YAAAVRenderOutput@01@AAV201@ABUDebugCircle@01@@Z 10011490 f   CmRenderOutput.obj
 0001:00010580       ??6Cm@physx@@YAAAVRenderOutput@01@AAV201@ABUDebugArc@01@@Z 10011580 f   CmRenderOutput.obj
 0001:00010680       ??0DebugText@Cm@physx@@QAE@$$QAU012@@Z 10011680 f i CmRenderOutput.obj
 0001:000106d0       ??0DebugText@Cm@physx@@QAE@ABU012@@Z 100116d0 f i CmRenderOutput.obj
 0001:00010720       ??0PxDebugLine@physx@@QAE@ABU01@@Z 10011720 f i CmRenderOutput.obj
 0001:00010760       ??0PxDebugLine@physx@@QAE@ABVPxVec3@1@0ABI@Z 10011760 f i CmRenderOutput.obj
 0001:000107b0       ??0PxDebugTriangle@physx@@QAE@ABU01@@Z 100117b0 f i CmRenderOutput.obj
 0001:00010810       ??0PxDebugTriangle@physx@@QAE@ABVPxVec3@1@00ABI@Z 10011810 f i CmRenderOutput.obj
 0001:00010870       ??0PxMat44@physx@@QAE@ABV01@@Z 10011870 f i CmRenderOutput.obj
 0001:000108e0       ??0PxMat44@physx@@QAE@ABVPxTransform@1@@Z 100118e0 f i CmRenderOutput.obj
 0001:00010a70       ??0PxMat44@physx@@QAE@W4PxIDENTITY@1@@Z 10011a70 f i CmRenderOutput.obj
 0001:00010af0       ??0RenderOutput@Cm@physx@@QAE@AAVRenderBuffer@12@@Z 10011af0 f i CmRenderOutput.obj
 0001:00010b50       ??0RenderOutput@Cm@physx@@QAE@ABV012@@Z 10011b50 f i CmRenderOutput.obj
 0001:00010bb0       ??4DebugText@Cm@physx@@QAEAAU012@$$QAU012@@Z 10011bb0 f i CmRenderOutput.obj
 0001:00010c10       ??4DebugText@Cm@physx@@QAEAAU012@ABU012@@Z 10011c10 f i CmRenderOutput.obj
 0001:00010c70       ??4PxMat44@physx@@QAEABV01@ABV01@@Z 10011c70 f i CmRenderOutput.obj
 0001:00010ce0       ?allocate@?$Array@UPxDebugLine@physx@@V?$ReflectionAllocator@UPxDebugLine@physx@@@shdfnd@2@@shdfnd@physx@@IAEPAUPxDebugLine@3@I@Z 10011ce0 f i CmRenderOutput.obj
 0001:00010d50       ?allocate@?$Array@UPxDebugPoint@physx@@V?$ReflectionAllocator@UPxDebugPoint@physx@@@shdfnd@2@@shdfnd@physx@@IAEPAUPxDebugPoint@3@I@Z 10011d50 f i CmRenderOutput.obj
 0001:00010dc0       ?allocate@?$Array@UPxDebugText@physx@@V?$ReflectionAllocator@UPxDebugText@physx@@@shdfnd@2@@shdfnd@physx@@IAEPAUPxDebugText@3@I@Z 10011dc0 f i CmRenderOutput.obj
 0001:00010e30       ?allocate@?$Array@UPxDebugTriangle@physx@@V?$ReflectionAllocator@UPxDebugTriangle@physx@@@shdfnd@2@@shdfnd@physx@@IAEPAUPxDebugTriangle@3@I@Z 10011e30 f i CmRenderOutput.obj
 0001:00010ea0       ?copy@?$Array@UPxDebugLine@physx@@V?$ReflectionAllocator@UPxDebugLine@physx@@@shdfnd@2@@shdfnd@physx@@KAXPAUPxDebugLine@3@0PBU43@@Z 10011ea0 f i CmRenderOutput.obj
 0001:00010f10       ?copy@?$Array@UPxDebugPoint@physx@@V?$ReflectionAllocator@UPxDebugPoint@physx@@@shdfnd@2@@shdfnd@physx@@KAXPAUPxDebugPoint@3@0PBU43@@Z 10011f10 f i CmRenderOutput.obj
 0001:00010f60       ?copy@?$Array@UPxDebugText@physx@@V?$ReflectionAllocator@UPxDebugText@physx@@@shdfnd@2@@shdfnd@physx@@KAXPAUPxDebugText@3@0PBU43@@Z 10011f60 f i CmRenderOutput.obj
 0001:00010fc0       ?copy@?$Array@UPxDebugTriangle@physx@@V?$ReflectionAllocator@UPxDebugTriangle@physx@@@shdfnd@2@@shdfnd@physx@@KAXPAUPxDebugTriangle@3@0PBU43@@Z 10011fc0 f i CmRenderOutput.obj
 0001:00011040       ?growAndPushBack@?$Array@DV?$ReflectionAllocator@D@shdfnd@physx@@@shdfnd@physx@@IAEAADABD@Z 10012040 f i CmRenderOutput.obj
 0001:00011110       ?growAndPushBack@?$Array@UPxDebugLine@physx@@V?$ReflectionAllocator@UPxDebugLine@physx@@@shdfnd@2@@shdfnd@physx@@IAEAAUPxDebugLine@3@ABU43@@Z 10012110 f i CmRenderOutput.obj
 0001:000111c0       ?growAndPushBack@?$Array@UPxDebugPoint@physx@@V?$ReflectionAllocator@UPxDebugPoint@physx@@@shdfnd@2@@shdfnd@physx@@IAEAAUPxDebugPoint@3@ABU43@@Z 100121c0 f i CmRenderOutput.obj
 0001:00011260       ?growAndPushBack@?$Array@UPxDebugText@physx@@V?$ReflectionAllocator@UPxDebugText@physx@@@shdfnd@2@@shdfnd@physx@@IAEAAUPxDebugText@3@ABU43@@Z 10012260 f i CmRenderOutput.obj
 0001:00011310       ?growAndPushBack@?$Array@UPxDebugTriangle@physx@@V?$ReflectionAllocator@UPxDebugTriangle@physx@@@shdfnd@2@@shdfnd@physx@@IAEAAUPxDebugTriangle@3@ABU43@@Z 10012310 f i CmRenderOutput.obj
 0001:000113e0       ?outputSegment@RenderOutput@Cm@physx@@QAEXABVPxVec3@3@0@Z 100123e0 f i CmRenderOutput.obj
 0001:00011490       ?recreate@?$Array@DV?$ReflectionAllocator@D@shdfnd@physx@@@shdfnd@physx@@IAEXI@Z 10012490 f i CmRenderOutput.obj
 0001:00011530       ?recreate@?$Array@UPxDebugLine@physx@@V?$ReflectionAllocator@UPxDebugLine@physx@@@shdfnd@2@@shdfnd@physx@@IAEXI@Z 10012530 f i CmRenderOutput.obj
 0001:00011590       ?reserveSegments@RenderOutput@Cm@physx@@QAEPAUPxDebugLine@3@I@Z 10012590 f i CmRenderOutput.obj
 0001:000115c0       ?resizeUninitialized@?$Array@UPxDebugLine@physx@@V?$ReflectionAllocator@UPxDebugLine@physx@@@shdfnd@2@@shdfnd@physx@@QAEXI@Z 100125c0 f i CmRenderOutput.obj
 0001:000115f0       ?visualizeJointFrames@Cm@physx@@YAXAAVRenderOutput@12@MABVPxTransform@2@1@Z 100125f0 f   CmVisualization.obj
 0001:00011690       ?visualizeLinearLimit@Cm@physx@@YAXAAVRenderOutput@12@MABVPxTransform@2@1M_N@Z 10012690 f   CmVisualization.obj
 0001:00011900       ?visualizeAngularLimit@Cm@physx@@YAXAAVRenderOutput@12@MABVPxTransform@2@MM_N@Z 10012900 f   CmVisualization.obj
 0001:00011aa0       ?visualizeLimitCone@Cm@physx@@YAXAAVRenderOutput@12@MABVPxTransform@2@MM_N@Z 10012aa0 f   CmVisualization.obj
 0001:00011d20       ?visualizeDoubleCone@Cm@physx@@YAXAAVRenderOutput@12@MABVPxTransform@2@M_N@Z 10012d20 f   CmVisualization.obj
 0001:00011f80       ?contactCapsuleMesh@Gu@physx@@YA_NABVGeometryUnion@12@0ABVPxTransform@2@1ABMAAUCache@12@AAVContactBuffer@12@@Z 10012f80 f   GuContactCapsuleMesh.obj
 0001:000123d0       ?contactCapsuleHeightfield@Gu@physx@@YA_NABVGeometryUnion@12@0ABVPxTransform@2@1ABMAAUCache@12@AAVContactBuffer@12@@Z 100133d0 f   GuContactCapsuleMesh.obj
 0001:00012770       ??0Box@Gu@physx@@QAE@ABV012@@Z 10013770 f i GuContactCapsuleMesh.obj
 0001:000127e0       ??0Box@Gu@physx@@QAE@ABVPxVec3@2@0ABVPxMat33@2@@Z 100137e0 f i GuContactCapsuleMesh.obj
 0001:00012850       ??0Box@Gu@physx@@QAE@XZ    10013850 f i GuContactCapsuleMesh.obj
 0001:00012a60       ??0FastVertex2ShapeScaling@Cm@physx@@QAE@XZ 10013a60 f i GuContactCapsuleMesh.obj
 0001:00012ae0       ??0GeometryUnion@Gu@physx@@QAE@ABW4PxEMPTY@2@@Z 10013ae0 f i GuContactCapsuleMesh.obj
 0001:00012af0       ??0GeometryUnion@Gu@physx@@QAE@XZ 10013af0 f i GuContactCapsuleMesh.obj
 0001:00012b00       ??0HeightFieldData@Gu@physx@@QAE@$$QAU012@@Z 10013b00 f i GuContactCapsuleMesh.obj
 0001:00012b90       ??0HeightFieldData@Gu@physx@@QAE@ABU012@@Z 10013b90 f i GuContactCapsuleMesh.obj
 0001:00012c20       ??0HeightFieldData@Gu@physx@@QAE@ABW4PxEMPTY@2@@Z 10013c20 f i GuContactCapsuleMesh.obj
 0001:00012c30       ??0HeightFieldData@Gu@physx@@QAE@XZ 10013c30 f i GuContactCapsuleMesh.obj
 0001:00012c40       ??0HeightFieldUtil@Gu@physx@@QAE@ABVPxHeightFieldGeometry@2@@Z 10013c40 f i GuContactCapsuleMesh.obj
 0001:00012c80       ??0HeightFieldUtil@Gu@physx@@QAE@ABVPxHeightFieldGeometry@2@ABVHeightField@12@@Z 10013c80 f i GuContactCapsuleMesh.obj
 0001:00012cc0       ??0HeightFieldUtil@Gu@physx@@QAE@XZ 10013cc0 f i GuContactCapsuleMesh.obj
 0001:00012cd0       ??0MaterialIndicesStruct@physx@@QAE@ABW4PxEMPTY@1@@Z 10013cd0 f i GuContactCapsuleMesh.obj
 0001:00012ce0       ??0MaterialIndicesStruct@physx@@QAE@XZ 10013ce0 f i GuContactCapsuleMesh.obj
 0001:00012cf0       ??0PxQuat@physx@@QAE@ABVPxMat33@1@@Z 10013cf0 f i GuContactCapsuleMesh.obj
 0001:00012f20       ??0PxVec3@physx@@QAE@XZ    10013f20 f i GuContactCapsuleMesh.obj
 0001:00012f30       ??0RTree@Gu@physx@@QAE@ABU012@@Z 10013f30 f i GuContactCapsuleMesh.obj
 0001:00012fd0       ??0RTreeMidphase@Gu@physx@@QAE@ABV012@@Z 10013fd0 f i GuContactCapsuleMesh.obj
 0001:00013000       ??0RTreeMidphase@Gu@physx@@QAE@ABW4PxEMPTY@2@@Z 10014000 f i GuContactCapsuleMesh.obj
 0001:00013030       ??1?$EntityReport@I@Gu@physx@@UAE@XZ 10014030 f i GuContactCapsuleMesh.obj
 0001:00013040       ??1?$MeshHitCallback@UPxRaycastHit@physx@@@Gu@physx@@UAE@XZ 10014040 f i GuContactCapsuleMesh.obj
 0001:00013050       ??1Box@Gu@physx@@QAE@XZ    10014050 f i GuContactCapsuleMesh.obj
 0001:00013060       ??1MaterialIndicesStruct@physx@@QAE@XZ 10014060 f i GuContactCapsuleMesh.obj
 0001:00013070       ??1PxBase@physx@@MAE@XZ    10014070 f i GuContactCapsuleMesh.obj
 0001:00013080       ??1PxHeightField@physx@@MAE@XZ 10014080 f i GuContactCapsuleMesh.obj
 0001:00013090       ??1PxTriangleMesh@physx@@MAE@XZ 10014090 f i GuContactCapsuleMesh.obj
 0001:000130a0       ??1RTree@Gu@physx@@QAE@XZ  100140a0 f i GuContactCapsuleMesh.obj
 0001:000130b0       ??4Box@Gu@physx@@QAEABV012@ABV012@@Z 100140b0 f i GuContactCapsuleMesh.obj
 0001:00013120       ??4GeometryUnion@Gu@physx@@QAEAAV012@$$QAV012@@Z 10014120 f i GuContactCapsuleMesh.obj
 0001:00013150       ??4GeometryUnion@Gu@physx@@QAEAAV012@ABV012@@Z 10014150 f i GuContactCapsuleMesh.obj
 0001:00013180       ??4HeightFieldData@Gu@physx@@QAEAAU012@$$QAU012@@Z 10014180 f i GuContactCapsuleMesh.obj
 0001:00013210       ??4HeightFieldData@Gu@physx@@QAEAAU012@ABU012@@Z 10014210 f i GuContactCapsuleMesh.obj
 0001:000132a0       ??4HeightFieldUtil@Gu@physx@@QAEAAV012@$$QAV012@@Z 100142a0 f i GuContactCapsuleMesh.obj
 0001:000132d0       ??4HeightFieldUtil@Gu@physx@@QAEAAV012@ABV012@@Z 100142d0 f i GuContactCapsuleMesh.obj
 0001:000132f0       ??4MaterialIndicesStruct@physx@@QAEAAU01@ABU01@@Z 100142f0 f i GuContactCapsuleMesh.obj
 0001:00013310       ??4MeshInterface@Gu@physx@@QAEAAV012@ABV012@@Z 10014310 f i GuContactCapsuleMesh.obj
 0001:00013330       ??4RTree@Gu@physx@@QAEAAU012@ABU012@@Z 10014330 f i GuContactCapsuleMesh.obj
 0001:000133d0       ??4RTreeMidphase@Gu@physx@@QAEAAV012@ABV012@@Z 100143d0 f i GuContactCapsuleMesh.obj
 0001:00013400       ??_G?$EntityReport@I@Gu@physx@@UAEPAXI@Z 10014400 f i GuContactCapsuleMesh.obj
 0001:00013400       ??_E?$EntityReport@I@Gu@physx@@UAEPAXI@Z 10014400 f i GuContactCapsuleMesh.obj
 0001:00013430       ??_E?$MeshHitCallback@UPxRaycastHit@physx@@@Gu@physx@@UAEPAXI@Z 10014430 f i GuContactCapsuleMesh.obj
 0001:00013430       ??_G?$MeshHitCallback@UPxRaycastHit@physx@@@Gu@physx@@UAEPAXI@Z 10014430 f i GuContactCapsuleMesh.obj
 0001:00013460       ??_GCapsuleHeightfieldContactGenerationCallback@?A0xc20cb5b8@@UAEPAXI@Z 10014460 f i GuContactCapsuleMesh.obj
 0001:00013460       ??_ECapsuleHeightfieldContactGenerationCallback@?A0xc20cb5b8@@UAEPAXI@Z 10014460 f i GuContactCapsuleMesh.obj
 0001:00013490       ??_GCapsuleMeshContactGenerationCallback@?A0xc20cb5b8@@UAEPAXI@Z 10014490 f i GuContactCapsuleMesh.obj
 0001:00013490       ??_ECapsuleMeshContactGenerationCallback@?A0xc20cb5b8@@UAEPAXI@Z 10014490 f i GuContactCapsuleMesh.obj
 0001:000134c0       ??_GPxBase@physx@@MAEPAXI@Z 100144c0 f i GuContactCapsuleMesh.obj
 0001:000134c0       ??_EPxBase@physx@@MAEPAXI@Z 100144c0 f i GuContactCapsuleMesh.obj
 0001:000134f0       ??_H@YGXPAXIIP6EPAX0@Z@Z   100144f0 f i GuContactCapsuleMesh.obj
 0001:00013520       ?GetMeshInterface@RTreeMidphase@Gu@physx@@QBEPBVMeshInterface@23@XZ 10014520 f i GuContactCapsuleMesh.obj
 0001:00013530       ?GetNbTriangles@MeshInterface@Gu@physx@@QBEIXZ 10014530 f i GuContactCapsuleMesh.obj
 0001:00013540       ?GetNbVertices@MeshInterface@Gu@physx@@QBEIXZ 10014540 f i GuContactCapsuleMesh.obj
 0001:00013550       ?GetTriangle@MeshInterface@Gu@physx@@QBEXAAUVertexPointers@23@I@Z 10014550 f i GuContactCapsuleMesh.obj
 0001:000135e0       ?GetTriangleVerts@MeshInterface@Gu@physx@@SAXIIIIAAVPxVec3@3@00@Z 100145e0 f i GuContactCapsuleMesh.obj
 0001:00013670       ?GetTriangleVerts@MeshInterface@Gu@physx@@SAXIIIIAAVPxVec3@3@00AAI11@Z 10014670 f i GuContactCapsuleMesh.obj
 0001:00013720       ?GetTris@MeshInterface@Gu@physx@@QBEPBXXZ 10014720 f i GuContactCapsuleMesh.obj
 0001:00013730       ?GetVerts@MeshInterface@Gu@physx@@QBEPBVPxVec3@3@XZ 10014730 f i GuContactCapsuleMesh.obj
 0001:00014670       ?SetMeshInterface@RTreeMidphase@Gu@physx@@QAEXPBVMeshInterface@23@@Z 10015670 f i GuContactCapsuleMesh.obj
 0001:00014680       ?SetNbTriangles@MeshInterface@Gu@physx@@QAEXI@Z 10015680 f i GuContactCapsuleMesh.obj
 0001:00014690       ?SetNbVertices@MeshInterface@Gu@physx@@QAEXI@Z 10015690 f i GuContactCapsuleMesh.obj
 0001:000146a0       ?allocate@MaterialIndicesStruct@physx@@QAEXG@Z 100156a0 f i GuContactCapsuleMesh.obj
 0001:000146d0       ?ceilUp@HeightFieldUtil@Gu@physx@@SAMM@Z 100156d0 f i GuContactCapsuleMesh.obj
 0001:00014710       ?clipShapeNormalToVertexVoronoi@HeightFieldUtil@Gu@physx@@QBE_NAAVPxVec3@3@III@Z 10015710 f i GuContactCapsuleMesh.obj
 0001:00014ab0       ?computeAABBExtent@Box@Gu@physx@@QBE?AVPxVec3@3@XZ 10015ab0 f i GuContactCapsuleMesh.obj
 0001:00014b70       ?computeBounds@GeometryUnion@Gu@physx@@QBE?AVPxBounds3@3@ABVPxTransform@3@@Z 10015b70 f i GuContactCapsuleMesh.obj
 0001:00014b90       ?computeBoxPoints@Box@Gu@physx@@QBEXPIAVPxVec3@3@@Z 10015b90 f i GuContactCapsuleMesh.obj
 0001:00014ec0       ?computePointNormal@HeightFieldUtil@Gu@physx@@QBE?AVPxVec3@3@IABV43@ABVPxTransform@3@MMMMAAM@Z 10015ec0 f i GuContactCapsuleMesh.obj
 0001:000152e0       ?deallocate@MaterialIndicesStruct@physx@@QAEXXZ 100162e0 f i GuContactCapsuleMesh.obj
 0001:00015300       ?floorDown@HeightFieldUtil@Gu@physx@@SAMM@Z 10016300 f i GuContactCapsuleMesh.obj
 0001:00015370       ?get64BitBasePage@RTree@Gu@physx@@IBEPAURTreePage@23@XZ 10016370 f i GuContactCapsuleMesh.obj
 0001:00015380       ?getConcreteTypeName@PxBase@physx@@UBEPBDXZ 10016380 f i GuContactCapsuleMesh.obj
 0001:00015390       ?getConcreteTypeName@PxHeightField@physx@@UBEPBDXZ 10016390 f i GuContactCapsuleMesh.obj
 0001:000153a0       ?getConcreteTypeName@PxTriangleMesh@physx@@UBEPBDXZ 100163a0 f i GuContactCapsuleMesh.obj
 0001:000153b0       ?getConvexEdgeThreshold@HeightField@Gu@physx@@UBEMXZ 100163b0 f i GuContactCapsuleMesh.obj
 0001:000153c0       ?getEdgeDirection@HeightFieldUtil@Gu@physx@@QBE?AVPxVec3@3@II@Z 100163c0 f i GuContactCapsuleMesh.obj
 0001:00015500       ?getFeatureIndex@HeightFieldUtil@Gu@physx@@SAII@Z 10016500 f i GuContactCapsuleMesh.obj
 0001:00015510       ?getFeatureType@HeightFieldUtil@Gu@physx@@SA?AW4Feature@123@I@Z 10016510 f i GuContactCapsuleMesh.obj
 0001:00015520       ?getFlags@HeightField@Gu@physx@@UBE?AV?$PxFlags@W4Enum@PxHeightFieldFlag@physx@@G@3@XZ 10016520 f i GuContactCapsuleMesh.obj
 0001:00015540       ?getFormat@HeightField@Gu@physx@@UBE?AW4Enum@PxHeightFieldFormat@3@XZ 10016540 f i GuContactCapsuleMesh.obj
 0001:00015550       ?getGeometry@GeometryUnion@Gu@physx@@QBEABVPxGeometry@3@XZ 10016550 f i GuContactCapsuleMesh.obj
 0001:00015560       ?getHeight@HeightField@Gu@physx@@UBEMMM@Z 10016560 f i GuContactCapsuleMesh.obj
 0001:000155c0       ?getHeightAtShapePoint2@HeightFieldUtil@Gu@physx@@QBEMIMM@Z 100165c0 f i GuContactCapsuleMesh.obj
 0001:00015600       ?getHeightAtShapePoint@HeightFieldUtil@Gu@physx@@QBEMMM@Z 10016600 f i GuContactCapsuleMesh.obj
 0001:00015670       ?getHeightField@HeightFieldUtil@Gu@physx@@QBEABVHeightField@23@XZ 10016670 f i GuContactCapsuleMesh.obj
 0001:00015680       ?getHeightFieldGeometry@HeightFieldUtil@Gu@physx@@QBEABVPxHeightFieldGeometry@3@XZ 10016680 f i GuContactCapsuleMesh.obj
 0001:00015690       ?getHeightInternal2@HeightField@Gu@physx@@QBEMIMM@Z 10016690 f i GuContactCapsuleMesh.obj
 0001:000157e0       ?getInverse@PxMat33@physx@@QBE?AV12@XZ 100167e0 f i GuContactCapsuleMesh.obj
 0001:00015a40       ?getNbColumns@HeightField@Gu@physx@@UBEIXZ 10016a40 f i GuContactCapsuleMesh.obj
 0001:00015a50       ?getNbRows@HeightField@Gu@physx@@UBEIXZ 10016a50 f i GuContactCapsuleMesh.obj
 0001:00015a60       ?getNodeIdxFromNodeHandle@RTree@Gu@physx@@IBEII@Z 10016a60 f i GuContactCapsuleMesh.obj
 0001:00015a70       ?getNormalAtShapePoint2@HeightFieldUtil@Gu@physx@@QBE?AVPxVec3@3@IMM@Z 10016a70 f i GuContactCapsuleMesh.obj
 0001:00015ac0       ?getNormalAtShapePoint@HeightFieldUtil@Gu@physx@@QBE?AVPxVec3@3@MM@Z 10016ac0 f i GuContactCapsuleMesh.obj
 0001:00015b60       ?getNormal_2@HeightField@Gu@physx@@QBE?AVPxVec3@3@IMMMMM@Z 10016b60 f i GuContactCapsuleMesh.obj
 0001:00015c70       ?getOneOverColumnScale@HeightFieldUtil@Gu@physx@@QBEMXZ 10016c70 f i GuContactCapsuleMesh.obj
 0001:00015c80       ?getOneOverHeightScale@HeightFieldUtil@Gu@physx@@QBEMXZ 10016c80 f i GuContactCapsuleMesh.obj
 0001:00015c90       ?getOneOverRowScale@HeightFieldUtil@Gu@physx@@QBEMXZ 10016c90 f i GuContactCapsuleMesh.obj
 0001:00015ca0       ?getPageFromNodeHandle@RTree@Gu@physx@@IBEPAURTreePage@23@I@Z 10016ca0 f i GuContactCapsuleMesh.obj
 0001:00015cb0       ?getRTreeMidphaseData@RTreeMidphase@Gu@physx@@QBEXAAURTreeMidphaseData@23@@Z 10016cb0 f i GuContactCapsuleMesh.obj
 0001:00015cd0       ?getSampleStride@HeightField@Gu@physx@@UBEIXZ 10016cd0 f i GuContactCapsuleMesh.obj
 0001:00015ce0       ?getThickness@HeightField@Gu@physx@@UBEMXZ 10016ce0 f i GuContactCapsuleMesh.obj
 0001:00015cf0       ?getTransform@Box@Gu@physx@@QBE?AVPxTransform@3@XZ 10016cf0 f i GuContactCapsuleMesh.obj
 0001:00015d40       ?getTriangleMaterialIndex@HeightField@Gu@physx@@UBEGI@Z 10016d40 f i GuContactCapsuleMesh.obj
 0001:00015d70       ?getTriangleNormal@HeightField@Gu@physx@@UBE?AVPxVec3@3@I@Z 10016d70 f i GuContactCapsuleMesh.obj
 0001:00015d90       ?getTriangleNormalInternal@HeightField@Gu@physx@@QBE?AVPxVec3@3@I@Z 10016d90 f i GuContactCapsuleMesh.obj
 0001:00015e90       ?getTriangleVertexIndices@HeightField@Gu@physx@@QBEXIAAI00@Z 10016e90 f i GuContactCapsuleMesh.obj
 0001:00015f30       ?getType@GeometryUnion@Gu@physx@@QBE?AW4Enum@PxGeometryType@3@XZ 10016f30 f i GuContactCapsuleMesh.obj
 0001:00015f40       ?getVertexNormal@HeightFieldUtil@Gu@physx@@QBE?AVPxVec3@3@I@Z 10016f40 f i GuContactCapsuleMesh.obj
 0001:00015f70       ?has16BitIndices@MeshInterface@Gu@physx@@QBEIXZ 10016f70 f i GuContactCapsuleMesh.obj
 0001:00015f80       ?hf2shapen@HeightFieldUtil@Gu@physx@@QBE?AVPxVec3@3@ABV43@@Z 10016f80 f i GuContactCapsuleMesh.obj
 0001:00015fc0       ?hf2shapep@HeightFieldUtil@Gu@physx@@QBE?AVPxVec3@3@ABV43@@Z 10016fc0 f i GuContactCapsuleMesh.obj
 0001:00016000       ?hf2worldn@HeightFieldUtil@Gu@physx@@QBE?AVPxVec3@3@ABVPxTransform@3@ABV43@@Z 10017000 f i GuContactCapsuleMesh.obj
 0001:00016130       ?hf2worldp@HeightFieldUtil@Gu@physx@@QBE?AVPxVec3@3@ABVPxTransform@3@ABV43@@Z 10017130 f i GuContactCapsuleMesh.obj
 0001:00016280       ?init@FastVertex2ShapeScaling@Cm@physx@@QAEXABVPxVec3@3@ABVPxQuat@3@@Z 10017280 f i GuContactCapsuleMesh.obj
 0001:000167e0       ?initialize@HeightFieldUtil@Gu@physx@@AAEXXZ 100177e0 f i GuContactCapsuleMesh.obj
 0001:00016810       ?initialize@HeightFieldUtil@Gu@physx@@QAEXABVPxHeightFieldGeometry@3@ABVHeightField@23@@Z 10017810 f i GuContactCapsuleMesh.obj
 0001:00016850       ?isCollisionVertex@HeightFieldUtil@Gu@physx@@QBE_NIII@Z 10017850 f i GuContactCapsuleMesh.obj
 0001:00016870       ?isKindOf@PxBase@physx@@MBE_NPBD@Z 10017870 f i GuContactCapsuleMesh.obj
 0001:000168c0       ?isKindOf@PxHeightField@physx@@MBE_NPBD@Z 100178c0 f i GuContactCapsuleMesh.obj
 0001:00016940       ?isKindOf@PxTriangleMesh@physx@@MBE_NPBD@Z 10017940 f i GuContactCapsuleMesh.obj
 0001:000169c0       ?isQueryVertex@HeightFieldUtil@Gu@physx@@QBE_NIII@Z 100179c0 f i GuContactCapsuleMesh.obj
 0001:00016a50       ?isReleasable@PxBase@physx@@UBE_NXZ 10017a50 f i GuContactCapsuleMesh.obj
 0001:00016a60       ?isShapePointOnHeightField@HeightFieldUtil@Gu@physx@@QBE_NMM@Z 10017a60 f i GuContactCapsuleMesh.obj
 0001:00016ac0       ?isValid@Box@Gu@physx@@QBE_NXZ 10017ac0 f i GuContactCapsuleMesh.obj
 0001:00016ae0       ?makeFeatureCode@HeightFieldUtil@Gu@physx@@SAIIW4Feature@123@@Z 10017ae0 f i GuContactCapsuleMesh.obj
 0001:00016df0       ?pagePtrFrom32Bits@RTree@Gu@physx@@KAPAURTreePage@23@I@Z 10017df0 f i GuContactCapsuleMesh.obj
 0001:00016e00       ?pagePtrTo32Bits@RTree@Gu@physx@@KAIPBURTreePage@23@@Z 10017e00 f i GuContactCapsuleMesh.obj
 0001:00017560       ?rotate@Box@Gu@physx@@QBE?AVPxVec3@3@ABV43@@Z 10018560 f i GuContactCapsuleMesh.obj
 0001:00017600       ?rotateInv@Box@Gu@physx@@QBE?AVPxVec3@3@ABV43@@Z 10018600 f i GuContactCapsuleMesh.obj
 0001:00017690       ?setAxes@Box@Gu@physx@@QAEXABVPxVec3@3@00@Z 10018690 f i GuContactCapsuleMesh.obj
 0001:000176e0       ?setEmpty@Box@Gu@physx@@QAEXXZ 100186e0 f i GuContactCapsuleMesh.obj
 0001:00017750       ?shape2hfp@HeightFieldUtil@Gu@physx@@QBE?AVPxVec3@3@ABV43@@Z 10018750 f i GuContactCapsuleMesh.obj
 0001:00017790       ?transform@Box@Gu@physx@@QBE?AVPxVec3@3@ABV43@@Z 10018790 f i GuContactCapsuleMesh.obj
 0001:00017850       ?transformFast@PxBounds3@physx@@SA?AV12@ABVPxTransform@2@ABV12@@Z 10018850 f i GuContactCapsuleMesh.obj
 0001:00017c00       ?contactConvexMesh@Gu@physx@@YA_NABVGeometryUnion@12@0ABVPxTransform@2@1ABMAAUCache@12@AAVContactBuffer@12@@Z 10018c00 f   GuContactConvexMesh.obj
 0001:00017ce0       ?contactBoxMesh@Gu@physx@@YA_NABVGeometryUnion@12@0ABVPxTransform@2@1ABMAAUCache@12@AAVContactBuffer@12@@Z 10018ce0 f   GuContactConvexMesh.obj
 0001:00017e00       ?contactConvexHeightfield@Gu@physx@@YA_NABVGeometryUnion@12@0ABVPxTransform@2@1ABMAAUCache@12@AAVContactBuffer@12@@Z 10018e00 f   GuContactConvexMesh.obj
 0001:00017ec0       ?contactBoxHeightfield@Gu@physx@@YA_NABVGeometryUnion@12@0ABVPxTransform@2@1ABMAAUCache@12@AAVContactBuffer@12@@Z 10018ec0 f   GuContactConvexMesh.obj
 0001:00017f90       ??0CachedEdge@Gu@physx@@QAE@XZ 10018f90 f i GuContactConvexMesh.obj
 0001:00017fa0       ??0CachedVertex@Gu@physx@@QAE@XZ 10018fa0 f i GuContactConvexMesh.obj
 0001:00018520       ??0HullPolygonData@Gu@physx@@QAE@ABU012@@Z 10019520 f i GuContactConvexMesh.obj
 0001:00018560       ??0PolygonalBox@Gu@physx@@QAE@ABV012@@Z 10019560 f i GuContactConvexMesh.obj
 0001:000187e0       ??0PxVec3@physx@@QAE@ABV01@@Z 100197e0 f i GuContactConvexMesh.obj
 0001:00018800       ??0SeparatingAxes@Gu@physx@@QAE@$$QAV012@@Z 10019800 f i GuContactConvexMesh.obj
 0001:000188d0       ??0SeparatingAxes@Gu@physx@@QAE@ABV012@@Z 100198d0 f i GuContactConvexMesh.obj
 0001:000189a0       ??0SeparatingAxes@Gu@physx@@QAE@XZ 100199a0 f i GuContactConvexMesh.obj
 0001:000189b0       ??4SeparatingAxes@Gu@physx@@QAEAAV012@$$QAV012@@Z 100199b0 f i GuContactConvexMesh.obj
 0001:00018a80       ??4SeparatingAxes@Gu@physx@@QAEAAV012@ABV012@@Z 10019a80 f i GuContactConvexMesh.obj
 0001:00018b50       ??AContainer@Gu@physx@@QAEAAII@Z 10019b50 f i GuContactConvexMesh.obj
 0001:00018b60       ??AContainer@Gu@physx@@QBEII@Z 10019b60 f i GuContactConvexMesh.obj
 0001:00018b70       ??_EConvexMeshContactGenerationCallback@@UAEPAXI@Z 10019b70 f i GuContactConvexMesh.obj
 0001:00018b70       ??_GConvexMeshContactGenerationCallback@@UAEPAXI@Z 10019b70 f i GuContactConvexMesh.obj
 0001:00018ba0       ??_GConvexVsHeightfieldContactGenerationCallback@?A0xb3aad102@@UAEPAXI@Z 10019ba0 f i GuContactConvexMesh.obj
 0001:00018ba0       ??_EConvexVsHeightfieldContactGenerationCallback@?A0xb3aad102@@UAEPAXI@Z 10019ba0 f i GuContactConvexMesh.obj
 0001:00018bd0       ??__G@YGXPAX0IIP6EPAX00@Z@Z 10019bd0 f i GuContactConvexMesh.obj
 0001:00018c00       ?Add@Container@Gu@physx@@QAEAAV123@ABV123@@Z 10019c00 f i GuContactConvexMesh.obj
 0001:00018c50       ?Add@Container@Gu@physx@@QAEAAV123@I@Z 10019c50 f i GuContactConvexMesh.obj
 0001:00018c80       ?Add@Container@Gu@physx@@QAEAAV123@M@Z 10019c80 f i GuContactConvexMesh.obj
 0001:00018cc0       ?Add@Container@Gu@physx@@QAEAAV123@PBII@Z 10019cc0 f i GuContactConvexMesh.obj
 0001:00018d20       ?Add@Container@Gu@physx@@QAEAAV123@PBMI@Z 10019d20 f i GuContactConvexMesh.obj
 0001:00018d70       ?AddUnique@Container@Gu@physx@@QAEAAV123@I@Z 10019d70 f i GuContactConvexMesh.obj
 0001:00018db0       ?DeleteIndex@Container@Gu@physx@@QAEXI@Z 10019db0 f i GuContactConvexMesh.obj
 0001:00018dd0       ?DeleteLastEntry@Container@Gu@physx@@QAEXXZ 10019dd0 f i GuContactConvexMesh.obj
 0001:00018de0       ?ForceSize@Container@Gu@physx@@QAEXI@Z 10019de0 f i GuContactConvexMesh.obj
 0001:00018df0       ?GetEntries@Container@Gu@physx@@QBEPAIXZ 10019df0 f i GuContactConvexMesh.obj
 0001:00018e00       ?GetEntry@Container@Gu@physx@@QBEII@Z 10019e00 f i GuContactConvexMesh.obj
 0001:00018e10       ?GetFirst@Container@Gu@physx@@QBEIXZ 10019e10 f i GuContactConvexMesh.obj
 0001:00018e20       ?GetGrowthFactor@Container@Gu@physx@@QBEMXZ 10019e20 f i GuContactConvexMesh.obj
 0001:00018e30       ?GetLast@Container@Gu@physx@@QBEIXZ 10019e30 f i GuContactConvexMesh.obj
 0001:00018e40       ?GetMaxNbEntries@Container@Gu@physx@@QBEIXZ 10019e40 f i GuContactConvexMesh.obj
 0001:00018e50       ?GetNbEntries@Container@Gu@physx@@QBEIXZ 10019e50 f i GuContactConvexMesh.obj
 0001:00018e60       ?IsFull@Container@Gu@physx@@QBE_NXZ 10019e60 f i GuContactConvexMesh.obj
 0001:00018e70       ?IsNotEmpty@Container@Gu@physx@@QBEHXZ 10019e70 f i GuContactConvexMesh.obj
 0001:00018e80       ?Reserve@Container@Gu@physx@@QAEPAII@Z 10019e80 f i GuContactConvexMesh.obj
 0001:00018eb0       ?Reset@Container@Gu@physx@@QAEXXZ 10019eb0 f i GuContactConvexMesh.obj
 0001:00018ec0       ?SetGrowthFactor@Container@Gu@physx@@QAEXM@Z 10019ec0 f i GuContactConvexMesh.obj
 0001:00018ee0       ?addData@?$CacheMap@UCachedEdge@Gu@physx@@$0IA@@Gu@physx@@QAE_NABUCachedEdge@23@@Z 10019ee0 f i GuContactConvexMesh.obj
 0001:00018fd0       ?addData@?$CacheMap@UCachedVertex@Gu@physx@@$0IA@@Gu@physx@@QAE_NABUCachedVertex@23@@Z 10019fd0 f i GuContactConvexMesh.obj
 0001:0001a360       ?contains@?$CacheMap@UCachedEdge@Gu@physx@@$0IA@@Gu@physx@@QBE_NABUCachedEdge@23@@Z 1001b360 f i GuContactConvexMesh.obj
 0001:0001a3e0       ?contains@?$CacheMap@UCachedVertex@Gu@physx@@$0IA@@Gu@physx@@QBE_NABUCachedVertex@23@@Z 1001b3e0 f i GuContactConvexMesh.obj
 0001:0001b560       ?getAxes@SeparatingAxes@Gu@physx@@QBEPBVPxVec3@3@XZ 1001c560 f i GuContactConvexMesh.obj
 0001:0001b570       ?getNumAxes@SeparatingAxes@Gu@physx@@QBEIXZ 1001c570 f i GuContactConvexMesh.obj
 0001:0001c570       ?processHit@ConvexMeshContactGenerationCallback@@UAE_NABUPxRaycastHit@physx@@ABVPxVec3@3@11AAMPBI@Z 1001d570 f i GuContactConvexMesh.obj
 0001:0001cc70       ?reset@SeparatingAxes@Gu@physx@@QAEXXZ 1001dc70 f i GuContactConvexMesh.obj
 0001:0001dbf0       ?findRotationMatrixFromZ@Gu@physx@@YA?AVPxMat33@2@ABVPxVec3@2@@Z 1001ebf0 f   GuContactPolygonPolygon.obj
 0001:0001de80       ?contactPolygonPolygonExt@Gu@physx@@YA_NIPBVPxVec3@2@PBEABVMatrix34@Cm@2@ABVPxPlane@2@ABVPxMat33@2@I01234ABV32@22IIAAVContactBuffer@12@_N5M@Z 1001ee80 f   GuContactPolygonPolygon.obj
 0001:0001fee0       ?contactSphereMesh@Gu@physx@@YA_NABVGeometryUnion@12@0ABVPxTransform@2@1ABMAAUCache@12@AAVContactBuffer@12@@Z 10020ee0 f   GuContactSphereMesh.obj
 0001:00020540       ?contactSphereHeightField@Gu@physx@@YA_NABVGeometryUnion@12@0ABVPxTransform@2@1ABMAAUCache@12@AAVContactBuffer@12@@Z 10021540 f   GuContactSphereMesh.obj
 0001:000207a0       ??$median3@USortKey@@$$CBU?$Less@USortKey@@@shdfnd@physx@@@internal@shdfnd@physx@@YAXPAUSortKey@@HHABU?$Less@USortKey@@@12@@Z 100217a0 f i GuContactSphereMesh.obj
 0001:00020870       ??$partition@USortKey@@$$CBU?$Less@USortKey@@@shdfnd@physx@@@internal@shdfnd@physx@@YAHPAUSortKey@@HHABU?$Less@USortKey@@@12@@Z 10021870 f i GuContactSphereMesh.obj
 0001:00020910       ??$smallSort@USortKey@@$$CBU?$Less@USortKey@@@shdfnd@physx@@@internal@shdfnd@physx@@YAXPAUSortKey@@HHABU?$Less@USortKey@@@12@@Z 10021910 f i GuContactSphereMesh.obj
 0001:00020a70       ??$sort@USortKey@@U?$Less@USortKey@@@shdfnd@physx@@VNullAllocator@?A0x4910fd16@@@shdfnd@physx@@YAXPAUSortKey@@IABU?$Less@USortKey@@@01@ABVNullAllocator@?A0x4910fd16@@I@Z 10021a70 f i GuContactSphereMesh.obj
 0001:00020bf0       ??0TriangleData@@QAE@XZ    10021bf0 f i GuContactSphereMesh.obj
 0001:00020c40       ??_ESphereHeightfieldContactGenerationCallback@?A0x4910fd16@@UAEPAXI@Z 10021c40 f i GuContactSphereMesh.obj
 0001:00020c40       ??_GSphereHeightfieldContactGenerationCallback@?A0x4910fd16@@UAEPAXI@Z 10021c40 f i GuContactSphereMesh.obj
 0001:00020c70       ??_ESphereMeshContactGenerationCallback_NoScale@?A0x4910fd16@@UAEPAXI@Z 10021c70 f i GuContactSphereMesh.obj
 0001:00020c70       ??_GSphereMeshContactGenerationCallback_NoScale@?A0x4910fd16@@UAEPAXI@Z 10021c70 f i GuContactSphereMesh.obj
 0001:00020cb0       ??_ESphereMeshContactGenerationCallback_Scale@?A0x4910fd16@@UAEPAXI@Z 10021cb0 f i GuContactSphereMesh.obj
 0001:00020cb0       ??_GSphereMeshContactGenerationCallback_Scale@?A0x4910fd16@@UAEPAXI@Z 10021cb0 f i GuContactSphereMesh.obj
 0001:00022710       ?selectNormal@Gu@physx@@YA_NEMM@Z 10023710 f   GuFeatureCode.obj
 0001:00022860       ?barycentricCoordinates@Gu@physx@@YAXABT__m128@@00AAT3@@Z 10023860 f   GuBarycentricCoordinates.obj
 0001:000228d0       ?barycentricCoordinates@Gu@physx@@YAXABT__m128@@000AAT3@1@Z 100238d0 f   GuBarycentricCoordinates.obj
 0001:00022a30       ?barycentricCoordinates@Gu@physx@@YAXABT__m128@@00AAT3@1@Z 10023a30 f   GuBarycentricCoordinates.obj
 0001:00022b30       ?addAxis@SeparatingAxes@Gu@physx@@QAE_NABVPxVec3@3@@Z 10023b30 f   GuSeparatingAxes.obj
 0001:00022be0       ??0BigConvexData@physx@@QAE@XZ 10023be0 f   GuBigConvexData.obj
 0001:00022c00       ??1BigConvexData@physx@@QAE@XZ 10023c00 f   GuBigConvexData.obj
 0001:00022c40       ?Load@BigConvexData@physx@@QAE_NAAVPxInputStream@2@@Z 10023c40 f   GuBigConvexData.obj
 0001:00022cf0       ?ComputeOffset@BigConvexData@physx@@QBEIABVPxVec3@2@@Z 10023cf0 f   GuBigConvexData.obj
 0001:00022d80       ?ComputeNearestOffset@BigConvexData@physx@@QBEIABVPxVec3@2@@Z 10023d80 f   GuBigConvexData.obj
 0001:00022e20       ?exportExtraData@BigConvexData@physx@@QAEXAAVPxSerializationContext@2@@Z 10023e20 f   GuBigConvexData.obj
 0001:00022e80       ?importExtraData@BigConvexData@physx@@QAEXAAVPxDeserializationContext@2@@Z 10023e80 f   GuBigConvexData.obj
 0001:00022ee0       ?CreateOffsets@BigConvexData@physx@@IAEXXZ 10023ee0 f   GuBigConvexData.obj
 0001:00022f10       ?VLoad@BigConvexData@physx@@IAE_NAAVPxInputStream@2@@Z 10023f10 f   GuBigConvexData.obj
 0001:00023030       ??0BigConvexData@physx@@QAE@ABW4PxEMPTY@1@@Z 10024030 f i GuBigConvexData.obj
 0001:00023040       ??4BigConvexData@physx@@QAEAAV01@ABV01@@Z 10024040 f i GuBigConvexData.obj
 0001:00023070       ?GetAdjacentVerts@BigConvexData@physx@@QBEPBEXZ 10024070 f i GuBigConvexData.obj
 0001:00023080       ?GetNbNeighbors@BigConvexData@physx@@QBEGI@Z 10024080 f i GuBigConvexData.obj
 0001:000230a0       ?GetNbSamples@BigConvexData@physx@@QBEIXZ 100240a0 f i GuBigConvexData.obj
 0001:000230b0       ?GetNbVerts@BigConvexData@physx@@QBEIXZ 100240b0 f i GuBigConvexData.obj
 0001:000230c0       ?GetNeighbors@BigConvexData@physx@@QBEPBEI@Z 100240c0 f i GuBigConvexData.obj
 0001:000230e0       ?GetOffset@BigConvexData@physx@@QBEGI@Z 100240e0 f i GuBigConvexData.obj
 0001:00023100       ?GetSubdiv@BigConvexData@physx@@QBEIXZ 10024100 f i GuBigConvexData.obj
 0001:00023110       ?GetValencies@BigConvexData@physx@@QBEPBUValency@Gu@2@XZ 10024110 f i GuBigConvexData.obj
 0001:00023120       ?GetValency@BigConvexData@physx@@QBEGI@Z 10024120 f i GuBigConvexData.obj
 0001:00023140       ?getScaledConvex@Gu@physx@@YAXAAPAVPxVec3@2@AAPAEPAV32@PAE_NPBV32@PBEIABVFastVertex2ShapeScaling@Cm@2@@Z 10024140 f   GuConvexHelper.obj
 0001:00023240       ?getConvexData@Gu@physx@@YA_NABVGeometryUnion@12@AAVFastVertex2ShapeScaling@Cm@2@AAVPxBounds3@2@AAUPolygonalData@12@@Z 10024240 f   GuConvexHelper.obj
 0001:00023500       ?findUniqueConvexEdges@Gu@physx@@YAIIPIAUConvexEdge@12@IPIBUHullPolygonData@12@PIBE@Z 10024500 f   GuConvexHelper.obj
 0001:00023610       ?exportExtraData@ConvexMesh@Gu@physx@@UAEXAAVPxSerializationContext@3@@Z 10024610 f   GuConvexMesh.obj
 0001:00023690       ?importExtraData@ConvexMesh@Gu@physx@@QAEXAAVPxDeserializationContext@3@@Z 10024690 f   GuConvexMesh.obj
 0001:00023710       ?onRefCountZero@ConvexMesh@Gu@physx@@UAEXXZ 10024710 f   GuConvexMesh.obj
 0001:000237c0       ?createObject@ConvexMesh@Gu@physx@@SAPAV123@AAPAEAAVPxDeserializationContext@3@@Z 100247c0 f   GuConvexMesh.obj
 0001:00023830       ??0ConvexMesh@Gu@physx@@QAE@XZ 10024830 f   GuConvexMesh.obj
 0001:00023920       ?load@ConvexMesh@Gu@physx@@QAE_NAAVPxInputStream@3@@Z 10024920 f   GuConvexMesh.obj
 0001:00023b00       ?release@ConvexMesh@Gu@physx@@UAEXXZ 10024b00 f   GuConvexMesh.obj
 0001:00023b40       ?getPolygonData@ConvexMesh@Gu@physx@@UBE_NIAAUPxHullPolygon@3@@Z 10024b40 f   GuConvexMesh.obj
 0001:00023ba0       ?getReferenceCount@ConvexMesh@Gu@physx@@UBEIXZ 10024ba0 f   GuConvexMesh.obj
 0001:00023bb0       ?getMassInformation@ConvexMesh@Gu@physx@@UBEXAAMAAVPxMat33@3@AAVPxVec3@3@@Z 10024bb0 f   GuConvexMesh.obj
 0001:00023c10       ??1ConvexMesh@Gu@physx@@UAE@XZ 10024c10 f   GuConvexMesh.obj
 0001:00023c70       ?debugVisualize@ConvexMesh@Gu@physx@@QBEXAAVRenderOutput@Cm@3@ABVMatrix34@53@ABVPxBounds3@3@_KMI@Z 10024c70 f   GuConvexMesh.obj
 0001:00024280       ??0ConvexMesh@Gu@physx@@QAE@V?$PxFlags@W4Enum@PxBaseFlag@physx@@G@2@@Z 10025280 f i GuConvexMesh.obj
 0001:000242d0       ??0GuMeshFactory@physx@@QAE@XZ 100252d0 f i GuConvexMesh.obj
 0001:00024400       ??1PxConvexMesh@physx@@MAE@XZ 10025400 f i GuConvexMesh.obj
 0001:00024410       ??1RefCountable@Cm@physx@@UAE@XZ 10025410 f i GuConvexMesh.obj
 0001:00024420       ??_EConvexMesh@Gu@physx@@UAEPAXI@Z 10025420 f i GuConvexMesh.obj
 0001:00024524       ??_EConvexMesh@Gu@physx@@W7AEPAXI@Z 10025524 f i GuConvexMesh.obj
 0001:00024530       ??_EGuMeshFactory@physx@@MAEPAXI@Z 10025530 f i GuConvexMesh.obj
 0001:000245f0       ??_EPxConvexMesh@physx@@MAEPAXI@Z 100255f0 f i GuConvexMesh.obj
 0001:00024660       ??_GGuMeshFactory@physx@@MAEPAXI@Z 10025660 f i GuConvexMesh.obj
 0001:000246a0       ??_ERefCountable@Cm@physx@@UAEPAXI@Z 100256a0 f i GuConvexMesh.obj
 0001:000246a0       ??_GRefCountable@Cm@physx@@UAEPAXI@Z 100256a0 f i GuConvexMesh.obj
 0001:00024900       ?getConcreteTypeName@PxConvexMesh@physx@@UBEPBDXZ 10025900 f i GuConvexMesh.obj
 0001:00024910       ?getIndexBuffer@ConvexMesh@Gu@physx@@UBEPBEXZ 10025910 f i GuConvexMesh.obj
 0001:00024940       ?getLocalBounds@ConvexMesh@Gu@physx@@UBE?AVPxBounds3@3@XZ 10025940 f i GuConvexMesh.obj
 0001:00024980       ?getNbPolygons@ConvexMesh@Gu@physx@@UBEIXZ 10025980 f i GuConvexMesh.obj
 0001:00024990       ?getNbVertices@ConvexMesh@Gu@physx@@UBEIXZ 10025990 f i GuConvexMesh.obj
 0001:000249a0       ?getVertices@ConvexMesh@Gu@physx@@UBEPBVPxVec3@3@XZ 100259a0 f i GuConvexMesh.obj
 0001:000249b0       ?isKindOf@PxConvexMesh@physx@@MBE_NPBD@Z 100259b0 f i GuConvexMesh.obj
 0001:00024a30       ?onRefCountZero@RefCountable@Cm@physx@@UAEXXZ 10025a30 f i GuConvexMesh.obj
 0001:00024a40       ?requires@ConvexMesh@Gu@physx@@UAEXAAVPxProcessPxBaseCallback@3@@Z 10025a40 f i GuConvexMesh.obj
 0001:00024a50       ?reserveInternal@?$HashBase@PAVConvexMesh@Gu@physx@@PAV123@U?$Hash@PAVConvexMesh@Gu@physx@@@shdfnd@3@UGetKey@?$HashSetBase@PAVConvexMesh@Gu@physx@@U?$Hash@PAVConvexMesh@Gu@physx@@@shdfnd@3@VAllocator@53@$00@internal@53@VAllocator@53@$00@internal@shdfnd@physx@@AAEXI@Z 10025a50 f i GuConvexMesh.obj
 0001:00024bb0       ?reserveInternal@?$HashBase@PAVHeightField@Gu@physx@@PAV123@U?$Hash@PAVHeightField@Gu@physx@@@shdfnd@3@UGetKey@?$HashSetBase@PAVHeightField@Gu@physx@@U?$Hash@PAVHeightField@Gu@physx@@@shdfnd@3@VAllocator@53@$00@internal@53@VAllocator@53@$00@internal@shdfnd@physx@@AAEXI@Z 10025bb0 f i GuConvexMesh.obj
 0001:00024d10       ?reserveInternal@?$HashBase@PAVTriangleMesh@Gu@physx@@PAV123@U?$Hash@PAVTriangleMesh@Gu@physx@@@shdfnd@3@UGetKey@?$HashSetBase@PAVTriangleMesh@Gu@physx@@U?$Hash@PAVTriangleMesh@Gu@physx@@@shdfnd@3@VAllocator@53@$00@internal@53@VAllocator@53@$00@internal@shdfnd@physx@@AAEXI@Z 10025d10 f i GuConvexMesh.obj
 0001:00024e70       ?computeHullOBB@Gu@physx@@YAXAAVBox@12@ABVPxBounds3@2@MABVPxTransform@2@ABVMatrix34@Cm@2@3ABVFastVertex2ShapeScaling@72@_N@Z 10025e70 f   GuConvexUtilsInternal.obj
 0001:00025630       ?computeVertexSpaceOBB@Gu@physx@@YAXAAVBox@12@ABV312@ABVPxTransform@2@ABVPxMeshScale@2@@Z 10026630 f   GuConvexUtilsInternal.obj
 0001:00025e10       ?computeOBBAroundConvex@Gu@physx@@YAXAAVBox@12@ABVPxConvexMeshGeometry@2@PBVPxConvexMesh@2@ABVPxTransform@2@@Z 10026e10 f   GuConvexUtilsInternal.obj
 0001:00026740       ?rotate@physx@@YAXABVBox@Gu@1@ABVMatrix34@Cm@1@AAV231@@Z 10027740 f i GuConvexUtilsInternal.obj
 0001:00026a40       ?transform@physx@@YA?AVBox@Gu@1@ABVMatrix34@Cm@1@ABV231@@Z 10027a40 f i GuConvexUtilsInternal.obj
 0001:00026d10       ?CubemapLookup@physx@@YA?AW4CubeIndex@1@ABVPxVec3@1@AAM1@Z 10027d10 f   GuCubeIndex.obj
 0001:00026dc0       ?localSearch@physx@@YAXAAIABVPxVec3@1@PBV21@PBUBigConvexRawData@Gu@1@@Z 10027dc0 f   GuHillClimbing.obj
 0001:00026f00       ??0PolygonalBox@Gu@physx@@QAE@ABVPxVec3@2@@Z 10027f00 f   GuShapeConvex.obj
 0001:00027110       ?getPolygonalData@PolygonalBox@Gu@physx@@QBEXPIAUPolygonalData@23@@Z 10028110 f   GuShapeConvex.obj
 0001:000271a0       ?getPolygonalData_Convex@Gu@physx@@YAXPIAUPolygonalData@12@PIBUConvexHullData@12@ABVFastVertex2ShapeScaling@Cm@2@@Z 100281a0 f   GuShapeConvex.obj
 0001:00027c50       ??0HullPolygonData@Gu@physx@@QAE@XZ 10028c50 f i GuShapeConvex.obj
 0001:00027dd0       ?distancePointBoxSquared@Gu@physx@@YAMABVPxVec3@2@00ABVPxMat33@2@PAV32@@Z 10028dd0 f   GuDistancePointBox.obj
 0001:00027f40       ?distancePointSegmentSquared@Gu@physx@@YAMABVPxVec3@2@00PAM@Z 10028f40 f   GuDistancePointSegment.obj
 0001:00028030       ?closestPtPointTriangle@Gu@physx@@YA?AVPxVec3@2@ABV32@000AAM1@Z 10029030 f   GuDistancePointTriangle.obj
 0001:000284a0       ?distancePointTriangleSquared@Gu@physx@@YA?AT__m128@@ABT3@000AAT3@11@Z 100294a0 f   GuDistancePointTriangle.obj
 0001:00028860       ?distanceSegmentBoxSquared@Gu@physx@@YAMABVPxVec3@2@000ABVPxMat33@2@PAMPAV32@@Z 10029860 f   GuDistanceSegmentBox.obj
 0001:00029920       ?distanceSegmentSegmentSquaredOLD@Gu@physx@@YAMABVPxVec3@2@000PAM1@Z 1002a920 f   GuDistanceSegmentSegment.obj
 0001:000299e0       ?distanceSegmentSegmentSquared2@Gu@physx@@YAMABVSegment@12@0PAM1@Z 1002a9e0 f   GuDistanceSegmentSegment.obj
 0001:00029c80       ?distanceSegmentSegmentSquared@Gu@physx@@YA?AT__m128@@ABT3@000AAT3@1@Z 1002ac80 f   GuDistanceSegmentSegment.obj
 0001:00029e30       ?distanceSegmentSegmentSquared4@Gu@physx@@YA?AT__m128@@ABT3@000000000AAT3@1@Z 1002ae30 f   GuDistanceSegmentSegment.obj
 0001:0002a140       ?distanceSegmentSegmentSquared4@Gu@physx@@YA?AT__m128@@ABT3@000000AAT3@1PAT3@@Z 1002b140 f   GuDistanceSegmentSegment.obj
 0001:0002aca0       ?distanceSegmentTriangleSquared@Gu@physx@@YAMABVPxVec3@2@0000PAM11@Z 1002bca0 f   GuDistanceSegmentTriangle.obj
 0001:0002c920       ?distanceSegmentTriangleSquared@Gu@physx@@YA?AT__m128@@ABT3@0000AAT3@1@Z 1002d920 f   GuDistanceSegmentTriangle.obj
 0001:0002d010       ?sweepBoxBox@Gu@physx@@YA_NABVBox@12@0ABVPxVec3@2@MAAV42@2AAMV?$PxFlags@W4Enum@PxHitFlag@physx@@G@2@@Z 1002e010 f   GuSweepBoxBox.obj
 0001:0002df70       ??0InternalTriangleMesh@physx@@QAE@ABV01@@Z 1002ef70 f i GuSweepBoxBox.obj
 0001:0002dff0       ??0InternalTriangleMesh@physx@@QAE@ABW4PxEMPTY@1@@Z 1002eff0 f i GuSweepBoxBox.obj
 0001:0002e030       ??0InternalTriangleMeshData@Gu@physx@@QAE@ABU012@@Z 1002f030 f i GuSweepBoxBox.obj
 0001:0002e0d0       ??0TriangleMesh@Gu@physx@@QAE@V?$PxFlags@W4Enum@PxBaseFlag@physx@@G@2@@Z 1002f0d0 f i GuSweepBoxBox.obj
 0001:0002e140       ??4InternalTriangleMesh@physx@@QAEAAV01@ABV01@@Z 1002f140 f i GuSweepBoxBox.obj
 0001:0002e1c0       ??4InternalTriangleMeshData@Gu@physx@@QAEAAU012@ABU012@@Z 1002f1c0 f i GuSweepBoxBox.obj
 0001:0002e260       ??_EPxTriangleMesh@physx@@MAEPAXI@Z 1002f260 f i GuSweepBoxBox.obj
 0001:0002e2d0       ??_ETriangleMesh@Gu@physx@@UAEPAXI@Z 1002f2d0 f i GuSweepBoxBox.obj
 0001:0002e38b       ??_ETriangleMesh@Gu@physx@@W7AEPAXI@Z 1002f38b f i GuSweepBoxBox.obj
 0001:0002e3a0       ?getAdjacencies@InternalTriangleMesh@physx@@QBEPBIXZ 1002f3a0 f i GuSweepBoxBox.obj
 0001:0002e3b0       ?getCollisionModel@InternalTriangleMesh@physx@@QBEABVRTreeMidphase@Gu@2@XZ 1002f3b0 f i GuSweepBoxBox.obj
 0001:0002e3c0       ?getConvexEdgeThreshold@InternalTriangleMesh@physx@@QBEMXZ 1002f3c0 f i GuSweepBoxBox.obj
 0001:0002e3d0       ?getFaceRemap@InternalTriangleMesh@physx@@QBEPBIXZ 1002f3d0 f i GuSweepBoxBox.obj
 0001:0002e3e0       ?getLocalBounds@TriangleMesh@Gu@physx@@UBE?AVPxBounds3@3@XZ 1002f3e0 f i GuSweepBoxBox.obj
 0001:0002e430       ?getMaterials@InternalTriangleMesh@physx@@QBEPBGXZ 1002f430 f i GuSweepBoxBox.obj
 0001:0002e440       ?getMeshInterface@InternalTriangleMesh@physx@@QBEABVMeshInterface@Gu@2@XZ 1002f440 f i GuSweepBoxBox.obj
 0001:0002e450       ?getNbTriangles@TriangleMesh@Gu@physx@@UBEIXZ 1002f450 f i GuSweepBoxBox.obj
 0001:0002e460       ?getNbVertices@TriangleMesh@Gu@physx@@UBEIXZ 1002f460 f i GuSweepBoxBox.obj
 0001:0002e470       ?getNumTriangles@InternalTriangleMesh@physx@@QBEIXZ 1002f470 f i GuSweepBoxBox.obj
 0001:0002e480       ?getNumVertices@InternalTriangleMesh@physx@@QBEIXZ 1002f480 f i GuSweepBoxBox.obj
 0001:0002e490       ?getTriangleMaterialIndex@TriangleMesh@Gu@physx@@UBEGI@Z 1002f490 f i GuSweepBoxBox.obj
 0001:0002e4c0       ?getTriangleMeshFlags@InternalTriangleMesh@physx@@QBE?AV?$PxFlags@W4Enum@PxTriangleMeshFlag@physx@@E@2@XZ 1002f4c0 f i GuSweepBoxBox.obj
 0001:0002e4e0       ?getTriangleMeshFlags@TriangleMesh@Gu@physx@@UBE?AV?$PxFlags@W4Enum@PxTriangleMeshFlag@physx@@E@3@XZ 1002f4e0 f i GuSweepBoxBox.obj
 0001:0002e500       ?getTriangles@InternalTriangleMesh@physx@@QBEPBXXZ 1002f500 f i GuSweepBoxBox.obj
 0001:0002e510       ?getTriangles@TriangleMesh@Gu@physx@@UBEPBXXZ 1002f510 f i GuSweepBoxBox.obj
 0001:0002e520       ?getTrianglesRemap@TriangleMesh@Gu@physx@@UBEPBIXZ 1002f520 f i GuSweepBoxBox.obj
 0001:0002e530       ?getTrigSharedEdgeFlagsFromData@InternalTriangleMesh@physx@@QBEII@Z 1002f530 f i GuSweepBoxBox.obj
 0001:0002e550       ?getVertices@InternalTriangleMesh@physx@@QBEPBVPxVec3@2@XZ 1002f550 f i GuSweepBoxBox.obj
 0001:0002e560       ?getVertices@TriangleMesh@Gu@physx@@UBEPBVPxVec3@3@XZ 1002f560 f i GuSweepBoxBox.obj
 0001:0002e570       ?has16BitIndices@InternalTriangleMesh@physx@@QBE_NXZ 1002f570 f i GuSweepBoxBox.obj
 0001:0002e580       ?requires@TriangleMesh@Gu@physx@@UAEXAAVPxProcessPxBaseCallback@3@@Z 1002f580 f i GuSweepBoxBox.obj
 0001:0002e590       ?setTriangleAdjacency@InternalTriangleMesh@physx@@QAEXIII@Z 1002f590 f i GuSweepBoxBox.obj
 0001:0002e5b0       ?setTrigSharedEdgeFlag@InternalTriangleMesh@physx@@QAEXII@Z 1002f5b0 f i GuSweepBoxBox.obj
 0001:0002e5d0       ?sweepBoxSphere@Gu@physx@@YA_NABVBox@12@MABVPxVec3@2@1MAAMAAV42@V?$PxFlags@W4Enum@PxHitFlag@physx@@G@2@@Z 1002f5d0 f   GuSweepBoxSphere.obj
 0001:0002edb0       ?sweepBoxTriangle@Gu@physx@@YA_NABVPxTriangle@2@ABVPxBounds3@2@ABVPxVec3@2@2AAV52@3AAM@Z 1002fdb0 f   GuSweepBoxTriangle_FeatureBased.obj
 0001:0002fb10       ?triBoxSweepTestBoxSpace@Gu@physx@@YAHABVPxTriangle@2@ABVPxVec3@2@11MAAM_N@Z 10030b10 f   GuSweepBoxTriangle_SAT.obj
 0001:000305c0       ?sweepCapsuleBox@Gu@physx@@YA_NABVCapsule@12@ABVPxTransform@2@ABVPxVec3@2@2MAAV52@AAM3V?$PxFlags@W4Enum@PxHitFlag@physx@@G@2@@Z 100315c0 f   GuSweepCapsuleBox.obj
 0001:00030900       ??0PxTriangle@physx@@QAE@XZ 10031900 f i GuSweepCapsuleBox.obj
 0001:00030910       ??1PxTriangle@physx@@QAE@XZ 10031910 f i GuSweepCapsuleBox.obj
 0001:00031b00       ?sweepCapsuleCapsule@Gu@physx@@YA_NABVCapsule@12@0ABVPxVec3@2@MAAMAAV42@3IAAG@Z 10032b00 f   GuSweepCapsuleCapsule.obj
 0001:00032700       ??0Capsule@Gu@physx@@QAE@XZ 10033700 f i GuSweepCapsuleCapsule.obj
 0001:00032710       ??1Capsule@Gu@physx@@QAE@XZ 10033710 f i GuSweepCapsuleCapsule.obj
 0001:00032960       ?sweepCapsuleTriangles@Gu@physx@@YA_NIPIBVPxTriangle@2@ABVCapsule@12@ABVPxVec3@2@MPIBIAAV?$PxFlags@W4Enum@PxHitFlag@physx@@G@2@AAMAAV52@6AAI6V62@_NPBVBox@12@@Z 10033960 f   GuSweepCapsuleTriangle.obj
 0001:000345b0       ?sweepSphereCapsule@Gu@physx@@YA_NABVSphere@12@ABVCapsule@12@ABVPxVec3@2@MAAMAAV52@4V?$PxFlags@W4Enum@PxHitFlag@physx@@G@2@@Z 100355b0 f   GuSweepSphereCapsule.obj
 0001:00034960       ?sweepSphereSphere@Gu@physx@@YA_NABVPxVec3@2@M0M0AAMAAV32@@Z 10035960 f   GuSweepSphereSphere.obj
 0001:00034c80       ?sweepTriSphere@Gu@physx@@YA_NABVPxTriangle@2@ABVPxVec3@2@1M1AAM@Z 10035c80 f   GuSweepSphereTriangle.obj
 0001:00035600       ?sweepSphereTriangles@Gu@physx@@YA_NIPIBVPxTriangle@2@ABVPxVec3@2@M1MPIBIAAV42@3AAMAAIAAV?$PxFlags@W4Enum@PxHitFlag@physx@@G@2@3_N7@Z 10036600 f   GuSweepSphereTriangle.obj
 0001:00035c90       ?computeSphereTriImpactData@Gu@physx@@YAXAAVPxVec3@2@0ABV32@1MABVPxTriangle@2@@Z 10036c90 f   GuSweepTriangleUtils.obj
 0001:00035e90       ?computeBoxTriImpactData@Gu@physx@@YAXAAVPxVec3@2@0ABV32@111ABVPxTriangle@2@@Z 10036e90 f   GuSweepTriangleUtils.obj
 0001:00036060       ?computeEdgeEdgeNormal@Gu@physx@@YAXAAVPxVec3@2@ABV32@1111M@Z 10037060 f   GuSweepTriangleUtils.obj
 0001:000364f0       ?epaPenetration@Gu@physx@@YAIABVConvexV@12@0PAVEPASupportMapPair@12@PIAE2EAAT__m128@@333_N@Z 100374f0 f   GuEPA.obj
 0001:000374b0       ?silhouette@Facet@Gu@physx@@QAEXABT__m128@@PIBT4@1AAVEdgeBuffer@23@AAV?$InlineDeferredIDPool@$0EA@@Cm@3@@Z 100384b0 f   GuEPA.obj
 0001:00037610       ?PenetrationDepth@EPA@Gu@physx@@QAEIABVConvexV@23@0PAVEPASupportMapPair@23@PIBT__m128@@22HAAT6@333_N@Z 10038610 f   GuEPA.obj
 0001:00037dc0       ?expandPoint@EPA@Gu@physx@@QAE_NPAVEPASupportMapPair@23@AAHABT__m128@@2@Z 10038dc0 f   GuEPA.obj
 0001:00037e30       ?expandSegment@EPA@Gu@physx@@QAE_NPAVEPASupportMapPair@23@AAHABT__m128@@2@Z 10038e30 f   GuEPA.obj
 0001:00038150       ?expandTriangle@EPA@Gu@physx@@QAE_NAAHABT__m128@@1@Z 10039150 f   GuEPA.obj
 0001:000381e0       ?addFacet@EPA@Gu@physx@@QAEPAVFacet@23@IIIABT__m128@@0@Z 100391e0 f   GuEPA.obj
 0001:00038410       ??0Edge@Gu@physx@@QAE@XZ   10039410 f i GuEPA.obj
 0001:00038420       ??0Facet@Gu@physx@@QAE@XZ  10039420 f i GuEPA.obj
 0001:00038730       ?EPALocalPenetration@Gu@physx@@YAIABVCapsuleV@12@ABVBoxV@12@AAT__m128@@222PIAE3AAE_N@Z 10039730 f   GuEPAPenetrationWrapper.obj
 0001:00038780       ?EPALocalPenetration@Gu@physx@@YAIABVCapsuleV@12@ABVConvexHullV@12@AAT__m128@@222PIAE3AAE_N@Z 10039780 f   GuEPAPenetrationWrapper.obj
 0001:000387d0       ?EPALocalPenetration@Gu@physx@@YAIABVTriangleV@12@ABVBoxV@12@AAT__m128@@222PIAE3AAE_N@Z 100397d0 f   GuEPAPenetrationWrapper.obj
 0001:00038820       ?EPALocalPenetration@Gu@physx@@YAIABVTriangleV@12@ABVConvexHullV@12@AAT__m128@@222PIAE3AAE_N@Z 10039820 f   GuEPAPenetrationWrapper.obj
 0001:00038870       ?EPARelativePenetration@Gu@physx@@YAIABVBoxV@12@0ABVPsMatTransformV@aos@shdfnd@2@AAT__m128@@222PIAE3AAE_N@Z 10039870 f   GuEPAPenetrationWrapper.obj
 0001:000388c0       ?EPARelativePenetration@Gu@physx@@YAIABVBoxV@12@ABVConvexHullV@12@ABVPsMatTransformV@aos@shdfnd@2@AAT__m128@@333PIAE4AAE_N@Z 100398c0 f   GuEPAPenetrationWrapper.obj
 0001:00038910       ?EPARelativePenetration@Gu@physx@@YAIABVConvexHullV@12@0ABVPsMatTransformV@aos@shdfnd@2@AAT__m128@@222PIAE3AAE_N@Z 10039910 f   GuEPAPenetrationWrapper.obj
 0001:00038960       ?EPARelativePenetration@Gu@physx@@YAIABVConvexHullNoScaleV@12@0ABVPsMatTransformV@aos@shdfnd@2@AAT__m128@@222PIAE3AAE_N@Z 10039960 f   GuEPAPenetrationWrapper.obj
 0001:000389b0       ?EPARelativePenetration@Gu@physx@@YAIABVConvexHullNoScaleV@12@ABVConvexHullV@12@ABVPsMatTransformV@aos@shdfnd@2@AAT__m128@@333PIAE4AAE_N@Z 100399b0 f   GuEPAPenetrationWrapper.obj
 0001:00038a00       ?EPARelativePenetration@Gu@physx@@YAIABVConvexHullV@12@ABVConvexHullNoScaleV@12@ABVPsMatTransformV@aos@shdfnd@2@AAT__m128@@333PIAE4AAE_N@Z 10039a00 f   GuEPAPenetrationWrapper.obj
 0001:00038a50       ??1EPASupportMapPair@Gu@physx@@UAE@XZ 10039a50 f i GuEPAPenetrationWrapper.obj
 0001:00038a60       ??_E?$EPASupportMapPairLocalImpl@VCapsuleV@Gu@physx@@VBoxV@23@@Gu@physx@@UAEPAXI@Z 10039a60 f i GuEPAPenetrationWrapper.obj
 0001:00038a60       ??_G?$EPASupportMapPairLocalImpl@VCapsuleV@Gu@physx@@VBoxV@23@@Gu@physx@@UAEPAXI@Z 10039a60 f i GuEPAPenetrationWrapper.obj
 0001:00038a90       ??_G?$EPASupportMapPairLocalImpl@VCapsuleV@Gu@physx@@VConvexHullV@23@@Gu@physx@@UAEPAXI@Z 10039a90 f i GuEPAPenetrationWrapper.obj
 0001:00038a90       ??_E?$EPASupportMapPairLocalImpl@VCapsuleV@Gu@physx@@VConvexHullV@23@@Gu@physx@@UAEPAXI@Z 10039a90 f i GuEPAPenetrationWrapper.obj
 0001:00038ac0       ??_G?$EPASupportMapPairLocalImpl@VTriangleV@Gu@physx@@VBoxV@23@@Gu@physx@@UAEPAXI@Z 10039ac0 f i GuEPAPenetrationWrapper.obj
 0001:00038ac0       ??_E?$EPASupportMapPairLocalImpl@VTriangleV@Gu@physx@@VBoxV@23@@Gu@physx@@UAEPAXI@Z 10039ac0 f i GuEPAPenetrationWrapper.obj
 0001:00038af0       ??_E?$EPASupportMapPairLocalImpl@VTriangleV@Gu@physx@@VConvexHullV@23@@Gu@physx@@UAEPAXI@Z 10039af0 f i GuEPAPenetrationWrapper.obj
 0001:00038af0       ??_G?$EPASupportMapPairLocalImpl@VTriangleV@Gu@physx@@VConvexHullV@23@@Gu@physx@@UAEPAXI@Z 10039af0 f i GuEPAPenetrationWrapper.obj
 0001:00038b20       ??_G?$EPASupportMapPairRelativeImpl@VBoxV@Gu@physx@@V123@@Gu@physx@@UAEPAXI@Z 10039b20 f i GuEPAPenetrationWrapper.obj
 0001:00038b20       ??_E?$EPASupportMapPairRelativeImpl@VBoxV@Gu@physx@@V123@@Gu@physx@@UAEPAXI@Z 10039b20 f i GuEPAPenetrationWrapper.obj
 0001:00038b50       ??_G?$EPASupportMapPairRelativeImpl@VBoxV@Gu@physx@@VConvexHullV@23@@Gu@physx@@UAEPAXI@Z 10039b50 f i GuEPAPenetrationWrapper.obj
 0001:00038b50       ??_E?$EPASupportMapPairRelativeImpl@VBoxV@Gu@physx@@VConvexHullV@23@@Gu@physx@@UAEPAXI@Z 10039b50 f i GuEPAPenetrationWrapper.obj
 0001:00038b80       ??_G?$EPASupportMapPairRelativeImpl@VConvexHullNoScaleV@Gu@physx@@V123@@Gu@physx@@UAEPAXI@Z 10039b80 f i GuEPAPenetrationWrapper.obj
 0001:00038b80       ??_E?$EPASupportMapPairRelativeImpl@VConvexHullNoScaleV@Gu@physx@@V123@@Gu@physx@@UAEPAXI@Z 10039b80 f i GuEPAPenetrationWrapper.obj
 0001:00038bb0       ??_E?$EPASupportMapPairRelativeImpl@VConvexHullNoScaleV@Gu@physx@@VConvexHullV@23@@Gu@physx@@UAEPAXI@Z 10039bb0 f i GuEPAPenetrationWrapper.obj
 0001:00038bb0       ??_G?$EPASupportMapPairRelativeImpl@VConvexHullNoScaleV@Gu@physx@@VConvexHullV@23@@Gu@physx@@UAEPAXI@Z 10039bb0 f i GuEPAPenetrationWrapper.obj
 0001:00038be0       ??_E?$EPASupportMapPairRelativeImpl@VConvexHullV@Gu@physx@@V123@@Gu@physx@@UAEPAXI@Z 10039be0 f i GuEPAPenetrationWrapper.obj
 0001:00038be0       ??_G?$EPASupportMapPairRelativeImpl@VConvexHullV@Gu@physx@@V123@@Gu@physx@@UAEPAXI@Z 10039be0 f i GuEPAPenetrationWrapper.obj
 0001:00038c10       ??_E?$EPASupportMapPairRelativeImpl@VConvexHullV@Gu@physx@@VConvexHullNoScaleV@23@@Gu@physx@@UAEPAXI@Z 10039c10 f i GuEPAPenetrationWrapper.obj
 0001:00038c10       ??_G?$EPASupportMapPairRelativeImpl@VConvexHullV@Gu@physx@@VConvexHullNoScaleV@23@@Gu@physx@@UAEPAXI@Z 10039c10 f i GuEPAPenetrationWrapper.obj
 0001:00038c40       ??_GEPASupportMapPair@Gu@physx@@UAEPAXI@Z 10039c40 f i GuEPAPenetrationWrapper.obj
 0001:00038c40       ??_EEPASupportMapPair@Gu@physx@@UAEPAXI@Z 10039c40 f i GuEPAPenetrationWrapper.obj
 0001:00038c70       ?doSupport@?$EPASupportMapPairLocalImpl@VCapsuleV@Gu@physx@@VBoxV@23@@Gu@physx@@UBEXABT__m128@@AAT4@11@Z 10039c70 f i GuEPAPenetrationWrapper.obj
 0001:00038d10       ?doSupport@?$EPASupportMapPairLocalImpl@VCapsuleV@Gu@physx@@VConvexHullV@23@@Gu@physx@@UBEXABT__m128@@AAT4@11@Z 10039d10 f i GuEPAPenetrationWrapper.obj
 0001:00039120       ?doSupport@?$EPASupportMapPairLocalImpl@VTriangleV@Gu@physx@@VBoxV@23@@Gu@physx@@UBEXABT__m128@@AAT4@11@Z 1003a120 f i GuEPAPenetrationWrapper.obj
 0001:00039200       ?doSupport@?$EPASupportMapPairLocalImpl@VTriangleV@Gu@physx@@VConvexHullV@23@@Gu@physx@@UBEXABT__m128@@AAT4@11@Z 1003a200 f i GuEPAPenetrationWrapper.obj
 0001:00039660       ?doSupport@?$EPASupportMapPairRelativeImpl@VBoxV@Gu@physx@@V123@@Gu@physx@@UBEXABT__m128@@AAT4@11@Z 1003a660 f i GuEPAPenetrationWrapper.obj
 0001:00039740       ?doSupport@?$EPASupportMapPairRelativeImpl@VBoxV@Gu@physx@@VConvexHullV@23@@Gu@physx@@UBEXABT__m128@@AAT4@11@Z 1003a740 f i GuEPAPenetrationWrapper.obj
 0001:00039b90       ?doSupport@?$EPASupportMapPairRelativeImpl@VConvexHullNoScaleV@Gu@physx@@V123@@Gu@physx@@UBEXABT__m128@@AAT4@11@Z 1003ab90 f i GuEPAPenetrationWrapper.obj
 0001:0003a290       ?doSupport@?$EPASupportMapPairRelativeImpl@VConvexHullNoScaleV@Gu@physx@@VConvexHullV@23@@Gu@physx@@UBEXABT__m128@@AAT4@11@Z 1003b290 f i GuEPAPenetrationWrapper.obj
 0001:0003a9f0       ?doSupport@?$EPASupportMapPairRelativeImpl@VConvexHullV@Gu@physx@@V123@@Gu@physx@@UBEXABT__m128@@AAT4@11@Z 1003b9f0 f i GuEPAPenetrationWrapper.obj
 0001:0003b1b0       ?doSupport@?$EPASupportMapPairRelativeImpl@VConvexHullV@Gu@physx@@VConvexHullNoScaleV@23@@Gu@physx@@UBEXABT__m128@@AAT4@11@Z 1003c1b0 f i GuEPAPenetrationWrapper.obj
 0001:0003b910       ?doWarmStartSupport@?$EPASupportMapPairLocalImpl@VCapsuleV@Gu@physx@@VBoxV@23@@Gu@physx@@UBEXHHAAT__m128@@00@Z 1003c910 f i GuEPAPenetrationWrapper.obj
 0001:0003b970       ?doWarmStartSupport@?$EPASupportMapPairLocalImpl@VCapsuleV@Gu@physx@@VConvexHullV@23@@Gu@physx@@UBEXHHAAT__m128@@00@Z 1003c970 f i GuEPAPenetrationWrapper.obj
 0001:0003b9f0       ?doWarmStartSupport@?$EPASupportMapPairLocalImpl@VTriangleV@Gu@physx@@VBoxV@23@@Gu@physx@@UBEXHHAAT__m128@@00@Z 1003c9f0 f i GuEPAPenetrationWrapper.obj
 0001:0003ba50       ?doWarmStartSupport@?$EPASupportMapPairLocalImpl@VTriangleV@Gu@physx@@VConvexHullV@23@@Gu@physx@@UBEXHHAAT__m128@@00@Z 1003ca50 f i GuEPAPenetrationWrapper.obj
 0001:0003bad0       ?doWarmStartSupport@?$EPASupportMapPairRelativeImpl@VBoxV@Gu@physx@@V123@@Gu@physx@@UBEXHHAAT__m128@@00@Z 1003cad0 f i GuEPAPenetrationWrapper.obj
 0001:0003bb70       ?doWarmStartSupport@?$EPASupportMapPairRelativeImpl@VBoxV@Gu@physx@@VConvexHullV@23@@Gu@physx@@UBEXHHAAT__m128@@00@Z 1003cb70 f i GuEPAPenetrationWrapper.obj
 0001:0003bc40       ?doWarmStartSupport@?$EPASupportMapPairRelativeImpl@VConvexHullNoScaleV@Gu@physx@@V123@@Gu@physx@@UBEXHHAAT__m128@@00@Z 1003cc40 f i GuEPAPenetrationWrapper.obj
 0001:0003bce0       ?doWarmStartSupport@?$EPASupportMapPairRelativeImpl@VConvexHullNoScaleV@Gu@physx@@VConvexHullV@23@@Gu@physx@@UBEXHHAAT__m128@@00@Z 1003cce0 f i GuEPAPenetrationWrapper.obj
 0001:0003bdb0       ?doWarmStartSupport@?$EPASupportMapPairRelativeImpl@VConvexHullV@Gu@physx@@V123@@Gu@physx@@UBEXHHAAT__m128@@00@Z 1003cdb0 f i GuEPAPenetrationWrapper.obj
 0001:0003bea0       ?doWarmStartSupport@?$EPASupportMapPairRelativeImpl@VConvexHullV@Gu@physx@@VConvexHullNoScaleV@23@@Gu@physx@@UBEXHHAAT__m128@@00@Z 1003cea0 f i GuEPAPenetrationWrapper.obj
 0001:0003bf70       ?getDir@?$EPASupportMapPairLocalImpl@VCapsuleV@Gu@physx@@VBoxV@23@@Gu@physx@@UBE?AT__m128@@XZ 1003cf70 f i GuEPAPenetrationWrapper.obj
 0001:0003bf90       ?getDir@?$EPASupportMapPairLocalImpl@VCapsuleV@Gu@physx@@VConvexHullV@23@@Gu@physx@@UBE?AT__m128@@XZ 1003cf90 f i GuEPAPenetrationWrapper.obj
 0001:0003bfb0       ?getDir@?$EPASupportMapPairLocalImpl@VTriangleV@Gu@physx@@VBoxV@23@@Gu@physx@@UBE?AT__m128@@XZ 1003cfb0 f i GuEPAPenetrationWrapper.obj
 0001:0003bfd0       ?getDir@?$EPASupportMapPairLocalImpl@VTriangleV@Gu@physx@@VConvexHullV@23@@Gu@physx@@UBE?AT__m128@@XZ 1003cfd0 f i GuEPAPenetrationWrapper.obj
 0001:0003bff0       ?getDir@?$EPASupportMapPairRelativeImpl@VBoxV@Gu@physx@@V123@@Gu@physx@@UBE?AT__m128@@XZ 1003cff0 f i GuEPAPenetrationWrapper.obj
 0001:0003c010       ?getDir@?$EPASupportMapPairRelativeImpl@VBoxV@Gu@physx@@VConvexHullV@23@@Gu@physx@@UBE?AT__m128@@XZ 1003d010 f i GuEPAPenetrationWrapper.obj
 0001:0003c030       ?getDir@?$EPASupportMapPairRelativeImpl@VConvexHullNoScaleV@Gu@physx@@V123@@Gu@physx@@UBE?AT__m128@@XZ 1003d030 f i GuEPAPenetrationWrapper.obj
 0001:0003c050       ?getDir@?$EPASupportMapPairRelativeImpl@VConvexHullNoScaleV@Gu@physx@@VConvexHullV@23@@Gu@physx@@UBE?AT__m128@@XZ 1003d050 f i GuEPAPenetrationWrapper.obj
 0001:0003c070       ?getDir@?$EPASupportMapPairRelativeImpl@VConvexHullV@Gu@physx@@V123@@Gu@physx@@UBE?AT__m128@@XZ 1003d070 f i GuEPAPenetrationWrapper.obj
 0001:0003c090       ?getDir@?$EPASupportMapPairRelativeImpl@VConvexHullV@Gu@physx@@VConvexHullNoScaleV@23@@Gu@physx@@UBE?AT__m128@@XZ 1003d090 f i GuEPAPenetrationWrapper.obj
 0001:0003c0b0       ?gjkRelativeFallback@Gu@physx@@YAIABVConvexV@12@0PAVSupportMap@12@1ABT__m128@@AAT5@333@Z 1003d0b0 f   GuGJKFallBack.obj
 0001:0003c460       ?doSupportMappingPair@Gu@physx@@YA?AT__m128@@ABVConvexV@12@0PAVSupportMap@12@1T3@PAT3@33IAAUSimplexStack@12@@Z 1003d460 f   GuGJKFallBack.obj
 0001:0003c6b0       ?pushSimplex@SimplexStack@Gu@physx@@QAEXPAT__m128@@00I@Z 1003d6b0 f i GuGJKFallBack.obj
 0001:0003c750       ?GJKLocalPenetration@Gu@physx@@YAIABVCapsuleV@12@ABVBoxV@12@ABT__m128@@AAT5@333PIAE4AAE_N@Z 1003d750 f   GuGJKPenetrationWrapper.obj
 0001:0003def0       ?GJKLocalPenetration@Gu@physx@@YAIABVCapsuleV@12@ABVShrunkBoxV@12@ABT__m128@@AAT5@333PIAE4AAE_N@Z 1003eef0 f   GuGJKPenetrationWrapper.obj
 0001:0003f6b0       ?GJKLocalPenetration@Gu@physx@@YAIABVCapsuleV@12@ABVConvexHullV@12@ABT__m128@@AAT5@333PIAE4AAE_N@Z 100406b0 f   GuGJKPenetrationWrapper.obj
 0001:00041240       ?GJKLocalPenetration@Gu@physx@@YAIABVCapsuleV@12@ABVConvexHullNoScaleV@12@ABT__m128@@AAT5@333PIAE4AAE_N@Z 10042240 f   GuGJKPenetrationWrapper.obj
 0001:00042ca0       ?GJKLocalPenetration@Gu@physx@@YAIABVCapsuleV@12@ABVShrunkConvexHullV@12@ABT__m128@@AAT5@333PIAE4AAE_N@Z 10043ca0 f   GuGJKPenetrationWrapper.obj
 0001:00044ed0       ?GJKLocalPenetration@Gu@physx@@YAIABVCapsuleV@12@ABVShrunkConvexHullNoScaleV@12@ABT__m128@@AAT5@333PIAE4AAE_N@Z 10045ed0 f   GuGJKPenetrationWrapper.obj
 0001:00046e90       ?GJKLocalPenetration@Gu@physx@@YAIABVTriangleV@12@ABVBoxV@12@ABT__m128@@AAT5@333PIAE4AAE_N@Z 10047e90 f   GuGJKPenetrationWrapper.obj
 0001:000486c0       ?GJKLocalPenetration@Gu@physx@@YAIABVTriangleV@12@ABVConvexHullV@12@ABT__m128@@AAT5@333PIAE4AAE_N@Z 100496c0 f   GuGJKPenetrationWrapper.obj
 0001:0004a2e0       ?GJKLocalPenetration@Gu@physx@@YAIABVTriangleV@12@ABVConvexHullNoScaleV@12@ABT__m128@@AAT5@333PIAE4AAE_N@Z 1004b2e0 f   GuGJKPenetrationWrapper.obj
 0001:0004bdd0       ?GJKLocalPenetration@Gu@physx@@YAIABVTriangleV@12@0ABT__m128@@AAT4@222PIAE3AAE_N@Z 1004cdd0 f   GuGJKPenetrationWrapper.obj
 0001:0004d690       ?GJKRelativePenetration@Gu@physx@@YAIABVBoxV@12@0ABVPsMatTransformV@aos@shdfnd@2@ABT__m128@@AAT7@333PIAE4AAE@Z 1004e690 f   GuGJKPenetrationWrapper.obj
 0001:0004edb0       ?GJKRelativePenetration@Gu@physx@@YAIABVBoxV@12@ABVConvexHullV@12@ABVPsMatTransformV@aos@shdfnd@2@ABT__m128@@AAT8@444PIAE5AAE@Z 1004fdb0 f   GuGJKPenetrationWrapper.obj
 0001:00050870       ?GJKRelativePenetration@Gu@physx@@YAIABVShrunkBoxV@12@0ABVPsMatTransformV@aos@shdfnd@2@ABT__m128@@AAT7@333PIAE4AAE@Z 10051870 f   GuGJKPenetrationWrapper.obj
 0001:00051fe0       ?GJKRelativePenetration@Gu@physx@@YAIABVShrunkBoxV@12@ABVShrunkConvexHullV@12@ABVPsMatTransformV@aos@shdfnd@2@ABT__m128@@AAT8@444PIAE5AAE@Z 10052fe0 f   GuGJKPenetrationWrapper.obj
 0001:00054150       ?GJKRelativePenetration@Gu@physx@@YAIABVShrunkBoxV@12@ABVShrunkConvexHullNoScaleV@12@ABVPsMatTransformV@aos@shdfnd@2@ABT__m128@@AAT8@444PIAE5AAE@Z 10055150 f   GuGJKPenetrationWrapper.obj
 0001:00056000       ?GJKRelativePenetration@Gu@physx@@YAIABVConvexHullV@12@0ABVPsMatTransformV@aos@shdfnd@2@ABT__m128@@AAT7@333PIAE4AAE@Z 10057000 f   GuGJKPenetrationWrapper.obj
 0001:00057d60       ?GJKRelativePenetration@Gu@physx@@YAIABVShrunkConvexHullV@12@0ABVPsMatTransformV@aos@shdfnd@2@ABT__m128@@AAT7@333PIAE4AAE@Z 10058d60 f   GuGJKPenetrationWrapper.obj
 0001:0005a760       ?GJKRelativePenetration@Gu@physx@@YAIABVShrunkConvexHullNoScaleV@12@0ABVPsMatTransformV@aos@shdfnd@2@ABT__m128@@AAT7@333PIAE4AAE@Z 1005b760 f   GuGJKPenetrationWrapper.obj
 0001:0005cce0       ?GJKRelativePenetration@Gu@physx@@YAIABVShrunkConvexHullNoScaleV@12@ABVShrunkConvexHullV@12@ABVPsMatTransformV@aos@shdfnd@2@ABT__m128@@AAT8@444PIAE5AAE@Z 1005dce0 f   GuGJKPenetrationWrapper.obj
 0001:0005f490       ?GJKRelativePenetration@Gu@physx@@YAIABVShrunkConvexHullV@12@ABVShrunkConvexHullNoScaleV@12@ABVPsMatTransformV@aos@shdfnd@2@ABT__m128@@AAT8@444PIAE5AAE@Z 10060490 f   GuGJKPenetrationWrapper.obj
 0001:00061c30       ?GJKRelativePenetration@Gu@physx@@YAIABVTriangleV@12@ABVBoxV@12@ABVPsMatTransformV@aos@shdfnd@2@ABT__m128@@AAT8@444@Z 10062c30 f   GuGJKPenetrationWrapper.obj
 0001:00062a20       ?GJKRelativePenetration@Gu@physx@@YAIABVTriangleV@12@ABVCapsuleV@12@ABVPsMatTransformV@aos@shdfnd@2@ABT__m128@@AAT8@444@Z 10063a20 f   GuGJKPenetrationWrapper.obj
 0001:00063840       ?GJKRelativePenetration@Gu@physx@@YAIABVTriangleV@12@ABVConvexHullV@12@ABVPsMatTransformV@aos@shdfnd@2@ABT__m128@@AAT8@444@Z 10064840 f   GuGJKPenetrationWrapper.obj
 0001:000649a0       ?GJKRelativePenetration@Gu@physx@@YAIABVCapsuleV@12@0ABVPsMatTransformV@aos@shdfnd@2@ABT__m128@@AAT7@333@Z 100659a0 f   GuGJKPenetrationWrapper.obj
 0001:00065780       ?GJKRelativePenetration@Gu@physx@@YAIABVCapsuleV@12@ABVBoxV@12@ABVPsMatTransformV@aos@shdfnd@2@ABT__m128@@AAT8@444@Z 10066780 f   GuGJKPenetrationWrapper.obj
 0001:00066530       ?GJKRelativePenetration@Gu@physx@@YAIABVCapsuleV@12@ABVConvexHullV@12@ABVPsMatTransformV@aos@shdfnd@2@ABT__m128@@AAT8@444@Z 10067530 f   GuGJKPenetrationWrapper.obj
 0001:00067610       ?GJKRelativePenetration@Gu@physx@@YAIABVBoxV@12@0ABVPsMatTransformV@aos@shdfnd@2@ABT__m128@@AAT7@333@Z 10068610 f   GuGJKPenetrationWrapper.obj
 0001:00068340       ?GJKRelativePenetration@Gu@physx@@YAIABVBoxV@12@ABVConvexHullV@12@ABVPsMatTransformV@aos@shdfnd@2@ABT__m128@@AAT8@444@Z 10069340 f   GuGJKPenetrationWrapper.obj
 0001:00069470       ?GJKRelativePenetration@Gu@physx@@YAIABVConvexHullV@12@0ABVPsMatTransformV@aos@shdfnd@2@ABT__m128@@AAT7@333@Z 1006a470 f   GuGJKPenetrationWrapper.obj
 0001:0006a7e0       ?GJKRelativePenetration@Gu@physx@@YAIABVShrunkConvexHullV@12@0ABVPsMatTransformV@aos@shdfnd@2@ABT__m128@@AAT7@333@Z 1006b7e0 f   GuGJKPenetrationWrapper.obj
 0001:0006c190       ?ComputeCubemapNearestOffset@physx@@YAIABVPxVec3@1@I@Z 1006d190 f i GuGJKPenetrationWrapper.obj
 0001:0006c230       ?closestPtPointTetrahedron@Gu@physx@@YA?AT__m128@@PIAT3@00AAI@Z 1006d230 f   GuGJKSimplex.obj
 0001:0006cb30       ?closestPtPointTetrahedron@Gu@physx@@YA?AT__m128@@PIAT3@00PIAH1AAI@Z 1006db30 f   GuGJKSimplex.obj
 0001:0006e940       ?closestPtPointSegmentTesselation@Gu@physx@@YA?AT__m128@@ABT3@00000AAIAAT3@2@Z 1006f940 f   GuGJKSimplexTesselation.obj
 0001:0006ed20       ?closestPtPointTetrahedronTesselation@Gu@physx@@YA?AT__m128@@PIAT3@00AAIAAT3@2@Z 1006fd20 f   GuGJKSimplexTesselation.obj
 0001:0006f450       ?closestPtPointTriangleTesselation@Gu@physx@@YA?AT__m128@@PIAT3@00PIAIAAIAAT3@3@Z 10070450 f   GuGJKSimplexTesselation.obj
 0001:0006ffe0       ?GJKRelative@Gu@physx@@YAIABVCapsuleV@12@ABVConvexHullV@12@ABVPsMatTransformV@aos@shdfnd@2@AAT__m128@@333@Z 10070fe0 f   GuGJKWrapper.obj
 0001:0006fff0       ?GJKRelative@Gu@physx@@YAIABVCapsuleV@12@ABVBoxV@12@ABVPsMatTransformV@aos@shdfnd@2@AAT__m128@@333@Z 10070ff0 f   GuGJKWrapper.obj
 0001:00070000       ?GJKRelative@Gu@physx@@YAIABVBoxV@12@0ABVPsMatTransformV@aos@shdfnd@2@AAT__m128@@222@Z 10071000 f   GuGJKWrapper.obj
 0001:00070010       ?GJKRelative@Gu@physx@@YAIABVBoxV@12@ABVConvexHullV@12@ABVPsMatTransformV@aos@shdfnd@2@AAT__m128@@333@Z 10071010 f   GuGJKWrapper.obj
 0001:00070020       ?GJKRelative@Gu@physx@@YAIABVConvexHullV@12@0ABVPsMatTransformV@aos@shdfnd@2@AAT__m128@@222@Z 10071020 f   GuGJKWrapper.obj
 0001:00070030       ?GJKRelative@Gu@physx@@YAIABVTriangleV@12@ABVBoxV@12@ABVPsMatTransformV@aos@shdfnd@2@AAT__m128@@333@Z 10071030 f   GuGJKWrapper.obj
 0001:00070040       ?GJKRelative@Gu@physx@@YAIABVTriangleV@12@ABVConvexHullV@12@ABVPsMatTransformV@aos@shdfnd@2@AAT__m128@@333@Z 10071040 f   GuGJKWrapper.obj
 0001:00070050       ?GJKLocal@Gu@physx@@YAIABVCapsuleV@12@ABVConvexHullV@12@AAT__m128@@222@Z 10071050 f   GuGJKWrapper.obj
 0001:00070060       ?GJKLocal@Gu@physx@@YAIABVTriangleV@12@ABVBoxV@12@AAT__m128@@222@Z 10071060 f   GuGJKWrapper.obj
 0001:00070070       ?GJKLocal@Gu@physx@@YAIABVTriangleV@12@ABVConvexHullV@12@AAT__m128@@222@Z 10071070 f   GuGJKWrapper.obj
 0001:00070080       ?GJKRelativeTesselation@Gu@physx@@YAIABVBoxV@12@ABVConvexHullV@12@ABVPsMatTransformV@aos@shdfnd@2@ABT__m128@@AAT8@444@Z 10071080 f   GuGJKWrapper.obj
 0001:00070090       ?GJKRelativeTesselation@Gu@physx@@YAIABVConvexHullV@12@0ABVPsMatTransformV@aos@shdfnd@2@ABT__m128@@AAT7@333@Z 10071090 f   GuGJKWrapper.obj
 0001:000700a0       ?GJKLocalRayCast@Gu@physx@@YA_NAAVTriangleV@12@AAVCapsuleV@12@ABT__m128@@22AAT5@33M_N@Z 100710a0 f   GuGJKWrapper.obj
 0001:000700e0       ?GJKLocalRayCast@Gu@physx@@YA_NAAVTriangleV@12@AAVBoxV@12@ABT__m128@@22AAT5@33M_N@Z 100710e0 f   GuGJKWrapper.obj
 0001:00070120       ?GJKLocalRayCast@Gu@physx@@YA_NAAVTriangleV@12@AAVConvexHullV@12@ABT__m128@@22AAT5@33M_N@Z 10071120 f   GuGJKWrapper.obj
 0001:00070160       ?GJKLocalRayCast@Gu@physx@@YA_NAAVCapsuleV@12@AAVBoxV@12@ABT__m128@@22AAT5@33M_N@Z 10071160 f   GuGJKWrapper.obj
 0001:000701a0       ?GJKLocalRayCast@Gu@physx@@YA_NAAVCapsuleV@12@AAVConvexHullV@12@ABT__m128@@22AAT5@33M_N@Z 100711a0 f   GuGJKWrapper.obj
 0001:000701e0       ?GJKRelativeRayCast@Gu@physx@@YA_NAAVTriangleV@12@AAVBoxV@12@ABVPsMatTransformV@aos@shdfnd@2@ABT__m128@@33AAT8@44M_N@Z 100711e0 f   GuGJKWrapper.obj
 0001:00070220       ?GJKRelativeRayCast@Gu@physx@@YA_NAAVTriangleV@12@AAVCapsuleV@12@ABVPsMatTransformV@aos@shdfnd@2@ABT__m128@@33AAT8@44M_N@Z 10071220 f   GuGJKWrapper.obj
 0001:00070260       ?GJKRelativeRayCast@Gu@physx@@YA_NAAVTriangleV@12@AAVConvexHullV@12@ABVPsMatTransformV@aos@shdfnd@2@ABT__m128@@33AAT8@44M_N@Z 10071260 f   GuGJKWrapper.obj
 0001:000702a0       ?GJKRelativeRayCast@Gu@physx@@YA_NAAVCapsuleV@12@0ABVPsMatTransformV@aos@shdfnd@2@ABT__m128@@22AAT7@33M_N@Z 100712a0 f   GuGJKWrapper.obj
 0001:000702e0       ?GJKRelativeRayCast@Gu@physx@@YA_NAAVCapsuleV@12@AAVBoxV@12@ABVPsMatTransformV@aos@shdfnd@2@ABT__m128@@33AAT8@44M_N@Z 100712e0 f   GuGJKWrapper.obj
 0001:00070320       ?GJKRelativeRayCast@Gu@physx@@YA_NAAVCapsuleV@12@AAVConvexHullV@12@ABVPsMatTransformV@aos@shdfnd@2@ABT__m128@@33AAT8@44M_N@Z 10071320 f   GuGJKWrapper.obj
 0001:00070360       ?GJKRelativeRayCast@Gu@physx@@YA_NAAVBoxV@12@0ABVPsMatTransformV@aos@shdfnd@2@ABT__m128@@22AAT7@33M_N@Z 10071360 f   GuGJKWrapper.obj
 0001:000703a0       ?GJKRelativeRayCast@Gu@physx@@YA_NAAVBoxV@12@AAVConvexHullV@12@ABVPsMatTransformV@aos@shdfnd@2@ABT__m128@@33AAT8@44M_N@Z 100713a0 f   GuGJKWrapper.obj
 0001:000703e0       ?GJKRelativeRayCast@Gu@physx@@YA_NAAVConvexHullV@12@0ABVPsMatTransformV@aos@shdfnd@2@ABT__m128@@22AAT7@33M_N@Z 100713e0 f   GuGJKWrapper.obj
 0001:00070420       ??$_gjkLocalRayCast@VCapsuleV@Gu@physx@@VBoxV@23@@Gu@physx@@YA_NAAVCapsuleV@01@AAVBoxV@01@ABT__m128@@22AAT4@33M@Z 10071420 f i GuGJKWrapper.obj
 0001:00071150       ??$_gjkLocalRayCast@VCapsuleV@Gu@physx@@VConvexHullV@23@@Gu@physx@@YA_NAAVCapsuleV@01@AAVConvexHullV@01@ABT__m128@@22AAT4@33M@Z 10072150 f i GuGJKWrapper.obj
 0001:00072930       ??$_gjkLocalRayCast@VTriangleV@Gu@physx@@VBoxV@23@@Gu@physx@@YA_NAAVTriangleV@01@AAVBoxV@01@ABT__m128@@22AAT4@33M@Z 10073930 f i GuGJKWrapper.obj
 0001:000736e0       ??$_gjkLocalRayCast@VTriangleV@Gu@physx@@VCapsuleV@23@@Gu@physx@@YA_NAAVTriangleV@01@AAVCapsuleV@01@ABT__m128@@22AAT4@33M@Z 100746e0 f i GuGJKWrapper.obj
 0001:00074500       ??$_gjkLocalRayCast@VTriangleV@Gu@physx@@VConvexHullV@23@@Gu@physx@@YA_NAAVTriangleV@01@AAVConvexHullV@01@ABT__m128@@22AAT4@33M@Z 10075500 f i GuGJKWrapper.obj
 0001:00075da0       ??$_gjkRelativeRayCast@VBoxV@Gu@physx@@V123@@Gu@physx@@YA_NAAVBoxV@01@0ABVPsMatTransformV@aos@shdfnd@1@ABT__m128@@22AAT6@33M@Z 10076da0 f i GuGJKWrapper.obj
 0001:00076bb0       ??$_gjkRelativeRayCast@VBoxV@Gu@physx@@VConvexHullV@23@@Gu@physx@@YA_NAAVBoxV@01@AAVConvexHullV@01@ABVPsMatTransformV@aos@shdfnd@1@ABT__m128@@33AAT7@44M@Z 10077bb0 f i GuGJKWrapper.obj
 0001:00078400       ??$_gjkRelativeRayCast@VCapsuleV@Gu@physx@@V123@@Gu@physx@@YA_NAAVCapsuleV@01@0ABVPsMatTransformV@aos@shdfnd@1@ABT__m128@@22AAT6@33M@Z 10079400 f i GuGJKWrapper.obj
 0001:000792e0       ??$_gjkRelativeRayCast@VCapsuleV@Gu@physx@@VBoxV@23@@Gu@physx@@YA_NAAVCapsuleV@01@AAVBoxV@01@ABVPsMatTransformV@aos@shdfnd@1@ABT__m128@@33AAT7@44M@Z 1007a2e0 f i GuGJKWrapper.obj
 0001:0007a0f0       ??$_gjkRelativeRayCast@VCapsuleV@Gu@physx@@VConvexHullV@23@@Gu@physx@@YA_NAAVCapsuleV@01@AAVConvexHullV@01@ABVPsMatTransformV@aos@shdfnd@1@ABT__m128@@33AAT7@44M@Z 1007b0f0 f i GuGJKWrapper.obj
 0001:0007b9d0       ??$_gjkRelativeRayCast@VConvexHullV@Gu@physx@@V123@@Gu@physx@@YA_NAAVConvexHullV@01@0ABVPsMatTransformV@aos@shdfnd@1@ABT__m128@@22AAT6@33M@Z 1007c9d0 f i GuGJKWrapper.obj
 0001:0007d7b0       ??$_gjkRelativeRayCast@VTriangleV@Gu@physx@@VBoxV@23@@Gu@physx@@YA_NAAVTriangleV@01@AAVBoxV@01@ABVPsMatTransformV@aos@shdfnd@1@ABT__m128@@33AAT7@44M@Z 1007e7b0 f i GuGJKWrapper.obj
 0001:0007e660       ??$_gjkRelativeRayCast@VTriangleV@Gu@physx@@VCapsuleV@23@@Gu@physx@@YA_NAAVTriangleV@01@AAVCapsuleV@01@ABVPsMatTransformV@aos@shdfnd@1@ABT__m128@@33AAT7@44M@Z 1007f660 f i GuGJKWrapper.obj
 0001:0007f5c0       ??$_gjkRelativeRayCast@VTriangleV@Gu@physx@@VConvexHullV@23@@Gu@physx@@YA_NAAVTriangleV@01@AAVConvexHullV@01@ABVPsMatTransformV@aos@shdfnd@1@ABT__m128@@33AAT7@44M@Z 100805c0 f i GuGJKWrapper.obj
 0001:00080e60       ??$gjkLocal@VCapsuleV@Gu@physx@@VConvexHullV@23@@Gu@physx@@YAIABVCapsuleV@01@ABVConvexHullV@01@AAT__m128@@222@Z 10081e60 f i GuGJKWrapper.obj
 0001:00082060       ??$gjkLocal@VTriangleV@Gu@physx@@VBoxV@23@@Gu@physx@@YAIABVTriangleV@01@ABVBoxV@01@AAT__m128@@222@Z 10083060 f i GuGJKWrapper.obj
 0001:00082e80       ??$gjkLocal@VTriangleV@Gu@physx@@VConvexHullV@23@@Gu@physx@@YAIABVTriangleV@01@ABVConvexHullV@01@AAT__m128@@222@Z 10083e80 f i GuGJKWrapper.obj
 0001:000840d0       ??$gjkLocalRayCast@VCapsuleV@Gu@physx@@VBoxV@23@V123@VShrunkBoxV@23@@Gu@physx@@YA_NAAVCapsuleV@01@AAVBoxV@01@ABT__m128@@22AAT4@33M_N@Z 100850d0 f i GuGJKWrapper.obj
 0001:00084fd0       ??$gjkLocalRayCast@VCapsuleV@Gu@physx@@VConvexHullV@23@V123@VShrunkConvexHullV@23@@Gu@physx@@YA_NAAVCapsuleV@01@AAVConvexHullV@01@ABT__m128@@22AAT4@33M_N@Z 10085fd0 f i GuGJKWrapper.obj
 0001:00086470       ??$gjkLocalRayCast@VTriangleV@Gu@physx@@VBoxV@23@V123@VShrunkBoxV@23@@Gu@physx@@YA_NAAVTriangleV@01@AAVBoxV@01@ABT__m128@@22AAT4@33M_N@Z 10087470 f i GuGJKWrapper.obj
 0001:000873d0       ??$gjkLocalRayCast@VTriangleV@Gu@physx@@VCapsuleV@23@V123@V423@@Gu@physx@@YA_NAAVTriangleV@01@AAVCapsuleV@01@ABT__m128@@22AAT4@33M_N@Z 100883d0 f i GuGJKWrapper.obj
 0001:00088360       ??$gjkLocalRayCast@VTriangleV@Gu@physx@@VConvexHullV@23@V123@VShrunkConvexHullV@23@@Gu@physx@@YA_NAAVTriangleV@01@AAVConvexHullV@01@ABT__m128@@22AAT4@33M_N@Z 10089360 f i GuGJKWrapper.obj
 0001:000898b0       ??$gjkRelative@VBoxV@Gu@physx@@V123@@Gu@physx@@YAIABVBoxV@01@0ABVPsMatTransformV@aos@shdfnd@1@AAT__m128@@222@Z 1008a8b0 f i GuGJKWrapper.obj
 0001:0008a700       ??$gjkRelative@VBoxV@Gu@physx@@VConvexHullV@23@@Gu@physx@@YAIABVBoxV@01@ABVConvexHullV@01@ABVPsMatTransformV@aos@shdfnd@1@AAT__m128@@333@Z 1008b700 f i GuGJKWrapper.obj
 0001:0008b940       ??$gjkRelative@VCapsuleV@Gu@physx@@VBoxV@23@@Gu@physx@@YAIABVCapsuleV@01@ABVBoxV@01@ABVPsMatTransformV@aos@shdfnd@1@AAT__m128@@333@Z 1008c940 f i GuGJKWrapper.obj
 0001:0008c7e0       ??$gjkRelative@VCapsuleV@Gu@physx@@VConvexHullV@23@@Gu@physx@@YAIABVCapsuleV@01@ABVConvexHullV@01@ABVPsMatTransformV@aos@shdfnd@1@AAT__m128@@333@Z 1008d7e0 f i GuGJKWrapper.obj
 0001:0008da50       ??$gjkRelative@VConvexHullV@Gu@physx@@V123@@Gu@physx@@YAIABVConvexHullV@01@0ABVPsMatTransformV@aos@shdfnd@1@AAT__m128@@222@Z 1008ea50 f i GuGJKWrapper.obj
 0001:0008ef80       ??$gjkRelative@VTriangleV@Gu@physx@@VBoxV@23@@Gu@physx@@YAIABVTriangleV@01@ABVBoxV@01@ABVPsMatTransformV@aos@shdfnd@1@AAT__m128@@333@Z 1008ff80 f i GuGJKWrapper.obj
 0001:0008fe10       ??$gjkRelative@VTriangleV@Gu@physx@@VConvexHullV@23@@Gu@physx@@YAIABVTriangleV@01@ABVConvexHullV@01@ABVPsMatTransformV@aos@shdfnd@1@AAT__m128@@333@Z 10090e10 f i GuGJKWrapper.obj
 0001:000910b0       ??$gjkRelativeRayCast@VBoxV@Gu@physx@@V123@VShrunkBoxV@23@V423@@Gu@physx@@YA_NAAVBoxV@01@0ABVPsMatTransformV@aos@shdfnd@1@ABT__m128@@22AAT6@33M_N@Z 100920b0 f i GuGJKWrapper.obj
 0001:00091ec0       ??$gjkRelativeRayCast@VBoxV@Gu@physx@@VConvexHullV@23@VShrunkBoxV@23@VShrunkConvexHullV@23@@Gu@physx@@YA_NAAVBoxV@01@AAVConvexHullV@01@ABVPsMatTransformV@aos@shdfnd@1@ABT__m128@@33AAT7@44M_N@Z 10092ec0 f i GuGJKWrapper.obj
 0001:00093300       ??$gjkRelativeRayCast@VCapsuleV@Gu@physx@@V123@V123@V123@@Gu@physx@@YA_NAAVCapsuleV@01@0ABVPsMatTransformV@aos@shdfnd@1@ABT__m128@@22AAT6@33M_N@Z 10094300 f i GuGJKWrapper.obj
 0001:00094180       ??$gjkRelativeRayCast@VCapsuleV@Gu@physx@@VBoxV@23@V123@VShrunkBoxV@23@@Gu@physx@@YA_NAAVCapsuleV@01@AAVBoxV@01@ABVPsMatTransformV@aos@shdfnd@1@ABT__m128@@33AAT7@44M_N@Z 10095180 f i GuGJKWrapper.obj
 0001:00094ff0       ??$gjkRelativeRayCast@VCapsuleV@Gu@physx@@VConvexHullV@23@V123@VShrunkConvexHullV@23@@Gu@physx@@YA_NAAVCapsuleV@01@AAVConvexHullV@01@ABVPsMatTransformV@aos@shdfnd@1@ABT__m128@@33AAT7@44M_N@Z 10095ff0 f i GuGJKWrapper.obj
 0001:000964e0       ??$gjkRelativeRayCast@VConvexHullV@Gu@physx@@V123@VShrunkConvexHullV@23@V423@@Gu@physx@@YA_NAAVConvexHullV@01@0ABVPsMatTransformV@aos@shdfnd@1@ABT__m128@@22AAT6@33M_N@Z 100974e0 f i GuGJKWrapper.obj
 0001:00097f10       ??$gjkRelativeRayCast@VTriangleV@Gu@physx@@VBoxV@23@V123@VShrunkBoxV@23@@Gu@physx@@YA_NAAVTriangleV@01@AAVBoxV@01@ABVPsMatTransformV@aos@shdfnd@1@ABT__m128@@33AAT7@44M_N@Z 10098f10 f i GuGJKWrapper.obj
 0001:00098de0       ??$gjkRelativeRayCast@VTriangleV@Gu@physx@@VCapsuleV@23@V123@V423@@Gu@physx@@YA_NAAVTriangleV@01@AAVCapsuleV@01@ABVPsMatTransformV@aos@shdfnd@1@ABT__m128@@33AAT7@44M_N@Z 10099de0 f i GuGJKWrapper.obj
 0001:00099cd0       ??$gjkRelativeRayCast@VTriangleV@Gu@physx@@VConvexHullV@23@V123@VShrunkConvexHullV@23@@Gu@physx@@YA_NAAVTriangleV@01@AAVConvexHullV@01@ABVPsMatTransformV@aos@shdfnd@1@ABT__m128@@33AAT7@44M_N@Z 1009acd0 f i GuGJKWrapper.obj
 0001:0009b1f0       ??$gjkRelativeTesselation@VBoxV@Gu@physx@@VConvexHullV@23@@Gu@physx@@YAIABVBoxV@01@ABVConvexHullV@01@ABVPsMatTransformV@aos@shdfnd@1@ABT__m128@@AAT7@444@Z 1009c1f0 f i GuGJKWrapper.obj
 0001:0009b2b0       ??$gjkRelativeTesselation@VConvexHullV@Gu@physx@@V123@@Gu@physx@@YAIABVConvexHullV@01@0ABVPsMatTransformV@aos@shdfnd@1@ABT__m128@@AAT6@333@Z 1009c2b0 f i GuGJKWrapper.obj
 0001:0009b370       ??0?$EPASupportMapPairLocalImpl@VCapsuleV@Gu@physx@@VBoxV@23@@Gu@physx@@QAE@ABVCapsuleV@12@ABVBoxV@12@@Z 1009c370 f i GuGJKWrapper.obj
 0001:0009b390       ??0?$EPASupportMapPairLocalImpl@VCapsuleV@Gu@physx@@VConvexHullV@23@@Gu@physx@@QAE@ABVCapsuleV@12@ABVConvexHullV@12@@Z 1009c390 f i GuGJKWrapper.obj
 0001:0009b3b0       ??0?$EPASupportMapPairLocalImpl@VTriangleV@Gu@physx@@VBoxV@23@@Gu@physx@@QAE@ABVTriangleV@12@ABVBoxV@12@@Z 1009c3b0 f i GuGJKWrapper.obj
 0001:0009b3d0       ??0?$EPASupportMapPairLocalImpl@VTriangleV@Gu@physx@@VCapsuleV@23@@Gu@physx@@QAE@ABVTriangleV@12@ABVCapsuleV@12@@Z 1009c3d0 f i GuGJKWrapper.obj
 0001:0009b3f0       ??0?$EPASupportMapPairLocalImpl@VTriangleV@Gu@physx@@VConvexHullV@23@@Gu@physx@@QAE@ABVTriangleV@12@ABVConvexHullV@12@@Z 1009c3f0 f i GuGJKWrapper.obj
 0001:0009b410       ??0?$EPASupportMapPairRelativeImpl@VBoxV@Gu@physx@@V123@@Gu@physx@@QAE@ABVBoxV@12@0ABVPsMatTransformV@aos@shdfnd@2@@Z 1009c410 f i GuGJKWrapper.obj
 0001:0009b440       ??0?$EPASupportMapPairRelativeImpl@VBoxV@Gu@physx@@VConvexHullV@23@@Gu@physx@@QAE@ABVBoxV@12@ABVConvexHullV@12@ABVPsMatTransformV@aos@shdfnd@2@@Z 1009c440 f i GuGJKWrapper.obj
 0001:0009b470       ??0?$EPASupportMapPairRelativeImpl@VCapsuleV@Gu@physx@@V123@@Gu@physx@@QAE@ABVCapsuleV@12@0ABVPsMatTransformV@aos@shdfnd@2@@Z 1009c470 f i GuGJKWrapper.obj
 0001:0009b4a0       ??0?$EPASupportMapPairRelativeImpl@VCapsuleV@Gu@physx@@VBoxV@23@@Gu@physx@@QAE@ABVCapsuleV@12@ABVBoxV@12@ABVPsMatTransformV@aos@shdfnd@2@@Z 1009c4a0 f i GuGJKWrapper.obj
 0001:0009b4d0       ??0?$EPASupportMapPairRelativeImpl@VCapsuleV@Gu@physx@@VConvexHullV@23@@Gu@physx@@QAE@ABVCapsuleV@12@ABVConvexHullV@12@ABVPsMatTransformV@aos@shdfnd@2@@Z 1009c4d0 f i GuGJKWrapper.obj
 0001:0009b500       ??0?$EPASupportMapPairRelativeImpl@VConvexHullV@Gu@physx@@V123@@Gu@physx@@QAE@ABVConvexHullV@12@0ABVPsMatTransformV@aos@shdfnd@2@@Z 1009c500 f i GuGJKWrapper.obj
 0001:0009b530       ??0?$EPASupportMapPairRelativeImpl@VTriangleV@Gu@physx@@VBoxV@23@@Gu@physx@@QAE@ABVTriangleV@12@ABVBoxV@12@ABVPsMatTransformV@aos@shdfnd@2@@Z 1009c530 f i GuGJKWrapper.obj
 0001:0009b560       ??0?$EPASupportMapPairRelativeImpl@VTriangleV@Gu@physx@@VCapsuleV@23@@Gu@physx@@QAE@ABVTriangleV@12@ABVCapsuleV@12@ABVPsMatTransformV@aos@shdfnd@2@@Z 1009c560 f i GuGJKWrapper.obj
 0001:0009b590       ??0?$EPASupportMapPairRelativeImpl@VTriangleV@Gu@physx@@VConvexHullV@23@@Gu@physx@@QAE@ABVTriangleV@12@ABVConvexHullV@12@ABVPsMatTransformV@aos@shdfnd@2@@Z 1009c590 f i GuGJKWrapper.obj
 0001:0009b5c0       ??1SupportMap@Gu@physx@@UAE@XZ 1009c5c0 f i GuGJKWrapper.obj
 0001:0009b5d0       ??_G?$EPASupportMapPairLocalImpl@VTriangleV@Gu@physx@@VCapsuleV@23@@Gu@physx@@UAEPAXI@Z 1009c5d0 f i GuGJKWrapper.obj
 0001:0009b5d0       ??_E?$EPASupportMapPairLocalImpl@VTriangleV@Gu@physx@@VCapsuleV@23@@Gu@physx@@UAEPAXI@Z 1009c5d0 f i GuGJKWrapper.obj
 0001:0009b600       ??_G?$EPASupportMapPairRelativeImpl@VCapsuleV@Gu@physx@@V123@@Gu@physx@@UAEPAXI@Z 1009c600 f i GuGJKWrapper.obj
 0001:0009b600       ??_E?$EPASupportMapPairRelativeImpl@VCapsuleV@Gu@physx@@V123@@Gu@physx@@UAEPAXI@Z 1009c600 f i GuGJKWrapper.obj
 0001:0009b630       ??_G?$EPASupportMapPairRelativeImpl@VCapsuleV@Gu@physx@@VBoxV@23@@Gu@physx@@UAEPAXI@Z 1009c630 f i GuGJKWrapper.obj
 0001:0009b630       ??_E?$EPASupportMapPairRelativeImpl@VCapsuleV@Gu@physx@@VBoxV@23@@Gu@physx@@UAEPAXI@Z 1009c630 f i GuGJKWrapper.obj
 0001:0009b660       ??_G?$EPASupportMapPairRelativeImpl@VCapsuleV@Gu@physx@@VConvexHullV@23@@Gu@physx@@UAEPAXI@Z 1009c660 f i GuGJKWrapper.obj
 0001:0009b660       ??_E?$EPASupportMapPairRelativeImpl@VCapsuleV@Gu@physx@@VConvexHullV@23@@Gu@physx@@UAEPAXI@Z 1009c660 f i GuGJKWrapper.obj
 0001:0009b690       ??_G?$EPASupportMapPairRelativeImpl@VTriangleV@Gu@physx@@VBoxV@23@@Gu@physx@@UAEPAXI@Z 1009c690 f i GuGJKWrapper.obj
 0001:0009b690       ??_E?$EPASupportMapPairRelativeImpl@VTriangleV@Gu@physx@@VBoxV@23@@Gu@physx@@UAEPAXI@Z 1009c690 f i GuGJKWrapper.obj
 0001:0009b6c0       ??_G?$EPASupportMapPairRelativeImpl@VTriangleV@Gu@physx@@VCapsuleV@23@@Gu@physx@@UAEPAXI@Z 1009c6c0 f i GuGJKWrapper.obj
 0001:0009b6c0       ??_E?$EPASupportMapPairRelativeImpl@VTriangleV@Gu@physx@@VCapsuleV@23@@Gu@physx@@UAEPAXI@Z 1009c6c0 f i GuGJKWrapper.obj
 0001:0009b6f0       ??_E?$EPASupportMapPairRelativeImpl@VTriangleV@Gu@physx@@VConvexHullV@23@@Gu@physx@@UAEPAXI@Z 1009c6f0 f i GuGJKWrapper.obj
 0001:0009b6f0       ??_G?$EPASupportMapPairRelativeImpl@VTriangleV@Gu@physx@@VConvexHullV@23@@Gu@physx@@UAEPAXI@Z 1009c6f0 f i GuGJKWrapper.obj
 0001:0009b720       ??_G?$SupportMapLocalImpl@VConvexHullV@Gu@physx@@@Gu@physx@@UAEPAXI@Z 1009c720 f i GuGJKWrapper.obj
 0001:0009b720       ??_E?$SupportMapLocalImpl@VConvexHullV@Gu@physx@@@Gu@physx@@UAEPAXI@Z 1009c720 f i GuGJKWrapper.obj
 0001:0009b750       ??_G?$SupportMapRelativeImpl@VBoxV@Gu@physx@@@Gu@physx@@UAEPAXI@Z 1009c750 f i GuGJKWrapper.obj
 0001:0009b750       ??_E?$SupportMapRelativeImpl@VBoxV@Gu@physx@@@Gu@physx@@UAEPAXI@Z 1009c750 f i GuGJKWrapper.obj
 0001:0009b780       ??_G?$SupportMapRelativeImpl@VConvexHullV@Gu@physx@@@Gu@physx@@UAEPAXI@Z 1009c780 f i GuGJKWrapper.obj
 0001:0009b780       ??_E?$SupportMapRelativeImpl@VConvexHullV@Gu@physx@@@Gu@physx@@UAEPAXI@Z 1009c780 f i GuGJKWrapper.obj
 0001:0009b7b0       ??_ESupportMap@Gu@physx@@UAEPAXI@Z 1009c7b0 f i GuGJKWrapper.obj
 0001:0009b7b0       ??_GSupportMap@Gu@physx@@UAEPAXI@Z 1009c7b0 f i GuGJKWrapper.obj
 0001:0009b7e0       ?doSupport@?$EPASupportMapPairLocalImpl@VTriangleV@Gu@physx@@VCapsuleV@23@@Gu@physx@@UBEXABT__m128@@AAT4@11@Z 1009c7e0 f i GuGJKWrapper.obj
 0001:0009b8f0       ?doSupport@?$EPASupportMapPairRelativeImpl@VCapsuleV@Gu@physx@@V123@@Gu@physx@@UBEXABT__m128@@AAT4@11@Z 1009c8f0 f i GuGJKWrapper.obj
 0001:0009ba30       ?doSupport@?$EPASupportMapPairRelativeImpl@VCapsuleV@Gu@physx@@VBoxV@23@@Gu@physx@@UBEXABT__m128@@AAT4@11@Z 1009ca30 f i GuGJKWrapper.obj
 0001:0009bb40       ?doSupport@?$EPASupportMapPairRelativeImpl@VCapsuleV@Gu@physx@@VConvexHullV@23@@Gu@physx@@UBEXABT__m128@@AAT4@11@Z 1009cb40 f i GuGJKWrapper.obj
 0001:0009bfc0       ?doSupport@?$EPASupportMapPairRelativeImpl@VTriangleV@Gu@physx@@VBoxV@23@@Gu@physx@@UBEXABT__m128@@AAT4@11@Z 1009cfc0 f i GuGJKWrapper.obj
 0001:0009c110       ?doSupport@?$EPASupportMapPairRelativeImpl@VTriangleV@Gu@physx@@VCapsuleV@23@@Gu@physx@@UBEXABT__m128@@AAT4@11@Z 1009d110 f i GuGJKWrapper.obj
 0001:0009c290       ?doSupport@?$EPASupportMapPairRelativeImpl@VTriangleV@Gu@physx@@VConvexHullV@23@@Gu@physx@@UBEXABT__m128@@AAT4@11@Z 1009d290 f i GuGJKWrapper.obj
 0001:0009c760       ?doSupport@?$SupportMapLocalImpl@VConvexHullV@Gu@physx@@@Gu@physx@@UBE?AT__m128@@ABT4@@Z 1009d760 f i GuGJKWrapper.obj
 0001:0009cb20       ?doSupport@?$SupportMapRelativeImpl@VBoxV@Gu@physx@@@Gu@physx@@UBE?AT__m128@@ABT4@@Z 1009db20 f i GuGJKWrapper.obj
 0001:0009cbc0       ?doSupport@?$SupportMapRelativeImpl@VConvexHullV@Gu@physx@@@Gu@physx@@UBE?AT__m128@@ABT4@@Z 1009dbc0 f i GuGJKWrapper.obj
 0001:0009cfc0       ?doSupportSweep@?$SupportMapLocalImpl@VConvexHullV@Gu@physx@@@Gu@physx@@UBE?AT__m128@@ABT4@@Z 1009dfc0 f i GuGJKWrapper.obj
 0001:0009d380       ?doSupportSweep@?$SupportMapRelativeImpl@VBoxV@Gu@physx@@@Gu@physx@@UBE?AT__m128@@ABT4@@Z 1009e380 f i GuGJKWrapper.obj
 0001:0009d420       ?doSupportSweep@?$SupportMapRelativeImpl@VConvexHullV@Gu@physx@@@Gu@physx@@UBE?AT__m128@@ABT4@@Z 1009e420 f i GuGJKWrapper.obj
 0001:0009d820       ?doWarmStartSupport@?$EPASupportMapPairLocalImpl@VTriangleV@Gu@physx@@VCapsuleV@23@@Gu@physx@@UBEXHHAAT__m128@@00@Z 1009e820 f i GuGJKWrapper.obj
 0001:0009d860       ?doWarmStartSupport@?$EPASupportMapPairRelativeImpl@VCapsuleV@Gu@physx@@V123@@Gu@physx@@UBEXHHAAT__m128@@00@Z 1009e860 f i GuGJKWrapper.obj
 0001:0009d8d0       ?doWarmStartSupport@?$EPASupportMapPairRelativeImpl@VCapsuleV@Gu@physx@@VBoxV@23@@Gu@physx@@UBEXHHAAT__m128@@00@Z 1009e8d0 f i GuGJKWrapper.obj
 0001:0009d950       ?doWarmStartSupport@?$EPASupportMapPairRelativeImpl@VCapsuleV@Gu@physx@@VConvexHullV@23@@Gu@physx@@UBEXHHAAT__m128@@00@Z 1009e950 f i GuGJKWrapper.obj
 0001:0009da00       ?doWarmStartSupport@?$EPASupportMapPairRelativeImpl@VTriangleV@Gu@physx@@VBoxV@23@@Gu@physx@@UBEXHHAAT__m128@@00@Z 1009ea00 f i GuGJKWrapper.obj
 0001:0009da80       ?doWarmStartSupport@?$EPASupportMapPairRelativeImpl@VTriangleV@Gu@physx@@VCapsuleV@23@@Gu@physx@@UBEXHHAAT__m128@@00@Z 1009ea80 f i GuGJKWrapper.obj
 0001:0009daf0       ?doWarmStartSupport@?$EPASupportMapPairRelativeImpl@VTriangleV@Gu@physx@@VConvexHullV@23@@Gu@physx@@UBEXHHAAT__m128@@00@Z 1009eaf0 f i GuGJKWrapper.obj
 0001:0009dba0       ?doWarmStartSupport@?$SupportMapLocalImpl@VConvexHullV@Gu@physx@@@Gu@physx@@UBEXHAAT__m128@@@Z 1009eba0 f i GuGJKWrapper.obj
 0001:0009dc00       ?doWarmStartSupport@?$SupportMapRelativeImpl@VBoxV@Gu@physx@@@Gu@physx@@UBEXHAAT__m128@@@Z 1009ec00 f i GuGJKWrapper.obj
 0001:0009dc70       ?doWarmStartSupport@?$SupportMapRelativeImpl@VConvexHullV@Gu@physx@@@Gu@physx@@UBEXHAAT__m128@@@Z 1009ec70 f i GuGJKWrapper.obj
 0001:0009dd00       ?getDir@?$EPASupportMapPairLocalImpl@VTriangleV@Gu@physx@@VCapsuleV@23@@Gu@physx@@UBE?AT__m128@@XZ 1009ed00 f i GuGJKWrapper.obj
 0001:0009dd20       ?getDir@?$EPASupportMapPairRelativeImpl@VCapsuleV@Gu@physx@@V123@@Gu@physx@@UBE?AT__m128@@XZ 1009ed20 f i GuGJKWrapper.obj
 0001:0009dd40       ?getDir@?$EPASupportMapPairRelativeImpl@VCapsuleV@Gu@physx@@VBoxV@23@@Gu@physx@@UBE?AT__m128@@XZ 1009ed40 f i GuGJKWrapper.obj
 0001:0009dd60       ?getDir@?$EPASupportMapPairRelativeImpl@VCapsuleV@Gu@physx@@VConvexHullV@23@@Gu@physx@@UBE?AT__m128@@XZ 1009ed60 f i GuGJKWrapper.obj
 0001:0009dd80       ?getDir@?$EPASupportMapPairRelativeImpl@VTriangleV@Gu@physx@@VBoxV@23@@Gu@physx@@UBE?AT__m128@@XZ 1009ed80 f i GuGJKWrapper.obj
 0001:0009dda0       ?getDir@?$EPASupportMapPairRelativeImpl@VTriangleV@Gu@physx@@VCapsuleV@23@@Gu@physx@@UBE?AT__m128@@XZ 1009eda0 f i GuGJKWrapper.obj
 0001:0009ddc0       ?getDir@?$EPASupportMapPairRelativeImpl@VTriangleV@Gu@physx@@VConvexHullV@23@@Gu@physx@@UBE?AT__m128@@XZ 1009edc0 f i GuGJKWrapper.obj
 0001:0009dde0       ?create@BoxV@Gu@physx@@QAEXABVCapsuleV@23@@Z 1009ede0 f   GuVecBox.obj
 0001:0009df90       ?isInside@BoxV@Gu@physx@@QBEIABV123@@Z 1009ef90 f   GuVecBox.obj
 0001:0009e1a0       ?rotate@BoxV@Gu@physx@@QBEXABUMat34V@aos@shdfnd@3@AAV123@@Z 1009f1a0 f i GuVecBox.obj
 0001:0009e2a0       ?intersectOBBOBB@Gu@physx@@YA_NABVPxVec3@2@0ABVPxMat33@2@001_N@Z 1009f2a0 f   GuIntersectionBoxBox.obj
 0001:0009ea20       ?intersectEdgeEdge@Gu@physx@@YA_NABVPxVec3@2@0000AAMAAV32@@Z 1009fa20 f   GuIntersectionEdgeEdge.obj
 0001:0009ed20       ?rayAABBIntersect@Gu@physx@@YA_NABVPxVec3@2@000AAV32@@Z 1009fd20 f   GuIntersectionRayBox.obj
 0001:0009ee90       ?rayAABBIntersect2@Gu@physx@@YAIABVPxVec3@2@000AAV32@AAM@Z 1009fe90 f   GuIntersectionRayBox.obj
 0001:0009f020       ?intersectRayAABB@Gu@physx@@YAHABVPxVec3@2@000AAM1@Z 100a0020 f   GuIntersectionRayBox.obj
 0001:0009f140       ?intersectRayAABB@Gu@physx@@YAHABVPxVec3@2@0000AAM1@Z 100a0140 f   GuIntersectionRayBox.obj
 0001:0009f2e0       ?intersectRayAABB2@Gu@physx@@YA_NABVPxVec3@2@000MAAM1@Z 100a02e0 f   GuIntersectionRayBox.obj
 0001:0009f450       ?intersectRayAABB@Gu@physx@@YAHABT__m128@@000AAT3@1@Z 100a0450 f   GuIntersectionRayBox.obj
 0001:0009f630       ?intersectRayAABB@Gu@physx@@YAHABT__m128@@0000AAT3@1@Z 100a0630 f   GuIntersectionRayBox.obj
 0001:0009f800       ?intersectRayAABB2@Gu@physx@@YA_NABT__m128@@0000AAT3@1@Z 100a0800 f   GuIntersectionRayBox.obj
 0001:0009f8d0       ?intersectRayCapsule@Gu@physx@@YAIABVPxVec3@2@0ABVCapsule@12@QAM@Z 100a08d0 f   GuIntersectionRayCapsule.obj
 0001:000a0110       ?intersectRaySphereBasic@Gu@physx@@YA_NABVPxVec3@2@0M0MAAMPAV32@@Z 100a1110 f   GuIntersectionRaySphere.obj
 0001:000a0240       ?intersectRaySphere@Gu@physx@@YA_NABVPxVec3@2@0M0MAAMPAV32@@Z 100a1240 f   GuIntersectionRaySphere.obj
 0001:000a0450       ?intersectRayTriangleCulling@Gu@physx@@YA_NABVPxVec3@2@0000AAM11M@Z 100a1450 f   GuIntersectionRayTriangle.obj
 0001:000a0660       ?intersectRayTriangleNoCulling@Gu@physx@@YA_NABVPxVec3@2@0000AAM11M@Z 100a1660 f   GuIntersectionRayTriangle.obj
 0001:000a0890       ??0OBBTriangleTest@Gu@physx@@QAE@ABVBox@12@@Z 100a1890 f   GuIntersectionTriangleBox.obj
 0001:000a0a60       ?obbTriTest@OBBTriangleTest@Gu@physx@@QBEHABVPxVec3@3@00@Z 100a1a60 f   GuIntersectionTriangleBox.obj
 0001:000a1340       ?intersectTriangleBox@Gu@physx@@YAHABVPxVec3@2@0000@Z 100a2340 f   GuIntersectionTriangleBox.obj
 0001:000a1bb0       ?intersectTriangleBox@Gu@physx@@YA_NABT__m128@@0000@Z 100a2bb0 f   GuIntersectionTriangleBox.obj
 0001:000a2480       ??0RTreeMidphase@Gu@physx@@QAE@XZ 100a3480 f   GuHybridModel.obj
 0001:000a24a0       ??1RTreeMidphase@Gu@physx@@QAE@XZ 100a34a0 f   GuHybridModel.obj
 0001:000a24b0       ?exportExtraData@RTreeMidphase@Gu@physx@@QAEXAAVPxSerializationContext@3@@Z 100a34b0 f   GuHybridModel.obj
 0001:000a24c0       ?importExtraData@RTreeMidphase@Gu@physx@@QAEXAAVPxDeserializationContext@3@@Z 100a34c0 f   GuHybridModel.obj
 0001:000a24d0       ?exportExtraData@InternalTriangleMesh@physx@@QAEXAAVPxSerializationContext@2@@Z 100a34d0 f   GuInternalTriangleMesh.obj
 0001:000a25e0       ?importExtraData@InternalTriangleMesh@physx@@QAEXAAVPxDeserializationContext@2@@Z 100a35e0 f   GuInternalTriangleMesh.obj
 0001:000a2700       ??0InternalTriangleMesh@physx@@QAE@XZ 100a3700 f   GuInternalTriangleMesh.obj
 0001:000a27c0       ??1InternalTriangleMesh@physx@@QAE@XZ 100a37c0 f   GuInternalTriangleMesh.obj
 0001:000a27e0       ?release@InternalTriangleMesh@physx@@QAEXXZ 100a37e0 f   GuInternalTriangleMesh.obj
 0001:000a28c0       ?allocateVertices@InternalTriangleMesh@physx@@QAEPAVPxVec3@2@I@Z 100a38c0 f   GuInternalTriangleMesh.obj
 0001:000a28f0       ?allocateTriangles@InternalTriangleMesh@physx@@QAEPAXI_N@Z 100a38f0 f   GuInternalTriangleMesh.obj
 0001:000a2970       ?allocateMaterials@InternalTriangleMesh@physx@@QAEPAGXZ 100a3970 f   GuInternalTriangleMesh.obj
 0001:000a29f0       ?allocateFaceRemap@InternalTriangleMesh@physx@@QAEPAIXZ 100a39f0 f   GuInternalTriangleMesh.obj
 0001:000a2a70       ?allocateAdjacencies@InternalTriangleMesh@physx@@QAEPAIXZ 100a3a70 f   GuInternalTriangleMesh.obj
 0001:000a2b00       ?loadRTree@InternalTriangleMesh@physx@@QAE_NAAVPxInputStream@2@I@Z 100a3b00 f   GuInternalTriangleMesh.obj
 0001:000a2b90       ?setupMeshInterface@InternalTriangleMesh@physx@@QAEXXZ 100a3b90 f   GuInternalTriangleMesh.obj
 0001:000a2bc0       ??0MeshInterface@Gu@physx@@QAE@XZ 100a3bc0 f   GuMeshInterface.obj
 0001:000a2be0       ??1MeshInterface@Gu@physx@@QAE@XZ 100a3be0 f   GuMeshInterface.obj
 0001:000a2bf0       ?SetPointers@MeshInterface@Gu@physx@@QAE_NPBX_NPBVPxVec3@3@@Z 100a3bf0 f   GuMeshInterface.obj
 0001:000a2c40       ?IsValid@MeshInterface@Gu@physx@@QBE_NXZ 100a3c40 f   GuMeshInterface.obj
 0001:000a2c60       ?CheckTopology@MeshInterface@Gu@physx@@QBEIXZ 100a3c60 f   GuMeshInterface.obj
 0001:000a2cf0       ?getTriangle@PxMeshQuery@physx@@SAXABVPxTriangleMeshGeometry@2@ABVPxTransform@2@IAAVPxTriangle@2@PAI3@Z 100a3cf0 f   GuMeshQuery.obj
 0001:000a3030       ?getTriangle@PxMeshQuery@physx@@SAXABVPxHeightFieldGeometry@2@ABVPxTransform@2@IAAVPxTriangle@2@PAI3@Z 100a4030 f   GuMeshQuery.obj
 0001:000a3090       ?findOverlapTriangleMesh@PxMeshQuery@physx@@SAIABVPxGeometry@2@ABVPxTransform@2@ABVPxTriangleMeshGeometry@2@1PAIIIAA_N@Z 100a4090 f   GuMeshQuery.obj
 0001:000a3410       ?findOverlapHeightField@PxMeshQuery@physx@@SAIABVPxGeometry@2@ABVPxTransform@2@ABVPxHeightFieldGeometry@2@1PAIIIAA_N@Z 100a4410 f   GuMeshQuery.obj
 0001:000a39d0       ?sweep@PxMeshQuery@physx@@SA_NABVPxVec3@2@MABVPxGeometry@2@ABVPxTransform@2@IPBVPxTriangle@2@AAUPxSweepHit@2@V?$PxFlags@W4Enum@PxHitFlag@physx@@G@2@PBIM_N@Z 100a49d0 f   GuMeshQuery.obj
 0001:000a3b60       ??Dphysx@@YA?AVMatrix34@Cm@0@ABVPxTransform@0@ABVPxMeshScale@0@@Z 100a4b60 f i GuMeshQuery.obj
 0001:000a4190       ??_EHfTrianglesEntityReport2@?A0x52559a5e@@UAEPAXI@Z 100a5190 f i GuMeshQuery.obj
 0001:000a4190       ??_GHfTrianglesEntityReport2@?A0x52559a5e@@UAEPAXI@Z 100a5190 f i GuMeshQuery.obj
 0001:000a4650       ?poseExtent@PxBounds3@physx@@SA?AV12@ABVPxTransform@2@ABVPxVec3@2@@Z 100a5650 f i GuMeshQuery.obj
 0001:000a4860       ?collideOBB@MeshRayCollider@Gu@physx@@SAXABVBox@23@_NABURTreeMidphaseData@23@AAU?$MeshHitCallback@UPxRaycastHit@physx@@@23@1@Z 100a5860 f   GuMidphase.obj
 0001:000a4a80       ??$collide@$00$00@MeshRayCollider@Gu@physx@@SAXABVPxVec3@2@0M_NABURTreeMidphaseData@12@AAU?$MeshHitCallback@UPxRaycastHit@physx@@@12@PBV32@@Z 100a5a80 f i GuMidphase.obj
 0001:000a4c20       ??$collide@$00$0A@@MeshRayCollider@Gu@physx@@SAXABVPxVec3@2@0M_NABURTreeMidphaseData@12@AAU?$MeshHitCallback@UPxRaycastHit@physx@@@12@PBV32@@Z 100a5c20 f i GuMidphase.obj
 0001:000a4dc0       ??$collide@$0A@$00@MeshRayCollider@Gu@physx@@SAXABVPxVec3@2@0M_NABURTreeMidphaseData@12@AAU?$MeshHitCallback@UPxRaycastHit@physx@@@12@PBV32@@Z 100a5dc0 f i GuMidphase.obj
 0001:000a4f20       ??$collide@$0A@$0A@@MeshRayCollider@Gu@physx@@SAXABVPxVec3@2@0M_NABURTreeMidphaseData@12@AAU?$MeshHitCallback@UPxRaycastHit@physx@@@12@PBV32@@Z 100a5f20 f i GuMidphase.obj
 0001:000a5080       ??0?$RayRTreeCallback@$00$00@@QAE@ABURTreeMidphaseData@Gu@physx@@AAU?$MeshHitCallback@UPxRaycastHit@physx@@@23@IPAI2ABVPxVec3@3@3M_NPBV53@@Z 100a6080 f i GuMidphase.obj
 0001:000a51c0       ??0?$RayRTreeCallback@$00$0A@@@QAE@ABURTreeMidphaseData@Gu@physx@@AAU?$MeshHitCallback@UPxRaycastHit@physx@@@23@IPAI2ABVPxVec3@3@3M_NPBV53@@Z 100a61c0 f i GuMidphase.obj
 0001:000a5300       ??0?$RayRTreeCallback@$0A@$00@@QAE@ABURTreeMidphaseData@Gu@physx@@AAU?$MeshHitCallback@UPxRaycastHit@physx@@@23@IPAI2ABVPxVec3@3@3M_NPBV53@@Z 100a6300 f i GuMidphase.obj
 0001:000a5420       ??0?$RayRTreeCallback@$0A@$0A@@@QAE@ABURTreeMidphaseData@Gu@physx@@AAU?$MeshHitCallback@UPxRaycastHit@physx@@@23@IPAI2ABVPxVec3@3@3M_NPBV53@@Z 100a6420 f i GuMidphase.obj
 0001:000a5540       ??1?$RayRTreeCallback@$00$00@@UAE@XZ 100a6540 f i GuMidphase.obj
 0001:000a55a0       ??1?$RayRTreeCallback@$00$0A@@@UAE@XZ 100a65a0 f i GuMidphase.obj
 0001:000a5600       ??1?$RayRTreeCallback@$0A@$00@@UAE@XZ 100a6600 f i GuMidphase.obj
 0001:000a5660       ??1?$RayRTreeCallback@$0A@$0A@@@UAE@XZ 100a6660 f i GuMidphase.obj
 0001:000a56c0       ??1Callback@RTree@Gu@physx@@UAE@XZ 100a66c0 f i GuMidphase.obj
 0001:000a56d0       ??1CallbackRaycast@RTree@Gu@physx@@UAE@XZ 100a66d0 f i GuMidphase.obj
 0001:000a56d7       ??_E?$RayRTreeCallback@$00$00@@W3AEPAXI@Z 100a66d7 f i GuMidphase.obj
 0001:000a56df       ??_E?$RayRTreeCallback@$00$0A@@@W3AEPAXI@Z 100a66df f i GuMidphase.obj
 0001:000a56e7       ??_E?$RayRTreeCallback@$0A@$00@@W3AEPAXI@Z 100a66e7 f i GuMidphase.obj
 0001:000a56ef       ??_E?$RayRTreeCallback@$0A@$0A@@@W3AEPAXI@Z 100a66ef f i GuMidphase.obj
 0001:000a5700       ??_G?$RayRTreeCallback@$00$00@@UAEPAXI@Z 100a6700 f i GuMidphase.obj
 0001:000a5700       ??_E?$RayRTreeCallback@$00$00@@UAEPAXI@Z 100a6700 f i GuMidphase.obj
 0001:000a5770       ??_G?$RayRTreeCallback@$00$0A@@@UAEPAXI@Z 100a6770 f i GuMidphase.obj
 0001:000a5770       ??_E?$RayRTreeCallback@$00$0A@@@UAEPAXI@Z 100a6770 f i GuMidphase.obj
 0001:000a57e0       ??_G?$RayRTreeCallback@$0A@$00@@UAEPAXI@Z 100a67e0 f i GuMidphase.obj
 0001:000a57e0       ??_E?$RayRTreeCallback@$0A@$00@@UAEPAXI@Z 100a67e0 f i GuMidphase.obj
 0001:000a5850       ??_E?$RayRTreeCallback@$0A@$0A@@@UAEPAXI@Z 100a6850 f i GuMidphase.obj
 0001:000a5850       ??_G?$RayRTreeCallback@$0A@$0A@@@UAEPAXI@Z 100a6850 f i GuMidphase.obj
 0001:000a58c0       ??_ECallback@RTree@Gu@physx@@UAEPAXI@Z 100a68c0 f i GuMidphase.obj
 0001:000a58c0       ??_GCallback@RTree@Gu@physx@@UAEPAXI@Z 100a68c0 f i GuMidphase.obj
 0001:000a58f0       ??_GCallbackRaycast@RTree@Gu@physx@@UAEPAXI@Z 100a68f0 f i GuMidphase.obj
 0001:000a58f0       ??_ECallbackRaycast@RTree@Gu@physx@@UAEPAXI@Z 100a68f0 f i GuMidphase.obj
 0001:000a5920       ?processResults@?$RayRTreeCallback@$00$00@@UAE_NIPAI@Z 100a6920 f i GuMidphase.obj
 0001:000a5cb0       ?processResults@?$RayRTreeCallback@$00$00@@UAE_NIPAIAAM@Z 100a6cb0 f i GuMidphase.obj
 0001:000a6050       ?processResults@?$RayRTreeCallback@$00$0A@@@UAE_NIPAI@Z 100a7050 f i GuMidphase.obj
 0001:000a6300       ?processResults@?$RayRTreeCallback@$00$0A@@@UAE_NIPAIAAM@Z 100a7300 f i GuMidphase.obj
 0001:000a65a0       ?processResults@?$RayRTreeCallback@$0A@$00@@UAE_NIPAI@Z 100a75a0 f i GuMidphase.obj
 0001:000a6bc0       ?processResults@?$RayRTreeCallback@$0A@$00@@UAE_NIPAIAAM@Z 100a7bc0 f i GuMidphase.obj
 0001:000a71d0       ?processResults@?$RayRTreeCallback@$0A@$0A@@@UAE_NIPAI@Z 100a81d0 f i GuMidphase.obj
 0001:000a7480       ?processResults@?$RayRTreeCallback@$0A@$0A@@@UAE_NIPAIAAM@Z 100a8480 f i GuMidphase.obj
 0001:000a7720       ?profile@Callback@RTree@Gu@physx@@UAEXXZ 100a8720 f i GuMidphase.obj
 0001:000a7730       ?findOverlapSphereMesh@Gu@physx@@YAIABVSphere@12@ABVRTreeMidphase@12@ABVPxTransform@2@ABVPxMeshScale@2@PIAIIIAA_N@Z 100a8730 f   GuOverlapTestsMesh.obj
 0001:000a77e0       ?findOverlapCapsuleMesh@Gu@physx@@YAIABVCapsule@12@ABVRTreeMidphase@12@ABVPxTransform@2@ABVPxMeshScale@2@PIAIIIAA_N@Z 100a87e0 f   GuOverlapTestsMesh.obj
 0001:000a7890       ?findOverlapOBBMesh@Gu@physx@@YAIABVBox@12@ABVRTreeMidphase@12@ABVPxTransform@2@ABVPxMeshScale@2@PIAIIIAA_N@Z 100a8890 f   GuOverlapTestsMesh.obj
 0001:000a7940       ?checkOverlapOBB_triangleGeom@Gu@physx@@YA_NABVPxGeometry@2@ABVPxTransform@2@ABVBox@12@@Z 100a8940 f   GuOverlapTestsMesh.obj
 0001:000a79c0       ?checkOverlapSphere_triangleGeom@@YA_NABVPxGeometry@physx@@ABVPxTransform@2@ABVSphere@Gu@2@@Z 100a89c0 f   GuOverlapTestsMesh.obj
 0001:000a7a40       ?checkOverlapCapsule_triangleGeom@@YA_NABVPxGeometry@physx@@ABVPxTransform@2@ABVCapsule@Gu@2@@Z 100a8a40 f   GuOverlapTestsMesh.obj
 0001:000a7ac0       ?GeomOverlapCallback_SphereMesh@@YA_NABVPxGeometry@physx@@ABVPxTransform@2@01PAUTriggerCache@Gu@2@@Z 100a8ac0 f   GuOverlapTestsMesh.obj
 0001:000a7b70       ?GeomOverlapCallback_CapsuleMesh@@YA_NABVPxGeometry@physx@@ABVPxTransform@2@01PAUTriggerCache@Gu@2@@Z 100a8b70 f   GuOverlapTestsMesh.obj
 0001:000a7cc0       ?GeomOverlapCallback_BoxMesh@@YA_NABVPxGeometry@physx@@ABVPxTransform@2@01PAUTriggerCache@Gu@2@@Z 100a8cc0 f   GuOverlapTestsMesh.obj
 0001:000a7eb0       ?GeomOverlapCallback_ConvexMesh@@YA_NABVPxGeometry@physx@@ABVPxTransform@2@01PAUTriggerCache@Gu@2@@Z 100a8eb0 f   GuOverlapTestsMesh.obj
 0001:000aa4d0       ??0ConvexVsMeshOverlapCallback@@QAE@ABVConvexMesh@Gu@physx@@ABVPxMeshScale@3@ABVFastVertex2ShapeScaling@Cm@3@ABVPxTransform@3@3_NABVBox@23@@Z 100ab4d0 f i GuOverlapTestsMesh.obj
 0001:000ab030       ??1?$IntersectAnyVsMeshCallback@$00$00@@UAE@XZ 100ac030 f i GuOverlapTestsMesh.obj
 0001:000ab040       ??1?$IntersectAnyVsMeshCallback@$00$0A@@@UAE@XZ 100ac040 f i GuOverlapTestsMesh.obj
 0001:000ab050       ??1?$IntersectAnyVsMeshCallback@$01$00@@UAE@XZ 100ac050 f i GuOverlapTestsMesh.obj
 0001:000ab060       ??1?$IntersectAnyVsMeshCallback@$01$0A@@@UAE@XZ 100ac060 f i GuOverlapTestsMesh.obj
 0001:000ab070       ??1?$IntersectAnyVsMeshCallback@$0A@$00@@UAE@XZ 100ac070 f i GuOverlapTestsMesh.obj
 0001:000ab080       ??1?$IntersectAnyVsMeshCallback@$0A@$0A@@@UAE@XZ 100ac080 f i GuOverlapTestsMesh.obj
 0001:000ab090       ??1ConvexVsMeshOverlapCallback@@UAE@XZ 100ac090 f i GuOverlapTestsMesh.obj
 0001:000ab0a0       ??_E?$IntersectAnyVsMeshCallback@$00$00@@UAEPAXI@Z 100ac0a0 f i GuOverlapTestsMesh.obj
 0001:000ab0a0       ??_G?$IntersectAnyVsMeshCallback@$00$00@@UAEPAXI@Z 100ac0a0 f i GuOverlapTestsMesh.obj
 0001:000ab0d0       ??_G?$IntersectAnyVsMeshCallback@$00$0A@@@UAEPAXI@Z 100ac0d0 f i GuOverlapTestsMesh.obj
 0001:000ab0d0       ??_E?$IntersectAnyVsMeshCallback@$00$0A@@@UAEPAXI@Z 100ac0d0 f i GuOverlapTestsMesh.obj
 0001:000ab100       ??_E?$IntersectAnyVsMeshCallback@$01$00@@UAEPAXI@Z 100ac100 f i GuOverlapTestsMesh.obj
 0001:000ab100       ??_G?$IntersectAnyVsMeshCallback@$01$00@@UAEPAXI@Z 100ac100 f i GuOverlapTestsMesh.obj
 0001:000ab130       ??_G?$IntersectAnyVsMeshCallback@$01$0A@@@UAEPAXI@Z 100ac130 f i GuOverlapTestsMesh.obj
 0001:000ab130       ??_E?$IntersectAnyVsMeshCallback@$01$0A@@@UAEPAXI@Z 100ac130 f i GuOverlapTestsMesh.obj
 0001:000ab160       ??_G?$IntersectAnyVsMeshCallback@$0A@$00@@UAEPAXI@Z 100ac160 f i GuOverlapTestsMesh.obj
 0001:000ab160       ??_E?$IntersectAnyVsMeshCallback@$0A@$00@@UAEPAXI@Z 100ac160 f i GuOverlapTestsMesh.obj
 0001:000ab190       ??_E?$IntersectAnyVsMeshCallback@$0A@$0A@@@UAEPAXI@Z 100ac190 f i GuOverlapTestsMesh.obj
 0001:000ab190       ??_G?$IntersectAnyVsMeshCallback@$0A@$0A@@@UAEPAXI@Z 100ac190 f i GuOverlapTestsMesh.obj
 0001:000ab1c0       ??_EConvexVsMeshOverlapCallback@@UAEPAXI@Z 100ac1c0 f i GuOverlapTestsMesh.obj
 0001:000ab1c0       ??_GConvexVsMeshOverlapCallback@@UAEPAXI@Z 100ac1c0 f i GuOverlapTestsMesh.obj
 0001:000ab1f0       ?computeSweptAABBAroundOBB@Gu@physx@@YAXABVBox@12@AAVPxVec3@2@11AAM@Z 100ac1f0 f i GuOverlapTestsMesh.obj
 0001:000ab370       ?processHit@?$IntersectAnyVsMeshCallback@$00$00@@UAE_NABUPxRaycastHit@physx@@ABVPxVec3@3@11AAMPBI@Z 100ac370 f i GuOverlapTestsMesh.obj
 0001:000ab4b0       ?processHit@?$IntersectAnyVsMeshCallback@$00$0A@@@UAE_NABUPxRaycastHit@physx@@ABVPxVec3@3@11AAMPBI@Z 100ac4b0 f i GuOverlapTestsMesh.obj
 0001:000ab770       ?processHit@?$IntersectAnyVsMeshCallback@$01$00@@UAE_NABUPxRaycastHit@physx@@ABVPxVec3@3@11AAMPBI@Z 100ac770 f i GuOverlapTestsMesh.obj
 0001:000ab9f0       ?processHit@?$IntersectAnyVsMeshCallback@$01$0A@@@UAE_NABUPxRaycastHit@physx@@ABVPxVec3@3@11AAMPBI@Z 100ac9f0 f i GuOverlapTestsMesh.obj
 0001:000abcc0       ?processHit@?$IntersectAnyVsMeshCallback@$0A@$00@@UAE_NABUPxRaycastHit@physx@@ABVPxVec3@3@11AAMPBI@Z 100accc0 f i GuOverlapTestsMesh.obj
 0001:000abdf0       ?processHit@?$IntersectAnyVsMeshCallback@$0A@$0A@@@UAE_NABUPxRaycastHit@physx@@ABVPxVec3@3@11AAMPBI@Z 100acdf0 f i GuOverlapTestsMesh.obj
 0001:000ac090       ?processHit@ConvexVsMeshOverlapCallback@@UAE_NABUPxRaycastHit@physx@@ABVPxVec3@3@11AAMPBI@Z 100ad090 f i GuOverlapTestsMesh.obj
 0001:000ac380       ?transformBoxOrthonormal@physx@@YA?AVBox@Gu@1@ABV231@ABVPxTransform@1@@Z 100ad380 f i GuOverlapTestsMesh.obj
 0001:000ac7e0       ??0RTree@Gu@physx@@QAE@ABW4PxEMPTY@2@@Z 100ad7e0 f   GuRTree.obj
 0001:000ac7f0       ?exportExtraData@RTree@Gu@physx@@QAEXAAVPxSerializationContext@3@@Z 100ad7f0 f   GuRTree.obj
 0001:000ac820       ?importExtraData@RTree@Gu@physx@@QAEXAAVPxDeserializationContext@3@@Z 100ad820 f   GuRTree.obj
 0001:000ac850       ??0RTree@Gu@physx@@QAE@XZ  100ad850 f   GuRTree.obj
 0001:000ac880       ?release@RTree@Gu@physx@@QAEXXZ 100ad880 f   GuRTree.obj
 0001:000ac8b0       ?save@RTree@Gu@physx@@QBE_NAAVPxOutputStream@3@@Z 100ad8b0 f   GuRTree.obj
 0001:000aca20       ?load@RTree@Gu@physx@@QAE_NAAVPxInputStream@3@I@Z 100ada20 f   GuRTree.obj
 0001:000acc00       ?validate@RTree@Gu@physx@@QAEXXZ 100adc00 f   GuRTree.obj
 0001:000acd10       ?computeBottomLevelCount@RTree@Gu@physx@@QBEII@Z 100add10 f   GuRTree.obj
 0001:000acdc0       ?validateRecursive@RTree@Gu@physx@@IAEXIURTreeNodeQ@23@PAURTreePage@23@@Z 100addc0 f   GuRTree.obj
 0001:000acea0       ?allocate@?$AlignedAllocator@$0IA@VAllocator@shdfnd@physx@@@shdfnd@physx@@QAEPAXIPBDH@Z 100adea0 f i GuRTree.obj
 0001:000acee0       ?traverseAABB@RTree@Gu@physx@@QBEXABVPxVec3@3@0IPAIPAUCallback@123@@Z 100adee0 f   GuRTreeQueries.obj
 0001:000ad0c0       ?traverseOBB@RTree@Gu@physx@@QBEXABVBox@23@IPAIPAUCallback@123@@Z 100ae0c0 f   GuRTreeQueries.obj
 0001:000ad9d0       ??$traverseRay@$00@RTree@Gu@physx@@QBEXABVPxVec3@2@0IPAIPAUCallbackRaycast@012@PBV32@M@Z 100ae9d0 f i GuRTreeQueries.obj
 0001:000add10       ??$traverseRay@$0A@@RTree@Gu@physx@@QBEXABVPxVec3@2@0IPAIPAUCallbackRaycast@012@PBV32@M@Z 100aed10 f i GuRTreeQueries.obj
 0001:000adff0       ?sweepCapsule_MeshGeom@@YA_NABVPxGeometry@physx@@ABVPxTransform@2@ABVCapsule@Gu@2@ABVPxVec3@2@MAAUPxSweepHit@2@V?$PxFlags@W4Enum@PxHitFlag@physx@@G@2@M@Z 100aeff0 f   GuSweepsMesh.obj
 0001:000aee20       ?sweepBox_MeshGeom@@YA_NABVPxGeometry@physx@@ABVPxTransform@2@ABVBox@Gu@2@ABVPxVec3@2@MAAUPxSweepHit@2@V?$PxFlags@W4Enum@PxHitFlag@physx@@G@2@M@Z 100afe20 f   GuSweepsMesh.obj
 0001:000b0b30       ?sweepConvex_MeshGeom@@YA_NABVPxGeometry@physx@@ABVPxTransform@2@ABVPxConvexMeshGeometry@2@1ABVPxVec3@2@MAAUPxSweepHit@2@V?$PxFlags@W4Enum@PxHitFlag@physx@@G@2@M@Z 100b1b30 f   GuSweepsMesh.obj
 0001:000b1550       ??0ConvexVsMeshSweepCallback@@QAE@ABUConvexHullData@Gu@physx@@ABVPxMeshScale@3@ABVFastVertex2ShapeScaling@Cm@3@ABVPxTransform@3@3ABVPxVec3@3@MV?$PxFlags@W4Enum@PxHitFlag@physx@@G@3@_NM6@Z 100b2550 f i GuSweepsMesh.obj
 0001:000b2110       ??0SweepBoxMeshHitCallback@@QAE@W4Enum@CallbackMode@Gu@physx@@ABVMatrix34Padded@@MM_NABVBox@34@ABVPxVec3@4@44ABV?$PxFlags@W4Enum@PxHitFlag@physx@@G@4@M@Z 100b3110 f i GuSweepsMesh.obj
 0001:000b2240       ??1ConvexVsMeshSweepCallback@@UAE@XZ 100b3240 f i GuSweepsMesh.obj
 0001:000b2250       ??1SweepBoxMeshHitCallback@@UAE@XZ 100b3250 f i GuSweepsMesh.obj
 0001:000b2260       ??4PxTriangle@physx@@QAEAAV01@ABV01@@Z 100b3260 f i GuSweepsMesh.obj
 0001:000b22a0       ??_GConvexVsMeshSweepCallback@@UAEPAXI@Z 100b32a0 f i GuSweepsMesh.obj
 0001:000b22a0       ??_EConvexVsMeshSweepCallback@@UAEPAXI@Z 100b32a0 f i GuSweepsMesh.obj
 0001:000b22d0       ??_ESweepBoxMeshHitCallback@@UAEPAXI@Z 100b32d0 f i GuSweepsMesh.obj
 0001:000b22d0       ??_GSweepBoxMeshHitCallback@@UAEPAXI@Z 100b32d0 f i GuSweepsMesh.obj
 0001:000b2300       ??_ESweepCapsuleCallback@@UAEPAXI@Z 100b3300 f i GuSweepsMesh.obj
 0001:000b2300       ??_GSweepCapsuleCallback@@UAEPAXI@Z 100b3300 f i GuSweepsMesh.obj
 0001:000b2330       ?finalize@SweepCapsuleCallback@@QAE_NAAUPxSweepHit@physx@@ABVCapsule@Gu@3@ABVPxTriangleMeshGeometry@3@ABVPxTransform@3@_NM@Z 100b3330 f i GuSweepsMesh.obj
 0001:000b2510       ?processHit@ConvexVsMeshSweepCallback@@UAE_NABUPxRaycastHit@physx@@ABVPxVec3@3@11AAMPBI@Z 100b3510 f i GuSweepsMesh.obj
 0001:000b2c20       ?processHit@SweepBoxMeshHitCallback@@UAE_NABUPxRaycastHit@physx@@ABVPxVec3@3@11AAMPBI@Z 100b3c20 f i GuSweepsMesh.obj
 0001:000b3310       ?processHit@SweepCapsuleCallback@@UAE_NABUPxRaycastHit@physx@@ABVPxVec3@3@11AAMPBI@Z 100b4310 f i GuSweepsMesh.obj
 0001:000b39e0       ?onRefCountZero@TriangleMesh@Gu@physx@@UAEXXZ 100b49e0 f   GuTriangleMesh.obj
 0001:000b3a50       ?exportExtraData@TriangleMesh@Gu@physx@@UAEXAAVPxSerializationContext@3@@Z 100b4a50 f   GuTriangleMesh.obj
 0001:000b3a60       ?importExtraData@TriangleMesh@Gu@physx@@QAEXAAVPxDeserializationContext@3@@Z 100b4a60 f   GuTriangleMesh.obj
 0001:000b3a70       ?createObject@TriangleMesh@Gu@physx@@SAPAV123@AAPAEAAVPxDeserializationContext@3@@Z 100b4a70 f   GuTriangleMesh.obj
 0001:000b3ab0       ??0TriangleMesh@Gu@physx@@QAE@XZ 100b4ab0 f   GuTriangleMesh.obj
 0001:000b3b40       ?load@TriangleMesh@Gu@physx@@QAE_NAAVPxInputStream@3@@Z 100b4b40 f   GuTriangleMesh.obj
 0001:000b3fc0       ?setupMeshInterface@TriangleMesh@Gu@physx@@QAEXXZ 100b4fc0 f   GuTriangleMesh.obj
 0001:000b3fe0       ?checkMeshIndicesSize@TriangleMesh@Gu@physx@@QAEXXZ 100b4fe0 f   GuTriangleMesh.obj
 0001:000b4050       ?release@TriangleMesh@Gu@physx@@UAEXXZ 100b5050 f   GuTriangleMesh.obj
 0001:000b4090       ?getReferenceCount@TriangleMesh@Gu@physx@@UBEIXZ 100b5090 f   GuTriangleMesh.obj
 0001:000b40a0       ??1TriangleMesh@Gu@physx@@UAE@XZ 100b50a0 f   GuTriangleMesh.obj
 0001:000b40e0       ?debugVisualize@TriangleMesh@Gu@physx@@QBEXAAVRenderOutput@Cm@3@ABVMatrix34@53@ABVPxMeshScale@3@ABVPxBounds3@3@_KMI@Z 100b50e0 f   GuTriangleMesh.obj
 0001:000b5970       ?exportExtraData@HeightField@Gu@physx@@UAEXAAVPxSerializationContext@3@@Z 100b6970 f   GuHeightField.obj
 0001:000b59a0       ?importExtraData@HeightField@Gu@physx@@QAEXAAVPxDeserializationContext@3@@Z 100b69a0 f   GuHeightField.obj
 0001:000b59d0       ?createObject@HeightField@Gu@physx@@SAPAV123@AAPAEAAVPxDeserializationContext@3@@Z 100b69d0 f   GuHeightField.obj
 0001:000b5a40       ??0HeightField@Gu@physx@@QAE@PAVGuMeshFactory@2@@Z 100b6a40 f   GuHeightField.obj
 0001:000b5ac0       ?release@HeightField@Gu@physx@@UAEXXZ 100b6ac0 f   GuHeightField.obj
 0001:000b5b00       ?saveCells@HeightField@Gu@physx@@UBEIPAXI@Z 100b6b00 f   GuHeightField.obj
 0001:000b5b30       ?modifySamples@HeightField@Gu@physx@@UAE_NHHABVPxHeightFieldDesc@3@_N@Z 100b6b30 f   GuHeightField.obj
 0001:000b5dd0       ?getReferenceCount@HeightField@Gu@physx@@UBEIXZ 100b6dd0 f   GuHeightField.obj
 0001:000b5de0       ?onRefCountZero@HeightField@Gu@physx@@UAEXXZ 100b6de0 f   GuHeightField.obj
 0001:000b5e50       ?loadFromDesc@HeightField@Gu@physx@@QAE_NABVPxHeightFieldDesc@3@_N@Z 100b6e50 f   GuHeightField.obj
 0001:000b60b0       ?load@HeightField@Gu@physx@@QAE_NAAVPxInputStream@3@@Z 100b70b0 f   GuHeightField.obj
 0001:000b62c0       ?computeCellCoordinates@HeightField@Gu@physx@@QBEIMMAAM0@Z 100b72c0 f   GuHeightField.obj
 0001:000b63f0       ?isSolidVertex@HeightField@Gu@physx@@QBE_NIIIGAA_N@Z 100b73f0 f   GuHeightField.obj
 0001:000b6520       ?isCollisionVertexPreca@HeightField@Gu@physx@@QBE_NIIIG@Z 100b7520 f   GuHeightField.obj
 0001:000b65a0       ?parseTrianglesForCollisionVertices@HeightField@Gu@physx@@QAEXG@Z 100b75a0 f   GuHeightField.obj
 0001:000b6910       ?computeExtreme@HeightField@Gu@physx@@QBEMIIII@Z 100b7910 f   GuHeightField.obj
 0001:000b69f0       ?releaseMemory@HeightField@Gu@physx@@QAEX_N@Z 100b79f0 f   GuHeightField.obj
 0001:000b6a20       ??1HeightField@Gu@physx@@UAE@XZ 100b7a20 f   GuHeightField.obj
 0001:000b6a60       ?getVertexEdgeIndices@physx@@YAIABVHeightField@Gu@1@IIIQAUEdgeData@1@@Z 100b7a60 f   GuHeightField.obj
 0001:000b6c20       ?getEdgeTriangleIndices@physx@@YAIABVHeightField@Gu@1@ABUEdgeData@1@PIAI@Z 100b7c20 f   GuHeightField.obj
 0001:000b6d50       ??0?$BitMapBase@VAllocator@shdfnd@physx@@@Cm@physx@@QAE@XZ 100b7d50 f i GuHeightField.obj
 0001:000b6d60       ??1?$BitMapBase@VAllocator@shdfnd@physx@@@Cm@physx@@QAE@XZ 100b7d60 f i GuHeightField.obj
 0001:000b6d80       ??_EHeightField@Gu@physx@@UAEPAXI@Z 100b7d80 f i GuHeightField.obj
 0001:000b6e8a       ??_EHeightField@Gu@physx@@W7AEPAXI@Z 100b7e8a f i GuHeightField.obj
 0001:000b6ea0       ??_EPxHeightField@physx@@MAEPAXI@Z 100b7ea0 f i GuHeightField.obj
 0001:000b6f10       ?clear@?$BitMapBase@VAllocator@shdfnd@physx@@@Cm@physx@@QAEXI@Z 100b7f10 f i GuHeightField.obj
 0001:000b6f80       ?isConvexVertex@HeightField@Gu@physx@@QBE_NIII@Z 100b7f80 f i GuHeightField.obj
 0001:000b7060       ?requires@HeightField@Gu@physx@@UAEXAAVPxProcessPxBaseCallback@3@@Z 100b8060 f i GuHeightField.obj
 0001:000b7070       ?computeLocalBounds@HeightFieldUtil@Gu@physx@@QBEXAAVPxBounds3@3@@Z 100b8070 f   GuHeightFieldUtil.obj
 0001:000b7320       ?isCollisionEdge@HeightFieldUtil@Gu@physx@@QBE_NI@Z 100b8320 f   GuHeightFieldUtil.obj
 0001:000b7410       ?isCollisionEdge@HeightFieldUtil@Gu@physx@@QBE_NIIPIBIIII@Z 100b8410 f   GuHeightFieldUtil.obj
 0001:000b74e0       ?isBoundaryEdge@HeightFieldUtil@Gu@physx@@QBE_NI@Z 100b84e0 f   GuHeightFieldUtil.obj
 0001:000b7590       ?getFaceIndexAtShapePoint@HeightFieldUtil@Gu@physx@@QBEIMM@Z 100b8590 f   GuHeightFieldUtil.obj
 0001:000b7690       ?getFaceIndexAtShapePointNoTest@HeightFieldUtil@Gu@physx@@QBEIMM@Z 100b8690 f   GuHeightFieldUtil.obj
 0001:000b7740       ?getFaceIndexAtShapePointNoTest2@HeightFieldUtil@Gu@physx@@QBEIIMM@Z 100b8740 f   GuHeightFieldUtil.obj
 0001:000b77c0       ?getFaceIndexAtTriangleIndex@HeightFieldUtil@Gu@physx@@QBEII@Z 100b87c0 f   GuHeightFieldUtil.obj
 0001:000b7810       ?getSmoothNormalAtShapePoint@HeightFieldUtil@Gu@physx@@QBE?AVPxVec3@3@MM@Z 100b8810 f   GuHeightFieldUtil.obj
 0001:000b7c80       ?getVertexNormal@HeightFieldUtil@Gu@physx@@QBE?AVPxVec3@3@III@Z 100b8c80 f   GuHeightFieldUtil.obj
 0001:000b7fa0       ?getVertexFaceIndex@HeightFieldUtil@Gu@physx@@QBEIIII@Z 100b8fa0 f   GuHeightFieldUtil.obj
 0001:000b8080       ?getEdge@HeightFieldUtil@Gu@physx@@QBEXIIIIAAVPxVec3@3@0@Z 100b9080 f   GuHeightFieldUtil.obj
 0001:000b8350       ?getEdgeFaceIndex@HeightFieldUtil@Gu@physx@@QBEII@Z 100b9350 f   GuHeightFieldUtil.obj
 0001:000b83e0       ?getEdgeFaceIndex@HeightFieldUtil@Gu@physx@@QBEIIIII@Z 100b93e0 f   GuHeightFieldUtil.obj
 0001:000b8470       ?getEdgeFaceIndex@HeightFieldUtil@Gu@physx@@QBEIIIPIBI@Z 100b9470 f   GuHeightFieldUtil.obj
 0001:000b84f0       ?findClosestPointsOnCell@HeightFieldUtil@Gu@physx@@QBEIIIVPxVec3@3@PIAV43@PIAI_N33@Z 100b94f0 f   GuHeightFieldUtil.obj
 0001:000b8c20       ?findProjectionOnTriangle@HeightFieldUtil@Gu@physx@@QBE_NIIIABVPxVec3@3@AAV43@@Z 100b9c20 f   GuHeightFieldUtil.obj
 0001:000b8f10       ?findClosestPointOnEdge@HeightFieldUtil@Gu@physx@@QBEMIIIIABVPxVec3@3@AAV43@@Z 100b9f10 f   GuHeightFieldUtil.obj
 0001:000b9220       ?getTriangle@HeightFieldUtil@Gu@physx@@QBEIABVPxTransform@3@AAVPxTriangle@3@PAI2I_N3@Z 100ba220 f   GuHeightFieldUtil.obj
 0001:000b9f10       ?overlapAABBTriangles@HeightFieldUtil@Gu@physx@@QBE_NABVPxTransform@3@ABVPxBounds3@3@IPAV?$EntityReport@I@23@@Z 100baf10 f   GuHeightFieldUtil.obj
 0001:000ba4a0       ?getEdgeTriangleIndices@HeightField@Gu@physx@@QBEIIQAI@Z 100bb4a0 f i GuHeightFieldUtil.obj
 0001:000ba5b0       ?getEdgeTriangleIndices@HeightField@Gu@physx@@QBEIIQAIIII@Z 100bb5b0 f i GuHeightFieldUtil.obj
 0001:000ba6b0       ?getTriangleAdjacencyIndices@HeightField@Gu@physx@@QBEXIIIIAAI00@Z 100bb6b0 f i GuHeightFieldUtil.obj
 0001:000ba820       ?isConvexEdge@HeightField@Gu@physx@@QBE_NIIII@Z 100bb820 f i GuHeightFieldUtil.obj
 0001:000ba980       ?intersectHeightFieldSphere@Gu@physx@@YA_NABVHeightFieldUtil@12@ABVSphere@12@@Z 100bb980 f   GuOverlapTestsHF.obj
 0001:000bad20       ?intersectHeightFieldCapsule@Gu@physx@@YA_NABVHeightFieldUtil@12@ABVCapsule@12@@Z 100bbd20 f   GuOverlapTestsHF.obj
 0001:000bb380       ?intersectHeightFieldBox@Gu@physx@@YA_NABVHeightFieldUtil@12@ABVBox@12@@Z 100bc380 f   GuOverlapTestsHF.obj
 0001:000bc210       ?intersectHeightFieldConvex@Gu@physx@@YA_NABVHeightFieldUtil@12@ABVPxTransform@2@ABVConvexMesh@12@1ABVPxMeshScale@2@@Z 100bd210 f   GuOverlapTestsHF.obj
 0001:000bd810       ?checkOverlapSphere_heightFieldGeom@Gu@physx@@YA_NABVPxGeometry@2@ABVPxTransform@2@ABVSphere@12@@Z 100be810 f   GuOverlapTestsHF.obj
 0001:000bdb50       ?checkOverlapOBB_heightFieldGeom@Gu@physx@@YA_NABVPxGeometry@2@ABVPxTransform@2@ABVBox@12@@Z 100beb50 f   GuOverlapTestsHF.obj
 0001:000be100       ?checkOverlapCapsule_heightFieldGeom@Gu@physx@@YA_NABVPxGeometry@2@ABVPxTransform@2@ABVCapsule@12@@Z 100bf100 f   GuOverlapTestsHF.obj
 0001:000be520       ?GeomOverlapCallback_SphereHeightfield@@YA_NABVPxGeometry@physx@@ABVPxTransform@2@01PAUTriggerCache@Gu@2@@Z 100bf520 f   GuOverlapTestsHF.obj
 0001:000be6b0       ?GeomOverlapCallback_PlaneHeightfield@@YA_NABVPxGeometry@physx@@ABVPxTransform@2@01PAUTriggerCache@Gu@2@@Z 100bf6b0 f   GuOverlapTestsHF.obj
 0001:000be6c0       ?GeomOverlapCallback_CapsuleHeightfield@@YA_NABVPxGeometry@physx@@ABVPxTransform@2@01PAUTriggerCache@Gu@2@@Z 100bf6c0 f   GuOverlapTestsHF.obj
 0001:000bea00       ?GeomOverlapCallback_BoxHeightfield@@YA_NABVPxGeometry@physx@@ABVPxTransform@2@01PAUTriggerCache@Gu@2@@Z 100bfa00 f   GuOverlapTestsHF.obj
 0001:000bedb0       ?GeomOverlapCallback_ConvexHeightfield@@YA_NABVPxGeometry@physx@@ABVPxTransform@2@01PAUTriggerCache@Gu@2@@Z 100bfdb0 f   GuOverlapTestsHF.obj
 0001:000bee10       ??$traceSegment@UTriggerTraceSegmentCallback@Gu@physx@@$0A@$0A@$0A@@HeightFieldUtil@Gu@physx@@QBEXABVPxVec3@2@0PAUTriggerTraceSegmentCallback@12@PBV32@@Z 100bfe10 f i GuOverlapTestsHF.obj
 0001:000bfad0       ?sweepCapsule_HeightFieldGeom@@YA_NABVPxGeometry@physx@@ABVPxTransform@2@ABVCapsule@Gu@2@ABVPxVec3@2@MAAUPxSweepHit@2@V?$PxFlags@W4Enum@PxHitFlag@physx@@G@2@M@Z 100c0ad0 f   GuSweepsHF.obj
 0001:000c0420       ?sweepConvex_HeightFieldGeom@@YA_NABVPxGeometry@physx@@ABVPxTransform@2@ABVPxConvexMeshGeometry@2@1ABVPxVec3@2@MAAUPxSweepHit@2@V?$PxFlags@W4Enum@PxHitFlag@physx@@G@2@M@Z 100c1420 f   GuSweepsHF.obj
 0001:000c1030       ?sweepBox_HeightFieldGeom@@YA_NABVPxGeometry@physx@@ABVPxTransform@2@ABVBox@Gu@2@ABVPxVec3@2@MAAUPxSweepHit@2@V?$PxFlags@W4Enum@PxHitFlag@physx@@G@2@M@Z 100c2030 f   GuSweepsHF.obj
 0001:000c1e10       ??$traceSegment@UBoxTraceSegmentReport@@$0A@$0A@$00@HeightFieldUtil@Gu@physx@@QBEXABVPxVec3@2@0PAUBoxTraceSegmentReport@@PBV32@@Z 100c2e10 f i GuSweepsHF.obj
 0001:000c2520       ??$traceSegment@UCapsuleTraceSegmentReport@@$0A@$0A@$00@HeightFieldUtil@Gu@physx@@QBEXABVPxVec3@2@0PAUCapsuleTraceSegmentReport@@PBV32@@Z 100c3520 f i GuSweepsHF.obj
 0001:000c2c30       ??$traceSegment@VConvexVsHeightfieldSweep@@$0A@$0A@$00@HeightFieldUtil@Gu@physx@@QBEXABVPxVec3@2@0PAVConvexVsHeightfieldSweep@@PBV32@@Z 100c3c30 f i GuSweepsHF.obj
 0001:000c3340       ??0ConvexVsHeightfieldSweep@@QAE@AAVHeightFieldUtil@Gu@physx@@ABUConvexHullData@23@ABVPxMeshScale@3@ABVPxTransform@3@3ABVPxVec3@3@MV?$PxFlags@W4Enum@PxHitFlag@physx@@G@3@M_N_N@Z 100c4340 f i GuSweepsHF.obj
 0001:000c3f00       ??_GBoxTraceSegmentReport@@UAEPAXI@Z 100c4f00 f i GuSweepsHF.obj
 0001:000c3f00       ??_EBoxTraceSegmentReport@@UAEPAXI@Z 100c4f00 f i GuSweepsHF.obj
 0001:000c3f30       ??_GCapsuleTraceSegmentReport@@UAEPAXI@Z 100c4f30 f i GuSweepsHF.obj
 0001:000c3f30       ??_ECapsuleTraceSegmentReport@@UAEPAXI@Z 100c4f30 f i GuSweepsHF.obj
 0001:000c3f60       ??_EConvexVsHeightfieldSweep@@UAEPAXI@Z 100c4f60 f i GuSweepsHF.obj
 0001:000c3f60       ??_GConvexVsHeightfieldSweep@@UAEPAXI@Z 100c4f60 f i GuSweepsHF.obj
 0001:000c3f90       ?init@?$OverlapTraceSegment@UBoxTraceSegmentReport@@@HeightFieldUtil@Gu@physx@@QAE_NHHHHHPAUBoxTraceSegmentReport@@PAV?$Array@IV?$ReflectionAllocator@I@shdfnd@physx@@@shdfnd@4@@Z 100c4f90 f i GuSweepsHF.obj
 0001:000c4040       ?init@?$OverlapTraceSegment@UCapsuleTraceSegmentReport@@@HeightFieldUtil@Gu@physx@@QAE_NHHHHHPAUCapsuleTraceSegmentReport@@PAV?$Array@IV?$ReflectionAllocator@I@shdfnd@physx@@@shdfnd@4@@Z 100c5040 f i GuSweepsHF.obj
 0001:000c40f0       ?init@?$OverlapTraceSegment@VConvexVsHeightfieldSweep@@@HeightFieldUtil@Gu@physx@@QAE_NHHHHHPAVConvexVsHeightfieldSweep@@PAV?$Array@IV?$ReflectionAllocator@I@shdfnd@physx@@@shdfnd@4@@Z 100c50f0 f i GuSweepsHF.obj
 0001:000c41a0       ?onEvent@BoxTraceSegmentReport@@UAE_NIPAI@Z 100c51a0 f i GuSweepsHF.obj
 0001:000c46d0       ?onEvent@CapsuleTraceSegmentReport@@UAE_NIPAI@Z 100c56d0 f i GuSweepsHF.obj
 0001:000c4820       ?onEvent@ConvexVsHeightfieldSweep@@UAE_NIPAI@Z 100c5820 f i GuSweepsHF.obj
 0001:000c4da0       ?prepare@?$OverlapTraceSegment@UBoxTraceSegmentReport@@@HeightFieldUtil@Gu@physx@@QAEXABVPxVec3@4@00AAM1@Z 100c5da0 f i GuSweepsHF.obj
 0001:000c4fe0       ?prepare@?$OverlapTraceSegment@UCapsuleTraceSegmentReport@@@HeightFieldUtil@Gu@physx@@QAEXABVPxVec3@4@00AAM1@Z 100c5fe0 f i GuSweepsHF.obj
 0001:000c5220       ?prepare@?$OverlapTraceSegment@VConvexVsHeightfieldSweep@@@HeightFieldUtil@Gu@physx@@QAEXABVPxVec3@4@00AAM1@Z 100c6220 f i GuSweepsHF.obj
 0001:000c5460       ?step@?$OverlapTraceSegment@UBoxTraceSegmentReport@@@HeightFieldUtil@Gu@physx@@QAE_NHH@Z 100c6460 f i GuSweepsHF.obj
 0001:000c5530       ?step@?$OverlapTraceSegment@UCapsuleTraceSegmentReport@@@HeightFieldUtil@Gu@physx@@QAE_NHH@Z 100c6530 f i GuSweepsHF.obj
 0001:000c5600       ?step@?$OverlapTraceSegment@VConvexVsHeightfieldSweep@@@HeightFieldUtil@Gu@physx@@QAE_NHH@Z 100c6600 f i GuSweepsHF.obj
 0001:000c56d0       ?testVertexIndex@?$OverlapTraceSegment@UBoxTraceSegmentReport@@@HeightFieldUtil@Gu@physx@@QAE_NI@Z 100c66d0 f i GuSweepsHF.obj
 0001:000c57f0       ?testVertexIndex@?$OverlapTraceSegment@UCapsuleTraceSegmentReport@@@HeightFieldUtil@Gu@physx@@QAE_NI@Z 100c67f0 f i GuSweepsHF.obj
 0001:000c5910       ?testVertexIndex@?$OverlapTraceSegment@VConvexVsHeightfieldSweep@@@HeightFieldUtil@Gu@physx@@QAE_NI@Z 100c6910 f i GuSweepsHF.obj
 0001:000c5a30       ?visitCells@?$OverlapTraceSegment@UBoxTraceSegmentReport@@@HeightFieldUtil@Gu@physx@@QAE_NABUOverlapLine@1234@@Z 100c6a30 f i GuSweepsHF.obj
 0001:000c5b10       ?visitCells@?$OverlapTraceSegment@UBoxTraceSegmentReport@@@HeightFieldUtil@Gu@physx@@QAE_NABUOverlapRectangle@1234@@Z 100c6b10 f i GuSweepsHF.obj
 0001:000c5cd0       ?visitCells@?$OverlapTraceSegment@UCapsuleTraceSegmentReport@@@HeightFieldUtil@Gu@physx@@QAE_NABUOverlapLine@1234@@Z 100c6cd0 f i GuSweepsHF.obj
 0001:000c5db0       ?visitCells@?$OverlapTraceSegment@UCapsuleTraceSegmentReport@@@HeightFieldUtil@Gu@physx@@QAE_NABUOverlapRectangle@1234@@Z 100c6db0 f i GuSweepsHF.obj
 0001:000c5f70       ?visitCells@?$OverlapTraceSegment@VConvexVsHeightfieldSweep@@@HeightFieldUtil@Gu@physx@@QAE_NABUOverlapLine@1234@@Z 100c6f70 f i GuSweepsHF.obj
 0001:000c6050       ?visitCells@?$OverlapTraceSegment@VConvexVsHeightfieldSweep@@@HeightFieldUtil@Gu@physx@@QAE_NABUOverlapRectangle@1234@@Z 100c7050 f i GuSweepsHF.obj
 0001:000c6210       ?pcmContactBoxBox@Gu@physx@@YA_NABVGeometryUnion@12@0ABVPxTransform@2@1ABMAAUCache@12@AAVContactBuffer@12@@Z 100c7210 f   GuPCMContactBoxBox.obj
 0001:000c9ba0       ?pcmContactBoxConvex@Gu@physx@@YA_NABVGeometryUnion@12@0ABVPxTransform@2@1ABMAAUCache@12@AAVContactBuffer@12@@Z 100caba0 f   GuPCMContactBoxConvex.obj
 0001:000cf120       ??1SupportLocal@Gu@physx@@UAE@XZ 100d0120 f i GuPCMContactBoxConvex.obj
 0001:000cf130       ??_G?$SupportLocalImpl@VBoxV@Gu@physx@@@Gu@physx@@UAEPAXI@Z 100d0130 f i GuPCMContactBoxConvex.obj
 0001:000cf130       ??_E?$SupportLocalImpl@VBoxV@Gu@physx@@@Gu@physx@@UAEPAXI@Z 100d0130 f i GuPCMContactBoxConvex.obj
 0001:000cf160       ??_E?$SupportLocalImpl@VConvexHullNoScaleV@Gu@physx@@@Gu@physx@@UAEPAXI@Z 100d0160 f i GuPCMContactBoxConvex.obj
 0001:000cf160       ??_G?$SupportLocalImpl@VConvexHullNoScaleV@Gu@physx@@@Gu@physx@@UAEPAXI@Z 100d0160 f i GuPCMContactBoxConvex.obj
 0001:000cf190       ??_G?$SupportLocalImpl@VConvexHullV@Gu@physx@@@Gu@physx@@UAEPAXI@Z 100d0190 f i GuPCMContactBoxConvex.obj
 0001:000cf190       ??_E?$SupportLocalImpl@VConvexHullV@Gu@physx@@@Gu@physx@@UAEPAXI@Z 100d0190 f i GuPCMContactBoxConvex.obj
 0001:000cf1c0       ??_ESupportLocal@Gu@physx@@UAEPAXI@Z 100d01c0 f i GuPCMContactBoxConvex.obj
 0001:000cf1c0       ??_GSupportLocal@Gu@physx@@UAEPAXI@Z 100d01c0 f i GuPCMContactBoxConvex.obj
 0001:000cf1f0       ?doSupport@?$SupportLocalImpl@VBoxV@Gu@physx@@@Gu@physx@@UBE?AT__m128@@ABT4@@Z 100d01f0 f i GuPCMContactBoxConvex.obj
 0001:000cf230       ?doSupport@?$SupportLocalImpl@VBoxV@Gu@physx@@@Gu@physx@@UBEXABT__m128@@AAT4@1@Z 100d0230 f i GuPCMContactBoxConvex.obj
 0001:000cf290       ?doSupport@?$SupportLocalImpl@VConvexHullNoScaleV@Gu@physx@@@Gu@physx@@UBE?AT__m128@@ABT4@@Z 100d0290 f i GuPCMContactBoxConvex.obj
 0001:000cf5d0       ?doSupport@?$SupportLocalImpl@VConvexHullNoScaleV@Gu@physx@@@Gu@physx@@UBEXABT__m128@@AAT4@1@Z 100d05d0 f i GuPCMContactBoxConvex.obj
 0001:000cfbe0       ?doSupport@?$SupportLocalImpl@VConvexHullV@Gu@physx@@@Gu@physx@@UBE?AT__m128@@ABT4@@Z 100d0be0 f i GuPCMContactBoxConvex.obj
 0001:000cffa0       ?doSupport@?$SupportLocalImpl@VConvexHullV@Gu@physx@@@Gu@physx@@UBEXABT__m128@@AAT4@1@Z 100d0fa0 f i GuPCMContactBoxConvex.obj
 0001:000d0920       ?populateVerts@?$SupportLocalImpl@VBoxV@Gu@physx@@@Gu@physx@@UBEXPBEIPBVPxVec3@3@PAT__m128@@@Z 100d1920 f i GuPCMContactBoxConvex.obj
 0001:000d0970       ?populateVerts@?$SupportLocalImpl@VConvexHullNoScaleV@Gu@physx@@@Gu@physx@@UBEXPBEIPBVPxVec3@3@PAT__m128@@@Z 100d1970 f i GuPCMContactBoxConvex.obj
 0001:000d09c0       ?populateVerts@?$SupportLocalImpl@VConvexHullV@Gu@physx@@@Gu@physx@@UBEXPBEIPBVPxVec3@3@PAT__m128@@@Z 100d19c0 f i GuPCMContactBoxConvex.obj
 0001:000d0a40       ?pcmContactCapsuleBox@Gu@physx@@YA_NABVGeometryUnion@12@0ABVPxTransform@2@1ABMAAUCache@12@AAVContactBuffer@12@@Z 100d1a40 f   GuPCMContactCapsuleBox.obj
 0001:000d1980       ?pcmContactCapsuleConvex@Gu@physx@@YA_NABVGeometryUnion@12@0ABVPxTransform@2@1ABMAAUCache@12@AAVContactBuffer@12@@Z 100d2980 f   GuPCMContactCapsuleConvex.obj
 0001:000d63a0       ?pcmContactCapsuleHeightField@Gu@physx@@YA_NABVGeometryUnion@12@0ABVPxTransform@2@1ABMAAUCache@12@AAVContactBuffer@12@@Z 100d73a0 f   GuPCMContactCapsuleHeightField.obj
 0001:000d7220       ??$processTriangleCache@$0BA@VPCMCapsuleVsMeshContactGeneration@Gu@physx@@@PCMMeshContactGeneration@Gu@physx@@QAE_NAAU?$TriangleCache@$0BA@@12@@Z 100d8220 f i GuPCMContactCapsuleHeightField.obj
 0001:000d7290       ??0PCMContactPatch@Gu@physx@@QAE@XZ 100d8290 f i GuPCMContactCapsuleHeightField.obj
 0001:000d72c0       ??0PCMMeshContactGeneration@Gu@physx@@QAE@ABT__m128@@0ABVPsTransformV@aos@shdfnd@2@1AAVMultiplePersistentContactManifold@12@AAVContactBuffer@12@@Z 100d82c0 f i GuPCMContactCapsuleHeightField.obj
 0001:000d7680       ??_G?$PCMHeightfieldContactGenerationCallback@UPCMCapsuleVsHeightfieldContactGenerationCallback@physx@@@Gu@physx@@UAEPAXI@Z 100d8680 f i GuPCMContactCapsuleHeightField.obj
 0001:000d7680       ??_E?$PCMHeightfieldContactGenerationCallback@UPCMCapsuleVsHeightfieldContactGenerationCallback@physx@@@Gu@physx@@UAEPAXI@Z 100d8680 f i GuPCMContactCapsuleHeightField.obj
 0001:000d76b0       ??_EPCMCapsuleVsHeightfieldContactGenerationCallback@physx@@UAEPAXI@Z 100d86b0 f i GuPCMContactCapsuleHeightField.obj
 0001:000d76b0       ??_GPCMCapsuleVsHeightfieldContactGenerationCallback@physx@@UAEPAXI@Z 100d86b0 f i GuPCMContactCapsuleHeightField.obj
 0001:000d76e0       ?onEvent@?$PCMHeightfieldContactGenerationCallback@UPCMCapsuleVsHeightfieldContactGenerationCallback@physx@@@Gu@physx@@UAE_NIPAI@Z 100d86e0 f i GuPCMContactCapsuleHeightField.obj
 0001:000d7aa0       ?pcmContactCapsuleMesh@Gu@physx@@YA_NABVGeometryUnion@12@0ABVPxTransform@2@1ABMAAUCache@12@AAVContactBuffer@12@@Z 100d8aa0 f   GuPCMContactCapsuleMesh.obj
 0001:000d8cb0       ??_E?$PCMMeshContactGenerationCallback@UPCMCapsuleVsMeshContactGenerationCallback@physx@@@Gu@physx@@UAEPAXI@Z 100d9cb0 f i GuPCMContactCapsuleMesh.obj
 0001:000d8cb0       ??_G?$PCMMeshContactGenerationCallback@UPCMCapsuleVsMeshContactGenerationCallback@physx@@@Gu@physx@@UAEPAXI@Z 100d9cb0 f i GuPCMContactCapsuleMesh.obj
 0001:000d8ce0       ??_GPCMCapsuleVsMeshContactGenerationCallback@physx@@UAEPAXI@Z 100d9ce0 f i GuPCMContactCapsuleMesh.obj
 0001:000d8ce0       ??_EPCMCapsuleVsMeshContactGenerationCallback@physx@@UAEPAXI@Z 100d9ce0 f i GuPCMContactCapsuleMesh.obj
 0001:000d8d10       ?addTriangle@?$TriangleCache@$0BA@@Gu@physx@@QAEXPBVPxVec3@3@PBIIE@Z 100d9d10 f i GuPCMContactCapsuleMesh.obj
 0001:000d8db0       ?processHit@?$PCMMeshContactGenerationCallback@UPCMCapsuleVsMeshContactGenerationCallback@physx@@@Gu@physx@@UAE_NABUPxRaycastHit@3@ABVPxVec3@3@11AAMPBI@Z 100d9db0 f i GuPCMContactCapsuleMesh.obj
 0001:000d9040       ?generateLastContacts@PCMConvexVsMeshContactGeneration@Gu@physx@@QAEXXZ 100da040 f   GuPCMContactConvexCommon.obj
 0001:000d9260       ?addContactsToPatch@PCMConvexVsMeshContactGeneration@Gu@physx@@QAEXABT__m128@@II@Z 100da260 f   GuPCMContactConvexCommon.obj
 0001:000d99b0       ?processTriangle@PCMConvexVsMeshContactGeneration@Gu@physx@@QAE_NPBVPxVec3@3@IEPBI@Z 100da9b0 f   GuPCMContactConvexCommon.obj
 0001:000d9d40       ?processTriangle@PCMConvexVsMeshContactGeneration@Gu@physx@@SA_NABUPolygonalData@23@PAVSupportLocal@23@PBVPxVec3@3@IEABT__m128@@_NABVPsTransformV@aos@shdfnd@3@ABVPsMatTransformV@9shdfnd@3@PAVMeshPersistentContact@23@AAI@Z 100dad40 f   GuPCMContactConvexCommon.obj
 0001:000d9fe0       ?processTriangle@PCMSphereVsMeshContactGeneration@Gu@physx@@QAE_NPBVPxVec3@3@IEPBI@Z 100dafe0 f   GuPCMContactConvexCommon.obj
 0001:000da670       ?generateEEContacts@PCMCapsuleVsMeshContactGeneration@Gu@physx@@QAEXABT__m128@@000I000PAVMeshPersistentContact@23@AAI@Z 100db670 f   GuPCMContactConvexCommon.obj
 0001:000da6f0       ?generateEE@PCMCapsuleVsMeshContactGeneration@Gu@physx@@QAEXABT__m128@@000I00PAVMeshPersistentContact@23@AAI@Z 100db6f0 f   GuPCMContactConvexCommon.obj
 0001:000da950       ?generateContacts@PCMCapsuleVsMeshContactGeneration@Gu@physx@@SA_NABT__m128@@0000I000PAVMeshPersistentContact@23@AAI@Z 100db950 f   GuPCMContactConvexCommon.obj
 0001:000dad70       ?generateEEContactsMTD@PCMCapsuleVsMeshContactGeneration@Gu@physx@@SAXABT__m128@@000I000PAVMeshPersistentContact@23@AAI@Z 100dbd70 f   GuPCMContactConvexCommon.obj
 0001:000dade0       ?generateEEMTD@PCMCapsuleVsMeshContactGeneration@Gu@physx@@SAXABT__m128@@000I00PAVMeshPersistentContact@23@AAI@Z 100dbde0 f   GuPCMContactConvexCommon.obj
 0001:000db000       ?processTriangle@PCMCapsuleVsMeshContactGeneration@Gu@physx@@QAE_NPBVPxVec3@3@IEPBI@Z 100dc000 f   GuPCMContactConvexCommon.obj
 0001:000db990       ?processTriangle@PCMCapsuleVsMeshContactGeneration@Gu@physx@@SA_NABVTriangleV@23@IABVCapsuleV@23@ABT__m128@@EPAVMeshPersistentContact@23@AAI@Z 100dc990 f   GuPCMContactConvexCommon.obj
 0001:000dbbc0       ?pcmDistanceSegmentTriangleSquared@Gu@physx@@YA?AT__m128@@ABT3@0000AAT3@11@Z 100dcbc0 f   GuPCMContactConvexCommon.obj
 0001:000dc4a0       ??_G?$SupportLocalImpl@VTriangleV@Gu@physx@@@Gu@physx@@UAEPAXI@Z 100dd4a0 f i GuPCMContactConvexCommon.obj
 0001:000dc4a0       ??_E?$SupportLocalImpl@VTriangleV@Gu@physx@@@Gu@physx@@UAEPAXI@Z 100dd4a0 f i GuPCMContactConvexCommon.obj
 0001:000dc4d0       ?doSupport@?$SupportLocalImpl@VTriangleV@Gu@physx@@@Gu@physx@@UBE?AT__m128@@ABT4@@Z 100dd4d0 f i GuPCMContactConvexCommon.obj
 0001:000dc580       ?doSupport@?$SupportLocalImpl@VTriangleV@Gu@physx@@@Gu@physx@@UBEXABT__m128@@AAT4@1@Z 100dd580 f i GuPCMContactConvexCommon.obj
 0001:000dc610       ?get@?$CacheMap@UCachedEdge@Gu@physx@@$0IA@@Gu@physx@@QBEPBUCachedEdge@23@ABU423@@Z 100dd610 f i GuPCMContactConvexCommon.obj
 0001:000dcc40       ?populateVerts@?$SupportLocalImpl@VTriangleV@Gu@physx@@@Gu@physx@@UBEXPBEIPBVPxVec3@3@PAT__m128@@@Z 100ddc40 f i GuPCMContactConvexCommon.obj
 0001:000dcd70       ?pcmContactConvexConvex@Gu@physx@@YA_NABVGeometryUnion@12@0ABVPxTransform@2@1ABMAAUCache@12@AAVContactBuffer@12@@Z 100ddd70 f   GuPCMContactConvexConvex.obj
 0001:000e8640       ?pcmContactBoxHeightField@Gu@physx@@YA_NABVGeometryUnion@12@0ABVPxTransform@2@1ABMAAUCache@12@AAVContactBuffer@12@@Z 100e9640 f   GuPCMContactConvexHeightField.obj
 0001:000e8840       ?pcmContactConvexHeightField@Gu@physx@@YA_NABVGeometryUnion@12@0ABVPxTransform@2@1ABMAAUCache@12@AAVContactBuffer@12@@Z 100e9840 f   GuPCMContactConvexHeightField.obj
 0001:000e8f20       ?PCMContactConvexHeightfield@Gu@physx@@YA_NABUPolygonalData@12@PAVSupportLocal@12@ABT__m128@@ABVPxBounds3@2@ABVPxHeightFieldGeometry@2@ABVPxTransform@2@5MAAVContactBuffer@12@ABVFastVertex2ShapeScaling@Cm@2@_NAAVMultiplePersistentContactManifold@12@@Z 100e9f20 f   GuPCMContactConvexHeightField.obj
 0001:000e9a20       ??$processTriangleCache@$0BA@VPCMConvexVsMeshContactGeneration@Gu@physx@@@PCMMeshContactGeneration@Gu@physx@@QAE_NAAU?$TriangleCache@$0BA@@12@@Z 100eaa20 f i GuPCMContactConvexHeightField.obj
 0001:000e9a90       ??0PCMConvexVsMeshContactGeneration@Gu@physx@@QAE@ABT__m128@@0ABVPsTransformV@aos@shdfnd@2@1AAVMultiplePersistentContactManifold@12@AAVContactBuffer@12@ABUPolygonalData@12@PAVSupportLocal@12@AAVContainer@12@ABVFastVertex2ShapeScaling@Cm@2@_N@Z 100eaa90 f i GuPCMContactConvexHeightField.obj
 0001:000e9ba0       ??_G?$PCMHeightfieldContactGenerationCallback@UPCMConvexVsHeightfieldContactGenerationCallback@physx@@@Gu@physx@@UAEPAXI@Z 100eaba0 f i GuPCMContactConvexHeightField.obj
 0001:000e9ba0       ??_E?$PCMHeightfieldContactGenerationCallback@UPCMConvexVsHeightfieldContactGenerationCallback@physx@@@Gu@physx@@UAEPAXI@Z 100eaba0 f i GuPCMContactConvexHeightField.obj
 0001:000e9bd0       ??_G?$SupportLocalShrunkImpl@VBoxV@Gu@physx@@VShrunkBoxV@23@@Gu@physx@@UAEPAXI@Z 100eabd0 f i GuPCMContactConvexHeightField.obj
 0001:000e9bd0       ??_E?$SupportLocalShrunkImpl@VBoxV@Gu@physx@@VShrunkBoxV@23@@Gu@physx@@UAEPAXI@Z 100eabd0 f i GuPCMContactConvexHeightField.obj
 0001:000e9c00       ??_G?$SupportLocalShrunkImpl@VConvexHullNoScaleV@Gu@physx@@VShrunkConvexHullNoScaleV@23@@Gu@physx@@UAEPAXI@Z 100eac00 f i GuPCMContactConvexHeightField.obj
 0001:000e9c00       ??_E?$SupportLocalShrunkImpl@VConvexHullNoScaleV@Gu@physx@@VShrunkConvexHullNoScaleV@23@@Gu@physx@@UAEPAXI@Z 100eac00 f i GuPCMContactConvexHeightField.obj
 0001:000e9c30       ??_G?$SupportLocalShrunkImpl@VConvexHullV@Gu@physx@@VShrunkConvexHullV@23@@Gu@physx@@UAEPAXI@Z 100eac30 f i GuPCMContactConvexHeightField.obj
 0001:000e9c30       ??_E?$SupportLocalShrunkImpl@VConvexHullV@Gu@physx@@VShrunkConvexHullV@23@@Gu@physx@@UAEPAXI@Z 100eac30 f i GuPCMContactConvexHeightField.obj
 0001:000e9c60       ??_EPCMConvexVsHeightfieldContactGenerationCallback@physx@@UAEPAXI@Z 100eac60 f i GuPCMContactConvexHeightField.obj
 0001:000e9c60       ??_GPCMConvexVsHeightfieldContactGenerationCallback@physx@@UAEPAXI@Z 100eac60 f i GuPCMContactConvexHeightField.obj
 0001:000e9c90       ?doSupport@?$SupportLocalShrunkImpl@VBoxV@Gu@physx@@VShrunkBoxV@23@@Gu@physx@@UBE?AT__m128@@ABT4@@Z 100eac90 f i GuPCMContactConvexHeightField.obj
 0001:000e9cd0       ?doSupport@?$SupportLocalShrunkImpl@VBoxV@Gu@physx@@VShrunkBoxV@23@@Gu@physx@@UBEXABT__m128@@AAT4@1@Z 100eacd0 f i GuPCMContactConvexHeightField.obj
 0001:000e9d30       ?doSupport@?$SupportLocalShrunkImpl@VConvexHullNoScaleV@Gu@physx@@VShrunkConvexHullNoScaleV@23@@Gu@physx@@UBE?AT__m128@@ABT4@@Z 100ead30 f i GuPCMContactConvexHeightField.obj
 0001:000ea070       ?doSupport@?$SupportLocalShrunkImpl@VConvexHullNoScaleV@Gu@physx@@VShrunkConvexHullNoScaleV@23@@Gu@physx@@UBEXABT__m128@@AAT4@1@Z 100eb070 f i GuPCMContactConvexHeightField.obj
 0001:000ea680       ?doSupport@?$SupportLocalShrunkImpl@VConvexHullV@Gu@physx@@VShrunkConvexHullV@23@@Gu@physx@@UBE?AT__m128@@ABT4@@Z 100eb680 f i GuPCMContactConvexHeightField.obj
 0001:000eaa40       ?doSupport@?$SupportLocalShrunkImpl@VConvexHullV@Gu@physx@@VShrunkConvexHullV@23@@Gu@physx@@UBEXABT__m128@@AAT4@1@Z 100eba40 f i GuPCMContactConvexHeightField.obj
 0001:000eb130       ?onEvent@?$PCMHeightfieldContactGenerationCallback@UPCMConvexVsHeightfieldContactGenerationCallback@physx@@@Gu@physx@@UAE_NIPAI@Z 100ec130 f i GuPCMContactConvexHeightField.obj
 0001:000eb4f0       ?populateVerts@?$SupportLocalShrunkImpl@VBoxV@Gu@physx@@VShrunkBoxV@23@@Gu@physx@@UBEXPBEIPBVPxVec3@3@PAT__m128@@@Z 100ec4f0 f i GuPCMContactConvexHeightField.obj
 0001:000eb540       ?populateVerts@?$SupportLocalShrunkImpl@VConvexHullNoScaleV@Gu@physx@@VShrunkConvexHullNoScaleV@23@@Gu@physx@@UBEXPBEIPBVPxVec3@3@PAT__m128@@@Z 100ec540 f i GuPCMContactConvexHeightField.obj
 0001:000eb590       ?populateVerts@?$SupportLocalShrunkImpl@VConvexHullV@Gu@physx@@VShrunkConvexHullV@23@@Gu@physx@@UBEXPBEIPBVPxVec3@3@PAT__m128@@@Z 100ec590 f i GuPCMContactConvexHeightField.obj
 0001:000eb610       ?pcmContactBoxMesh@Gu@physx@@YA_NABVGeometryUnion@12@0ABVPxTransform@2@1ABMAAUCache@12@AAVContactBuffer@12@@Z 100ec610 f   GuPCMContactConvexMesh.obj
 0001:000eb870       ?pcmContactConvexMesh@Gu@physx@@YA_NABVGeometryUnion@12@0ABVPxTransform@2@1ABMAAUCache@12@AAVContactBuffer@12@@Z 100ec870 f   GuPCMContactConvexMesh.obj
 0001:000ebfb0       ?PCMContactConvexMesh@Gu@physx@@YA_NABUPolygonalData@12@PAVSupportLocal@12@ABT__m128@@ABVPxBounds3@2@ABUPxTriangleMeshGeometryLL@2@ABVPxTransform@2@5MAAVContactBuffer@12@ABVFastVertex2ShapeScaling@Cm@2@7_N8AAVMultiplePersistentContactManifold@12@@Z 100ecfb0 f   GuPCMContactConvexMesh.obj
 0001:000ecb10       ??_G?$PCMMeshContactGenerationCallback@UPCMConvexVsMeshContactGenerationCallback@physx@@@Gu@physx@@UAEPAXI@Z 100edb10 f i GuPCMContactConvexMesh.obj
 0001:000ecb10       ??_E?$PCMMeshContactGenerationCallback@UPCMConvexVsMeshContactGenerationCallback@physx@@@Gu@physx@@UAEPAXI@Z 100edb10 f i GuPCMContactConvexMesh.obj
 0001:000ecb40       ??_EPCMConvexVsMeshContactGenerationCallback@physx@@UAEPAXI@Z 100edb40 f i GuPCMContactConvexMesh.obj
 0001:000ecb40       ??_GPCMConvexVsMeshContactGenerationCallback@physx@@UAEPAXI@Z 100edb40 f i GuPCMContactConvexMesh.obj
 0001:000ecb70       ?processHit@?$PCMMeshContactGenerationCallback@UPCMConvexVsMeshContactGenerationCallback@physx@@@Gu@physx@@UAE_NABUPxRaycastHit@3@ABVPxVec3@3@11AAMPBI@Z 100edb70 f i GuPCMContactConvexMesh.obj
 0001:000ece10       ?generateFullContactManifold@Gu@physx@@YA_NAAUPolygonalData@12@0PAVSupportLocal@12@1PAVPersistentContact@12@AAIABT__m128@@4_N@Z 100ede10 f   GuPCMContactGenBoxConvex.obj
 0001:000ee580       ?computeMTD@Gu@physx@@YA_NAAUPolygonalData@12@0PAVSupportLocal@12@1AAT__m128@@2@Z 100ef580 f   GuPCMContactGenBoxConvex.obj
 0001:000eecb0       ?buildPartialHull@Gu@physx@@YAXABUPolygonalData@12@PAVSupportLocal@12@AAVSeparatingAxes@12@ABT__m128@@3@Z 100efcb0 f   GuPCMContactGenBoxConvex.obj
 0001:000eef50       ?generatedContacts@Gu@physx@@YAXAAUPolygonalData@12@0ABUHullPolygonData@12@1PAVSupportLocal@12@2ABVPsMatTransformV@aos@shdfnd@2@PAVPersistentContact@12@AAIABT__m128@@@Z 100eff50 f   GuPCMContactGenBoxConvex.obj
 0001:000f05a0       ?generateFullContactManifold@Gu@physx@@YA_NABVCapsuleV@12@AAUPolygonalData@12@PAVSupportLocal@12@ABVPsMatTransformV@aos@shdfnd@2@PAVPersistentContact@12@AAIABT__m128@@AAT__m128@@_N@Z 100f15a0 f   GuPCMContactGenSphereCapsule.obj
 0001:000f08e0       ?generateCapsuleBoxFullContactManifold@Gu@physx@@YA_NABVCapsuleV@12@AAUPolygonalData@12@PAVSupportLocal@12@ABVPsMatTransformV@aos@shdfnd@2@PAVPersistentContact@12@AAIABT__m128@@AAT__m128@@_N@Z 100f18e0 f   GuPCMContactGenSphereCapsule.obj
 0001:000f0c20       ?computeMTD@Gu@physx@@YA_NABVCapsuleV@12@AAUPolygonalData@12@PAVSupportLocal@12@AAT__m128@@3@Z 100f1c20 f   GuPCMContactGenSphereCapsule.obj
 0001:000f0d10       ?generateSphereFullContactManifold@Gu@physx@@YA_NABVCapsuleV@12@AAUPolygonalData@12@PAVSupportLocal@12@PAVPersistentContact@12@AAIABT__m128@@AAT7@_N@Z 100f1d10 f   GuPCMContactGenSphereCapsule.obj
 0001:000f1140       ?generatedCapsuleBoxFaceContacts@Gu@physx@@YAXABVCapsuleV@12@AAUPolygonalData@12@ABUHullPolygonData@12@PAVSupportLocal@12@ABVPsMatTransformV@aos@shdfnd@2@PAVPersistentContact@12@AAIABT__m128@@7@Z 100f2140 f   GuPCMContactGenSphereCapsule.obj
 0001:000f1820       ?generatedContactsEEContacts@Gu@physx@@YAXABVCapsuleV@12@AAUPolygonalData@12@ABUHullPolygonData@12@PAVSupportLocal@12@ABVPsMatTransformV@aos@shdfnd@2@PAVPersistentContact@12@AAIABT__m128@@7@Z 100f2820 f   GuPCMContactGenSphereCapsule.obj
 0001:000f2450       ?pcmContactPlaneBox@Gu@physx@@YA_NABVGeometryUnion@12@0ABVPxTransform@2@1ABMAAUCache@12@AAVContactBuffer@12@@Z 100f3450 f   GuPCMContactPlaneBox.obj
 0001:000f31a0       ?pcmContactPlaneCapsule@Gu@physx@@YA_NABVGeometryUnion@12@0ABVPxTransform@2@1ABMAAUCache@12@AAVContactBuffer@12@@Z 100f41a0 f   GuPCMContactPlaneCapsule.obj
 0001:000f3a50       ?pcmContactPlaneConvex@Gu@physx@@YA_NABVGeometryUnion@12@0ABVPxTransform@2@1ABMAAUCache@12@AAVContactBuffer@12@@Z 100f4a50 f   GuPCMContactPlaneConvex.obj
 0001:000f4590       ?pcmContactSphereConvex@Gu@physx@@YA_NABVGeometryUnion@12@0ABVPxTransform@2@1ABMAAUCache@12@AAVContactBuffer@12@@Z 100f5590 f   GuPCMContactSphereConvex.obj
 0001:000f8c80       ??0?$EPASupportMapPairLocalImpl@VCapsuleV@Gu@physx@@VConvexHullNoScaleV@23@@Gu@physx@@QAE@ABVCapsuleV@12@ABVConvexHullNoScaleV@12@@Z 100f9c80 f i GuPCMContactSphereConvex.obj
 0001:000f8ca0       ??_G?$EPASupportMapPairLocalImpl@VCapsuleV@Gu@physx@@VConvexHullNoScaleV@23@@Gu@physx@@UAEPAXI@Z 100f9ca0 f i GuPCMContactSphereConvex.obj
 0001:000f8ca0       ??_E?$EPASupportMapPairLocalImpl@VCapsuleV@Gu@physx@@VConvexHullNoScaleV@23@@Gu@physx@@UAEPAXI@Z 100f9ca0 f i GuPCMContactSphereConvex.obj
 0001:000f8d20       ?doSupport@?$EPASupportMapPairLocalImpl@VCapsuleV@Gu@physx@@VConvexHullNoScaleV@23@@Gu@physx@@UBEXABT__m128@@AAT4@11@Z 100f9d20 f i GuPCMContactSphereConvex.obj
 0001:000f90e0       ?doWarmStartSupport@?$EPASupportMapPairLocalImpl@VCapsuleV@Gu@physx@@VConvexHullNoScaleV@23@@Gu@physx@@UBEXHHAAT__m128@@00@Z 100fa0e0 f i GuPCMContactSphereConvex.obj
 0001:000f92f0       ?getDir@?$EPASupportMapPairLocalImpl@VCapsuleV@Gu@physx@@VConvexHullNoScaleV@23@@Gu@physx@@UBE?AT__m128@@XZ 100fa2f0 f i GuPCMContactSphereConvex.obj
 0001:000f9310       ?pcmContactSphereHeightField@Gu@physx@@YA_NABVGeometryUnion@12@0ABVPxTransform@2@1ABMAAUCache@12@AAVContactBuffer@12@@Z 100fa310 f   GuPCMContactSphereHeightField.obj
 0001:000f9d80       ??$processTriangleCache@$0BA@VPCMSphereVsMeshContactGeneration@Gu@physx@@@PCMMeshContactGeneration@Gu@physx@@QAE_NAAU?$TriangleCache@$0BA@@12@@Z 100fad80 f i GuPCMContactSphereHeightField.obj
 0001:000f9df0       ??_E?$PCMHeightfieldContactGenerationCallback@UPCMSphereVsHeightfieldContactGenerationCallback@physx@@@Gu@physx@@UAEPAXI@Z 100fadf0 f i GuPCMContactSphereHeightField.obj
 0001:000f9df0       ??_G?$PCMHeightfieldContactGenerationCallback@UPCMSphereVsHeightfieldContactGenerationCallback@physx@@@Gu@physx@@UAEPAXI@Z 100fadf0 f i GuPCMContactSphereHeightField.obj
 0001:000f9e20       ??_EPCMSphereVsHeightfieldContactGenerationCallback@physx@@UAEPAXI@Z 100fae20 f i GuPCMContactSphereHeightField.obj
 0001:000f9e20       ??_GPCMSphereVsHeightfieldContactGenerationCallback@physx@@UAEPAXI@Z 100fae20 f i GuPCMContactSphereHeightField.obj
 0001:000f9e50       ?onEvent@?$PCMHeightfieldContactGenerationCallback@UPCMSphereVsHeightfieldContactGenerationCallback@physx@@@Gu@physx@@UAE_NIPAI@Z 100fae50 f i GuPCMContactSphereHeightField.obj
 0001:000fa210       ?pcmContactSphereMesh@Gu@physx@@YA_NABVGeometryUnion@12@0ABVPxTransform@2@1ABMAAUCache@12@AAVContactBuffer@12@@Z 100fb210 f   GuPCMContactSphereMesh.obj
 0001:000fb0b0       ??_G?$PCMMeshContactGenerationCallback@UPCMSphereVsMeshContactGenerationCallback@physx@@@Gu@physx@@UAEPAXI@Z 100fc0b0 f i GuPCMContactSphereMesh.obj
 0001:000fb0b0       ??_E?$PCMMeshContactGenerationCallback@UPCMSphereVsMeshContactGenerationCallback@physx@@@Gu@physx@@UAEPAXI@Z 100fc0b0 f i GuPCMContactSphereMesh.obj
 0001:000fb0e0       ??_GPCMSphereVsMeshContactGenerationCallback@physx@@UAEPAXI@Z 100fc0e0 f i GuPCMContactSphereMesh.obj
 0001:000fb0e0       ??_EPCMSphereVsMeshContactGenerationCallback@physx@@UAEPAXI@Z 100fc0e0 f i GuPCMContactSphereMesh.obj
 0001:000fb110       ?processHit@?$PCMMeshContactGenerationCallback@UPCMSphereVsMeshContactGenerationCallback@physx@@@Gu@physx@@UAE_NABUPxRaycastHit@3@ABVPxVec3@3@11AAMPBI@Z 100fc110 f i GuPCMContactSphereMesh.obj
 0001:000fb3a0       ??0PCMPolygonalBox@Gu@physx@@QAE@ABVPxVec3@2@@Z 100fc3a0 f   GuPCMShapeConvex.obj
 0001:000fb5b0       ?getPolygonalData@PCMPolygonalBox@Gu@physx@@QBEXPIAUPolygonalData@23@@Z 100fc5b0 f   GuPCMShapeConvex.obj
 0001:000fb620       ?getPCMConvexData@Gu@physx@@YAXABVConvexHullV@12@_NAAUPolygonalData@12@@Z 100fc620 f   GuPCMShapeConvex.obj
 0001:000fb670       ?getPCMConvexData@Gu@physx@@YA_NABVGeometryUnion@12@AAVFastVertex2ShapeScaling@Cm@2@AAVPxBounds3@2@AAUPolygonalData@12@@Z 100fc670 f   GuPCMShapeConvex.obj
 0001:000fbae0       ?generateTriangleFullContactManifold@PCMConvexVsMeshContactGeneration@Gu@physx@@QAE_NAAVTriangleV@23@IPBIEABUPolygonalData@23@PAV?$SupportLocalImpl@VTriangleV@Gu@physx@@@23@PAVSupportLocal@23@PAVMeshPersistentContact@23@AAIABT__m128@@AAT9@@Z 100fcae0 f   GuPCMTriangleContactGen.obj
 0001:000fc3f0       ?generatePolyDataContactManifold@PCMConvexVsMeshContactGeneration@Gu@physx@@QAE_NAAVTriangleV@23@IIEPAVMeshPersistentContact@23@AAIABT__m128@@AAT6@@Z 100fd3f0 f   GuPCMTriangleContactGen.obj
 0001:000fc4f0       ?generateTriangleFullContactManifold@PCMConvexVsMeshContactGeneration@Gu@physx@@SA_NAAVTriangleV@23@IEABUPolygonalData@23@PAV?$SupportLocalImpl@VTriangleV@Gu@physx@@@23@PAVSupportLocal@23@PAVMeshPersistentContact@23@AAIABT__m128@@AAT9@@Z 100fd4f0 f   GuPCMTriangleContactGen.obj
 0001:000fed00       ?findRotationMatrixFromZAxis@Gu@physx@@YA?AUMat33V@aos@shdfnd@2@ABT__m128@@@Z 100ffd00 f   GuPersistentContactManifold.obj
 0001:000fef80       ?replaceManifoldPoint@PersistentContactManifold@Gu@physx@@QAE_NABT__m128@@000@Z 100fff80 f   GuPersistentContactManifold.obj
 0001:000ff020       ?addManifoldPoint@PersistentContactManifold@Gu@physx@@QAEIABT__m128@@000@Z 10100020 f   GuPersistentContactManifold.obj
 0001:000ff0b0       ?addManifoldPoint2@PersistentContactManifold@Gu@physx@@QAEIABT__m128@@000@Z 101000b0 f   GuPersistentContactManifold.obj
 0001:000ff150       ?addBatchManifoldContactsCluster@PersistentContactManifold@Gu@physx@@QAEXPBVPersistentContact@23@I@Z 10100150 f   GuPersistentContactManifold.obj
 0001:000ff1c0       ?addBatchManifoldContacts2@PersistentContactManifold@Gu@physx@@QAEXPBVPersistentContact@23@I@Z 101001c0 f   GuPersistentContactManifold.obj
 0001:000ff230       ?addBatchManifoldContacts@PersistentContactManifold@Gu@physx@@QAEXPBVPersistentContact@23@I@Z 10100230 f   GuPersistentContactManifold.obj
 0001:000ff2a0       ?reduceBatchContactsCluster@PersistentContactManifold@Gu@physx@@QAEXPBVPersistentContact@23@I@Z 101002a0 f   GuPersistentContactManifold.obj
 0001:000ff740       ?reduceBatchContacts2@PersistentContactManifold@Gu@physx@@QAEXPBVPersistentContact@23@I@Z 10100740 f   GuPersistentContactManifold.obj
 0001:000ff940       ?reduceBatchContacts@PersistentContactManifold@Gu@physx@@QAEXPBVPersistentContact@23@I@Z 10100940 f   GuPersistentContactManifold.obj
 0001:000ffc30       ?reduceContactsForPCM@PersistentContactManifold@Gu@physx@@QAEIABT__m128@@00@Z 10100c30 f   GuPersistentContactManifold.obj
 0001:00100010       ?reduceContactSegment@PersistentContactManifold@Gu@physx@@QAEIABT__m128@@00@Z 10101010 f   GuPersistentContactManifold.obj
 0001:001000c0       ?addManifoldContactsToContactBuffer@PersistentContactManifold@Gu@physx@@QAEXAAVContactBuffer@23@ABT__m128@@ABVPsMatTransformV@aos@shdfnd@3@@Z 101010c0 f   GuPersistentContactManifold.obj
 0001:00100180       ?addManifoldContactsToContactBuffer@PersistentContactManifold@Gu@physx@@QAEXAAVContactBuffer@23@ABT__m128@@ABVPsTransformV@aos@shdfnd@3@@Z 10101180 f   GuPersistentContactManifold.obj
 0001:001002b0       ?addManifoldContactsToContactBuffer@PersistentContactManifold@Gu@physx@@QAEXAAVContactBuffer@23@ABT__m128@@ABVPsTransformV@aos@shdfnd@3@1@Z 101012b0 f   GuPersistentContactManifold.obj
 0001:001003f0       ?drawManifold@PersistentContactManifold@Gu@physx@@QAEXAAVRenderOutput@Cm@3@ABVPsTransformV@aos@shdfnd@3@1@Z 101013f0 f   GuPersistentContactManifold.obj
 0001:00100470       ?drawManifold@PersistentContactManifold@Gu@physx@@QAEXAAVRenderOutput@Cm@3@ABVPsTransformV@aos@shdfnd@3@1ABT__m128@@@Z 10101470 f   GuPersistentContactManifold.obj
 0001:001004f0       ?drawManifold@PersistentContactManifold@Gu@physx@@QAEXABVPersistentContact@23@AAVRenderOutput@Cm@3@ABVPsTransformV@aos@shdfnd@3@2@Z 101014f0 f   GuPersistentContactManifold.obj
 0001:00100520       ?drawPoint@PersistentContactManifold@Gu@physx@@SAXAAVRenderOutput@Cm@3@ABT__m128@@MI@Z 10101520 f   GuPersistentContactManifold.obj
 0001:001006b0       ?drawLine@PersistentContactManifold@Gu@physx@@SAXAAVRenderOutput@Cm@3@ABT__m128@@1I@Z 101016b0 f   GuPersistentContactManifold.obj
 0001:00100760       ?drawTriangle@PersistentContactManifold@Gu@physx@@SAXAAVRenderOutput@Cm@3@ABT__m128@@11I@Z 10101760 f   GuPersistentContactManifold.obj
 0001:00100850       ?drawPolygon@PersistentContactManifold@Gu@physx@@SAXAAVRenderOutput@Cm@3@ABVPsTransformV@aos@shdfnd@3@PAT__m128@@II@Z 10101850 f   GuPersistentContactManifold.obj
 0001:00100a60       ?drawPolygon@PersistentContactManifold@Gu@physx@@SAXAAVRenderOutput@Cm@3@ABVPsMatTransformV@aos@shdfnd@3@PAT__m128@@II@Z 10101a60 f   GuPersistentContactManifold.obj
 0001:00100bc0       ?reduceBatchContactsConvex@SinglePersistentContactManifold@Gu@physx@@QAE?AT__m128@@PBVMeshPersistentContact@23@IAAUPCMContactPatch@23@@Z 10101bc0 f   GuPersistentContactManifold.obj
 0001:00101150       ?reduceBatchContactsSphere@SinglePersistentContactManifold@Gu@physx@@QAE?AT__m128@@PBVMeshPersistentContact@23@IAAUPCMContactPatch@23@@Z 10102150 f   GuPersistentContactManifold.obj
 0001:00101200       ?reduceBatchContactsCapsule@SinglePersistentContactManifold@Gu@physx@@QAE?AT__m128@@PBVMeshPersistentContact@23@IAAUPCMContactPatch@23@@Z 10102200 f   GuPersistentContactManifold.obj
 0001:00101460       ?addBatchManifoldContactsConvex@SinglePersistentContactManifold@Gu@physx@@QAE?AT__m128@@PBVMeshPersistentContact@23@IAAUPCMContactPatch@23@ABT4@@Z 10102460 f   GuPersistentContactManifold.obj
 0001:00101530       ?addBatchManifoldContactsSphere@SinglePersistentContactManifold@Gu@physx@@QAE?AT__m128@@PBVMeshPersistentContact@23@IAAUPCMContactPatch@23@ABT4@@Z 10102530 f   GuPersistentContactManifold.obj
 0001:00101580       ?addBatchManifoldContactsCapsule@SinglePersistentContactManifold@Gu@physx@@QAE?AT__m128@@PBVMeshPersistentContact@23@IAAUPCMContactPatch@23@ABT4@@Z 10102580 f   GuPersistentContactManifold.obj
 0001:00101650       ?reduceContacts@SinglePersistentContactManifold@Gu@physx@@SAIPAVMeshPersistentContact@23@I@Z 10102650 f   GuPersistentContactManifold.obj
 0001:001019d0       ?refreshContactPoints@SinglePersistentContactManifold@Gu@physx@@QAE?AT__m128@@ABVPsMatTransformV@aos@shdfnd@3@ABT4@1@Z 101029d0 f   GuPersistentContactManifold.obj
 0001:00101b00       ?drawManifold@SinglePersistentContactManifold@Gu@physx@@QAEXAAVRenderOutput@Cm@3@ABVPsTransformV@aos@shdfnd@3@1@Z 10102b00 f   GuPersistentContactManifold.obj
 0001:00101b80       ?addManifoldContactPoints@MultiplePersistentContactManifold@Gu@physx@@QAEXPAVMeshPersistentContact@23@IPAPAUPCMContactPatch@23@IABT__m128@@2E@Z 10102b80 f   GuPersistentContactManifold.obj
 0001:00102000       ?addManifoldContactsToContactBuffer@MultiplePersistentContactManifold@Gu@physx@@QAE_NAAVContactBuffer@23@ABVPsTransformV@aos@shdfnd@3@@Z 10103000 f   GuPersistentContactManifold.obj
 0001:00102290       ?addManifoldContactsToContactBuffer@MultiplePersistentContactManifold@Gu@physx@@QAE_NAAVContactBuffer@23@ABVPsTransformV@aos@shdfnd@3@1ABT__m128@@@Z 10103290 f   GuPersistentContactManifold.obj
 0001:00102520       ?drawManifold@MultiplePersistentContactManifold@Gu@physx@@QAEXAAVRenderOutput@Cm@3@ABVPsTransformV@aos@shdfnd@3@1@Z 10103520 f   GuPersistentContactManifold.obj
 0001:001025d0       ?drawLine@MultiplePersistentContactManifold@Gu@physx@@SAXAAVRenderOutput@Cm@3@ABT__m128@@1I@Z 101035d0 f   GuPersistentContactManifold.obj
 0001:00102680       ?drawLine@MultiplePersistentContactManifold@Gu@physx@@SAXAAVRenderOutput@Cm@3@VPxVec3@3@1I@Z 10103680 f   GuPersistentContactManifold.obj
 0001:00102710       ?drawPoint@MultiplePersistentContactManifold@Gu@physx@@SAXAAVRenderOutput@Cm@3@ABT__m128@@MI@Z 10103710 f   GuPersistentContactManifold.obj
 0001:001028a0       ?drawPolygon@MultiplePersistentContactManifold@Gu@physx@@SAXAAVRenderOutput@Cm@3@ABVPsTransformV@aos@shdfnd@3@PAT__m128@@II@Z 101038a0 f   GuPersistentContactManifold.obj
 0001:00102ab0       ??0MeshPersistentContact@Gu@physx@@QAE@XZ 10103ab0 f i GuPersistentContactManifold.obj
 0001:00102ac0       ??0PersistentContact@Gu@physx@@QAE@XZ 10103ac0 f i GuPersistentContactManifold.obj
 0001:00103bf0       ?computeOBBPoints@Gu@physx@@YAXPIAVPxVec3@2@ABV32@1111@Z 10104bf0 f   GuBox.obj
 0001:00103ec0       ?create@Box@Gu@physx@@QAEXABVCapsule@23@@Z 10104ec0 f   GuBox.obj
 0001:00104120       ?getBoxEdges@Gu@physx@@YAPBEXZ 10105120 f   GuBox.obj
 0001:00104130       ?CompleteBoxPruning@Gu@physx@@YA_NPBVPxBounds3@2@IAAV?$Array@IV?$ReflectionAllocator@I@shdfnd@physx@@@shdfnd@2@ABVAxes@12@@Z 10105130 f   GuBoxPruning.obj
 0001:00104380       ?BipartiteBoxPruning@Gu@physx@@YA_NPBVPxBounds3@2@I0IAAV?$Array@IV?$ReflectionAllocator@I@shdfnd@physx@@@shdfnd@2@ABVAxes@12@@Z 10105380 f   GuBoxPruning.obj
 0001:00104840       ?GetNbHits@RadixSort@Gu@physx@@QBEIXZ 10105840 f i GuBoxPruning.obj
 0001:00104850       ?GetNbTotalCalls@RadixSort@Gu@physx@@QBEIXZ 10105850 f i GuBoxPruning.obj
 0001:00104860       ?GetRanks@RadixSort@Gu@physx@@QBEPBIXZ 10105860 f i GuBoxPruning.obj
 0001:00104870       ?GetRecyclable@RadixSort@Gu@physx@@QBEPAIXZ 10105870 f i GuBoxPruning.obj
 0001:00104880       ?allocate@?$Array@IV?$ReflectionAllocator@I@shdfnd@physx@@@shdfnd@physx@@IAEPAII@Z 10105880 f i GuBoxPruning.obj
 0001:001048f0       ?growAndPushBack@?$Array@IV?$ReflectionAllocator@I@shdfnd@physx@@@shdfnd@physx@@IAEAAIABI@Z 101058f0 f i GuBoxPruning.obj
 0001:00104980       ?computeBoxAroundCapsule@Gu@physx@@YAXABVCapsule@12@AAVBox@12@@Z 10105980 f   GuCapsule.obj
 0001:00104af0       ?computeBasis@shdfnd@physx@@YAXABVPxVec3@2@0AAV32@11@Z 10105af0 f i GuCapsule.obj
 0001:00104c80       ?sweepCCTBoxTriangles@Gu@physx@@YA_NIPBVPxTriangle@2@_NABVPxBoxGeometry@2@ABVPxTransform@2@ABVPxVec3@2@MAAV62@5AAMAAIPBIMV?$PxFlags@W4Enum@PxHitFlag@physx@@G@2@@Z 10105c80 f   GuCCTSweepTests.obj
 0001:00104ed0       ?sweepCCTCapsule_BoxGeom@@YA_NABVPxGeometry@physx@@ABVPxTransform@2@ABVCapsule@Gu@2@ABVPxVec3@2@MAAUPxSweepHit@2@V?$PxFlags@W4Enum@PxHitFlag@physx@@G@2@M@Z 10105ed0 f   GuCCTSweepTests.obj
 0001:001055f0       ?sweepCCTBox_SphereGeom@@YA_NABVPxGeometry@physx@@ABVPxTransform@2@ABVBox@Gu@2@ABVPxVec3@2@MAAUPxSweepHit@2@V?$PxFlags@W4Enum@PxHitFlag@physx@@G@2@M@Z 101065f0 f   GuCCTSweepTests.obj
 0001:00105850       ?sweepCCTBox_CapsuleGeom@@YA_NABVPxGeometry@physx@@ABVPxTransform@2@ABVBox@Gu@2@ABVPxVec3@2@MAAUPxSweepHit@2@V?$PxFlags@W4Enum@PxHitFlag@physx@@G@2@M@Z 10106850 f   GuCCTSweepTests.obj
 0001:00105be0       ?sweepCCTBox_BoxGeom@@YA_NABVPxGeometry@physx@@ABVPxTransform@2@ABVBox@Gu@2@ABVPxVec3@2@MAAUPxSweepHit@2@V?$PxFlags@W4Enum@PxHitFlag@physx@@G@2@M@Z 10106be0 f   GuCCTSweepTests.obj
 0001:00105e50       ?sweepCCTBox_HeightFieldGeom@@YA_NABVPxGeometry@physx@@ABVPxTransform@2@ABVBox@Gu@2@ABVPxVec3@2@MAAUPxSweepHit@2@V?$PxFlags@W4Enum@PxHitFlag@physx@@G@2@M@Z 10106e50 f   GuCCTSweepTests.obj
 0001:001061f0       ??0Capsule@Gu@physx@@QAE@ABV012@@Z 101071f0 f i GuCCTSweepTests.obj
 0001:00106230       ??_ELocalReport@?1??sweepCCTBox_HeightFieldGeom@@YA_NABVPxGeometry@physx@@ABVPxTransform@3@ABVBox@Gu@3@ABVPxVec3@3@MAAUPxSweepHit@3@V?$PxFlags@W4Enum@PxHitFlag@physx@@G@3@M@Z@UAEPAXI@Z 10107230 f i GuCCTSweepTests.obj
 0001:00106230       ??_GLocalReport@?1??sweepCCTBox_HeightFieldGeom@@YA_NABVPxGeometry@physx@@ABVPxTransform@3@ABVBox@Gu@3@ABVPxVec3@3@MAAUPxSweepHit@3@V?$PxFlags@W4Enum@PxHitFlag@physx@@G@3@M@Z@UAEPAXI@Z 10107230 f i GuCCTSweepTests.obj
 0001:00106ff0       ??0Container@Gu@physx@@QAE@XZ 10107ff0 f   GuContainer.obj
 0001:00107010       ??0Container@Gu@physx@@QAE@ABV012@@Z 10108010 f   GuContainer.obj
 0001:00107060       ??0Container@Gu@physx@@QAE@IM@Z 10108060 f   GuContainer.obj
 0001:001070a0       ??1Container@Gu@physx@@QAE@XZ 101080a0 f   GuContainer.obj
 0001:001070b0       ?Contains@Container@Gu@physx@@QBE_NIPAI@Z 101080b0 f   GuContainer.obj
 0001:001070f0       ?Delete@Container@Gu@physx@@QAE_NI@Z 101080f0 f   GuContainer.obj
 0001:00107140       ?DeleteKeepingOrder@Container@Gu@physx@@QAE_NI@Z 10108140 f   GuContainer.obj
 0001:00107190       ??4Container@Gu@physx@@QAEXABV012@@Z 10108190 f   GuContainer.obj
 0001:001071d0       ?InitSharedBuffers@Container@Gu@physx@@QAEXIPAI_N@Z 101081d0 f   GuContainerMemoryMgmt.obj
 0001:00107240       ?Empty@Container@Gu@physx@@QAEAAV123@XZ 10108240 f   GuContainerMemoryMgmt.obj
 0001:00107280       ?SetSize@Container@Gu@physx@@QAE_NI@Z 10108280 f   GuContainerMemoryMgmt.obj
 0001:00107340       ?Refit@Container@Gu@physx@@QAE_NXZ 10108340 f   GuContainerMemoryMgmt.obj
 0001:001073c0       ?Resize@Container@Gu@physx@@AAE_NI@Z 101083c0 f   GuContainerMemoryMgmt.obj
 0001:001074f0       ??$?_UI@@YAPAXIV?$ReflectionAllocator@I@shdfnd@physx@@PBDH@Z 101084f0 f i GuContainerMemoryMgmt.obj
 0001:00107550       ?convertToPxMat44@Debug@Gu@physx@@SA?AVPxMat44@3@ABVMatrix34@Cm@3@@Z 10108550 f   GuDebug.obj
 0001:001075f0       ?convertToPxMat44@Debug@Gu@physx@@SA?AVPxMat44@3@ABVPxTransform@3@@Z 101085f0 f   GuDebug.obj
 0001:00107780       ?visualize@Debug@Gu@physx@@SAXABVPxBoxGeometry@3@AAVRenderOutput@Cm@3@ABVMatrix34@63@ABVPxBounds3@3@_KMI@Z 10108780 f   GuDebug.obj
 0001:00107910       ?visualize@Debug@Gu@physx@@SAXABVPxSphereGeometry@3@AAVRenderOutput@Cm@3@ABVMatrix34@63@ABVPxBounds3@3@_KMI@Z 10108910 f   GuDebug.obj
 0001:00107b50       ?visualize@Debug@Gu@physx@@SAXABVPxPlaneGeometry@3@AAVRenderOutput@Cm@3@ABVMatrix34@63@ABVPxBounds3@3@_KMI@Z 10108b50 f   GuDebug.obj
 0001:00107ce0       ?visualize@Debug@Gu@physx@@SAXABVPxCapsuleGeometry@3@AAVRenderOutput@Cm@3@ABVMatrix34@63@ABVPxBounds3@3@_KMI@Z 10108ce0 f   GuDebug.obj
 0001:00107da0       ?visualize@Debug@Gu@physx@@SAXABVPxConvexMeshGeometry@3@AAVRenderOutput@Cm@3@ABVMatrix34@63@ABVPxBounds3@3@_KMI@Z 10108da0 f   GuDebug.obj
 0001:00107dd0       ?visualize@Debug@Gu@physx@@SAXABVPxTriangleMeshGeometry@3@AAVRenderOutput@Cm@3@ABVMatrix34@63@ABVPxBounds3@3@_KMI@Z 10108dd0 f   GuDebug.obj
 0001:00107e10       ?visualize@Debug@Gu@physx@@SAXABVPxHeightFieldGeometry@3@AAVRenderOutput@Cm@3@ABVMatrix34@63@ABVPxBounds3@3@_KMI@Z 10108e10 f   GuDebug.obj
 0001:00108520       ?sweep@PxGeometryQuery@physx@@SA_NABVPxVec3@2@MABVPxGeometry@2@ABVPxTransform@2@12AAUPxSweepHit@2@V?$PxFlags@W4Enum@PxHitFlag@physx@@G@2@M@Z 10109520 f   GuGeometryQuery.obj
 0001:00108970       ?overlap@PxGeometryQuery@physx@@SA_NABVPxGeometry@2@ABVPxTransform@2@01@Z 10109970 f   GuGeometryQuery.obj
 0001:001089e0       ?raycast@PxGeometryQuery@physx@@SAIABVPxVec3@2@0ABVPxGeometry@2@ABVPxTransform@2@MV?$PxFlags@W4Enum@PxHitFlag@physx@@G@2@IPIAUPxRaycastHit@2@_N@Z 101099e0 f   GuGeometryQuery.obj
 0001:00108a50       ?computePenetration@PxGeometryQuery@physx@@SA_NAAVPxVec3@2@AAMABVPxGeometry@2@ABVPxTransform@2@23@Z 10109a50 f   GuGeometryQuery.obj
 0001:00108b30       ?pointDistance@PxGeometryQuery@physx@@SAMABVPxVec3@2@ABVPxGeometry@2@ABVPxTransform@2@PAV32@@Z 10109b30 f   GuGeometryQuery.obj
 0001:001091c0       ?getWorldBounds@PxGeometryQuery@physx@@SA?AVPxBounds3@2@ABVPxGeometry@2@ABVPxTransform@2@M@Z 1010a1c0 f   GuGeometryQuery.obj
 0001:00109300       ?set@GeometryUnion@Gu@physx@@QAEXABVPxGeometry@3@@Z 1010a300 f   GuGeometryUnion.obj
 0001:00109400       ??4PxConvexMeshGeometry@physx@@QAEAAV01@ABV01@@Z 1010a400 f i GuGeometryUnion.obj
 0001:00109440       ??4PxHeightFieldGeometry@physx@@QAEAAV01@ABV01@@Z 1010a440 f i GuGeometryUnion.obj
 0001:00109480       ??4PxTriangleMeshGeometry@physx@@QAEAAV01@ABV01@@Z 1010a480 f i GuGeometryUnion.obj
 0001:001094e0       ?computeBoxPoints@Gu@physx@@YAXABVPxBounds3@2@PIAVPxVec3@2@@Z 1010a4e0 f   GuGeomUtilsInternal.obj
 0001:00109580       ?computeBoundsAroundVertices@Gu@physx@@YAXAAVPxBounds3@2@IPIBVPxVec3@2@@Z 1010a580 f   GuGeomUtilsInternal.obj
 0001:00109630       ?getPlane@Gu@physx@@YA?AVPxPlane@2@ABVPxTransform@2@@Z 1010a630 f   GuGeomUtilsInternal.obj
 0001:001096d0       ?getCapsuleTransform@Gu@physx@@YA?AVPxTransform@2@ABVCapsule@12@AAM@Z 1010a6d0 f   GuGeomUtilsInternal.obj
 0001:00109920       ?computeSweptBox@Gu@physx@@YAXAAVBox@12@ABVPxVec3@2@1ABVPxMat33@2@1M@Z 1010a920 f   GuGeomUtilsInternal.obj
 0001:00109de0       ??1GuMeshFactory@physx@@MAE@XZ 1010ade0 f   GuMeshFactory.obj
 0001:00109e70       ?release@GuMeshFactory@physx@@QAEXXZ 1010ae70 f   GuMeshFactory.obj
 0001:00109ed0       ?addTriangleMesh@GuMeshFactory@physx@@QAEXPAVTriangleMesh@Gu@2@_N@Z 1010aed0 f   GuMeshFactory.obj
 0001:00109f30       ?createTriangleMesh@GuMeshFactory@physx@@QAEPAVPxTriangleMesh@2@AAVPxInputStream@2@@Z 1010af30 f   GuMeshFactory.obj
 0001:0010a010       ?removeTriangleMesh@GuMeshFactory@physx@@QAE_NAAVPxTriangleMesh@2@@Z 1010b010 f   GuMeshFactory.obj
 0001:0010a050       ?getNbTriangleMeshes@GuMeshFactory@physx@@QBEIXZ 1010b050 f   GuMeshFactory.obj
 0001:0010a070       ?getTriangleMeshes@GuMeshFactory@physx@@QBEIPAPAVPxTriangleMesh@2@II@Z 1010b070 f   GuMeshFactory.obj
 0001:0010a0d0       ?addConvexMesh@GuMeshFactory@physx@@QAEXPAVConvexMesh@Gu@2@_N@Z 1010b0d0 f   GuMeshFactory.obj
 0001:0010a130       ?createConvexMesh@GuMeshFactory@physx@@QAEPAVPxConvexMesh@2@AAVPxInputStream@2@@Z 1010b130 f   GuMeshFactory.obj
 0001:0010a210       ?removeConvexMesh@GuMeshFactory@physx@@QAE_NAAVPxConvexMesh@2@@Z 1010b210 f   GuMeshFactory.obj
 0001:0010a250       ?getNbConvexMeshes@GuMeshFactory@physx@@QBEIXZ 1010b250 f   GuMeshFactory.obj
 0001:0010a270       ?getConvexMeshes@GuMeshFactory@physx@@QBEIPAPAVPxConvexMesh@2@II@Z 1010b270 f   GuMeshFactory.obj
 0001:0010a2d0       ?addHeightField@GuMeshFactory@physx@@QAEXPAVHeightField@Gu@2@_N@Z 1010b2d0 f   GuMeshFactory.obj
 0001:0010a330       ?createHeightField@GuMeshFactory@physx@@QAEPAVPxHeightField@2@ABVPxHeightFieldDesc@2@@Z 1010b330 f   GuMeshFactory.obj
 0001:0010a410       ?createHeightField@GuMeshFactory@physx@@QAEPAVPxHeightField@2@AAVPxInputStream@2@@Z 1010b410 f   GuMeshFactory.obj
 0001:0010a4f0       ?removeHeightField@GuMeshFactory@physx@@QAE_NAAVPxHeightField@2@@Z 1010b4f0 f   GuMeshFactory.obj
 0001:0010a530       ?getNbHeightFields@GuMeshFactory@physx@@QBEIXZ 1010b530 f   GuMeshFactory.obj
 0001:0010a550       ?getHeightFields@GuMeshFactory@physx@@QBEIPAPAVPxHeightField@2@II@Z 1010b550 f   GuMeshFactory.obj
 0001:0010a5b0       ?addFactoryListener@GuMeshFactory@physx@@QAEXAAVGuMeshFactoryListener@2@@Z 1010b5b0 f   GuMeshFactory.obj
 0001:0010a610       ?removeFactoryListener@GuMeshFactory@physx@@QAEXAAVGuMeshFactoryListener@2@@Z 1010b610 f   GuMeshFactory.obj
 0001:0010a670       ?notifyFactoryListener@GuMeshFactory@physx@@QAEXPBVPxBase@2@G_N@Z 1010b670 f   GuMeshFactory.obj
 0001:0010a6b0       ?allocate@?$Array@PAVGuMeshFactoryListener@physx@@V?$ReflectionAllocator@PAVGuMeshFactoryListener@physx@@@shdfnd@2@@shdfnd@physx@@IAEPAPAVGuMeshFactoryListener@3@I@Z 1010b6b0 f i GuMeshFactory.obj
 0001:0010a720       ?create@?$HashBase@PAVConvexMesh@Gu@physx@@PAV123@U?$Hash@PAVConvexMesh@Gu@physx@@@shdfnd@3@UGetKey@?$HashSetBase@PAVConvexMesh@Gu@physx@@U?$Hash@PAVConvexMesh@Gu@physx@@@shdfnd@3@VAllocator@53@$00@internal@53@VAllocator@53@$00@internal@shdfnd@physx@@QAEPAPAVConvexMesh@Gu@4@ABQAV564@AA_N@Z 1010b720 f i GuMeshFactory.obj
 0001:0010a850       ?create@?$HashBase@PAVHeightField@Gu@physx@@PAV123@U?$Hash@PAVHeightField@Gu@physx@@@shdfnd@3@UGetKey@?$HashSetBase@PAVHeightField@Gu@physx@@U?$Hash@PAVHeightField@Gu@physx@@@shdfnd@3@VAllocator@53@$00@internal@53@VAllocator@53@$00@internal@shdfnd@physx@@QAEPAPAVHeightField@Gu@4@ABQAV564@AA_N@Z 1010b850 f i GuMeshFactory.obj
 0001:0010a980       ?create@?$HashBase@PAVTriangleMesh@Gu@physx@@PAV123@U?$Hash@PAVTriangleMesh@Gu@physx@@@shdfnd@3@UGetKey@?$HashSetBase@PAVTriangleMesh@Gu@physx@@U?$Hash@PAVTriangleMesh@Gu@physx@@@shdfnd@3@VAllocator@53@$00@internal@53@VAllocator@53@$00@internal@shdfnd@physx@@QAEPAPAVTriangleMesh@Gu@4@ABQAV564@AA_N@Z 1010b980 f i GuMeshFactory.obj
 0001:0010aab0       ?erase@?$HashBase@PAVConvexMesh@Gu@physx@@PAV123@U?$Hash@PAVConvexMesh@Gu@physx@@@shdfnd@3@UGetKey@?$HashSetBase@PAVConvexMesh@Gu@physx@@U?$Hash@PAVConvexMesh@Gu@physx@@@shdfnd@3@VAllocator@53@$00@internal@53@VAllocator@53@$00@internal@shdfnd@physx@@QAE_NABQAVConvexMesh@Gu@4@@Z 1010bab0 f i GuMeshFactory.obj
 0001:0010ab60       ?erase@?$HashBase@PAVHeightField@Gu@physx@@PAV123@U?$Hash@PAVHeightField@Gu@physx@@@shdfnd@3@UGetKey@?$HashSetBase@PAVHeightField@Gu@physx@@U?$Hash@PAVHeightField@Gu@physx@@@shdfnd@3@VAllocator@53@$00@internal@53@VAllocator@53@$00@internal@shdfnd@physx@@QAE_NABQAVHeightField@Gu@4@@Z 1010bb60 f i GuMeshFactory.obj
 0001:0010ac10       ?erase@?$HashBase@PAVTriangleMesh@Gu@physx@@PAV123@U?$Hash@PAVTriangleMesh@Gu@physx@@@shdfnd@3@UGetKey@?$HashSetBase@PAVTriangleMesh@Gu@physx@@U?$Hash@PAVTriangleMesh@Gu@physx@@@shdfnd@3@VAllocator@53@$00@internal@53@VAllocator@53@$00@internal@shdfnd@physx@@QAE_NABQAVTriangleMesh@Gu@4@@Z 1010bc10 f i GuMeshFactory.obj
 0001:0010acc0       ?growAndPushBack@?$Array@PAVGuMeshFactoryListener@physx@@V?$ReflectionAllocator@PAVGuMeshFactoryListener@physx@@@shdfnd@2@@shdfnd@physx@@IAEAAPAVGuMeshFactoryListener@3@ABQAV43@@Z 1010bcc0 f i GuMeshFactory.obj
 0001:0010ad50       ?replaceWithLast@?$HashBase@PAVConvexMesh@Gu@physx@@PAV123@U?$Hash@PAVConvexMesh@Gu@physx@@@shdfnd@3@UGetKey@?$HashSetBase@PAVConvexMesh@Gu@physx@@U?$Hash@PAVConvexMesh@Gu@physx@@@shdfnd@3@VAllocator@53@$00@internal@53@VAllocator@53@$00@internal@shdfnd@physx@@AAEXI@Z 1010bd50 f i GuMeshFactory.obj
 0001:0010ade0       ?replaceWithLast@?$HashBase@PAVHeightField@Gu@physx@@PAV123@U?$Hash@PAVHeightField@Gu@physx@@@shdfnd@3@UGetKey@?$HashSetBase@PAVHeightField@Gu@physx@@U?$Hash@PAVHeightField@Gu@physx@@@shdfnd@3@VAllocator@53@$00@internal@53@VAllocator@53@$00@internal@shdfnd@physx@@AAEXI@Z 1010bde0 f i GuMeshFactory.obj
 0001:0010ae70       ?replaceWithLast@?$HashBase@PAVTriangleMesh@Gu@physx@@PAV123@U?$Hash@PAVTriangleMesh@Gu@physx@@@shdfnd@3@UGetKey@?$HashSetBase@PAVTriangleMesh@Gu@physx@@U?$Hash@PAVTriangleMesh@Gu@physx@@@shdfnd@3@VAllocator@53@$00@internal@53@VAllocator@53@$00@internal@shdfnd@physx@@AAEXI@Z 1010be70 f i GuMeshFactory.obj
 0001:0010af00       ?getBinaryMetaData@HeightField@Gu@physx@@SAXAAVPxOutputStream@3@@Z 1010bf00 f   GuMetaData.obj
 0001:0010b210       ?getBinaryMetaData@BigConvexData@physx@@SAXAAVPxOutputStream@2@@Z 1010c210 f   GuMetaData.obj
 0001:0010b450       ?getBinaryMetaData@ConvexMesh@Gu@physx@@SAXAAVPxOutputStream@3@@Z 1010c450 f   GuMetaData.obj
 0001:0010b990       ?getBinaryMetaData@MeshInterface@Gu@physx@@SAXAAVPxOutputStream@3@@Z 1010c990 f   GuMetaData.obj
 0001:0010bb40       ?getBinaryMetaData@RTree@Gu@physx@@SAXAAVPxOutputStream@3@@Z 1010cb40 f   GuMetaData.obj
 0001:0010bf10       ?getBinaryMetaData@RTreeMidphase@Gu@physx@@SAXAAVPxOutputStream@3@@Z 1010cf10 f   GuMetaData.obj
 0001:0010c040       ?getBinaryMetaData@InternalTriangleMesh@physx@@SAXAAVPxOutputStream@2@@Z 1010d040 f   GuMetaData.obj
 0001:0010c3a0       ?getBinaryMetaData@TriangleMesh@Gu@physx@@SAXAAVPxOutputStream@3@@Z 1010d3a0 f   GuMetaData.obj
 0001:0010c510       ?getBinaryMetaData@MaterialIndicesStruct@physx@@SAXAAVPxOutputStream@2@@Z 1010d510 f   GuMetaData.obj
 0001:0010c680       ?getBinaryMetaData@GeometryUnion@Gu@physx@@SAXAAVPxOutputStream@3@@Z 1010d680 f   GuMetaData.obj
 0001:0010eb80       ?computeMTD_SphereSphere@Gu@physx@@YA_NAAVPxVec3@2@AAMABVSphere@12@2@Z 1010fb80 f   GuMTD.obj
 0001:0010ec60       ?computeMTD_SphereCapsule@Gu@physx@@YA_NAAVPxVec3@2@AAMABVSphere@12@ABVCapsule@12@@Z 1010fc60 f   GuMTD.obj
 0001:0010eda0       ?computeMTD_SphereBox@Gu@physx@@YA_NAAVPxVec3@2@AAMABVSphere@12@ABVBox@12@@Z 1010fda0 f   GuMTD.obj
 0001:0010f2f0       ?computeMTD_CapsuleCapsule@Gu@physx@@YA_NAAVPxVec3@2@AAMABVCapsule@12@2@Z 101102f0 f   GuMTD.obj
 0001:0010f490       ?computeMTD_CapsuleBox@Gu@physx@@YA_NAAVPxVec3@2@AAMABVCapsule@12@ABVBox@12@@Z 10110490 f   GuMTD.obj
 0001:0010f6c0       ?computeMTD_BoxBox@Gu@physx@@YA_NAAVPxVec3@2@AAMABVBox@12@2@Z 101106c0 f   GuMTD.obj
 0001:00110530       ?computeMTD_SphereConvex@Gu@physx@@YA_NAAVPxVec3@2@AAMABVSphere@12@ABVPxConvexMeshGeometry@2@ABVPxTransform@2@@Z 10111530 f   GuMTD.obj
 0001:001108b0       ?computeMTD_BoxConvex@Gu@physx@@YA_NAAVPxVec3@2@AAMABVBox@12@ABVPxConvexMeshGeometry@2@ABVPxTransform@2@@Z 101118b0 f   GuMTD.obj
 0001:00110fe0       ?computeMTD_CapsuleConvex@Gu@physx@@YA_NAAVPxVec3@2@AAMABVCapsule@12@ABVPxTransform@2@ABVPxConvexMeshGeometry@2@3@Z 10111fe0 f   GuMTD.obj
 0001:001119f0       ?computeMTD_ConvexConvex@Gu@physx@@YA_NAAVPxVec3@2@AAMABVPxConvexMeshGeometry@2@ABVPxTransform@2@23@Z 101129f0 f   GuMTD.obj
 0001:00112570       ?computeMTD_SpherePlane@Gu@physx@@YA_NAAVPxVec3@2@AAMABVSphere@12@ABVPxPlane@2@@Z 10113570 f   GuMTD.obj
 0001:001125f0       ?computeMTD_PlaneBox@Gu@physx@@YA_NAAVPxVec3@2@AAMABVPxPlane@2@ABVBox@12@@Z 101135f0 f   GuMTD.obj
 0001:001127d0       ?computeMTD_PlaneCapsule@Gu@physx@@YA_NAAVPxVec3@2@AAMABVPxPlane@2@ABVCapsule@12@@Z 101137d0 f   GuMTD.obj
 0001:00112880       ?computeMTD_PlaneConvex@Gu@physx@@YA_NAAVPxVec3@2@AAMABVPxPlane@2@ABVPxConvexMeshGeometry@2@ABVPxTransform@2@@Z 10113880 f   GuMTD.obj
 0001:00112b80       ?computeMTD_SphereMesh@Gu@physx@@YA_NAAVPxVec3@2@AAMABVSphere@12@ABVPxTriangleMeshGeometry@2@ABVPxTransform@2@@Z 10113b80 f   GuMTD.obj
 0001:00112ca0       ?computeMTD_BoxMesh@Gu@physx@@YA_NAAVPxVec3@2@AAMABVBox@12@ABVPxTriangleMeshGeometry@2@ABVPxTransform@2@@Z 10113ca0 f   GuMTD.obj
 0001:00112df0       ?computeMTD_CapsuleMesh@Gu@physx@@YA_NAAVPxVec3@2@AAMABVCapsule@12@ABVPxTriangleMeshGeometry@2@ABVPxTransform@2@@Z 10113df0 f   GuMTD.obj
 0001:00112f00       ?computeMTD_ConvexMesh@Gu@physx@@YA_NAAVPxVec3@2@AAMABVPxConvexMeshGeometry@2@ABVPxTransform@2@ABVPxTriangleMeshGeometry@2@3@Z 10113f00 f   GuMTD.obj
 0001:00112fd0       ?computeMTD_SphereHeightField@Gu@physx@@YA_NAAVPxVec3@2@AAMABVSphere@12@ABVPxHeightFieldGeometry@2@ABVPxTransform@2@@Z 10113fd0 f   GuMTD.obj
 0001:001130f0       ?computeMTD_CapsuleHeightField@Gu@physx@@YA_NAAVPxVec3@2@AAMABVCapsule@12@ABVPxHeightFieldGeometry@2@ABVPxTransform@2@@Z 101140f0 f   GuMTD.obj
 0001:00113200       ?computeMTD_BoxHeightField@Gu@physx@@YA_NAAVPxVec3@2@AAMABVBox@12@ABVPxHeightFieldGeometry@2@ABVPxTransform@2@@Z 10114200 f   GuMTD.obj
 0001:00113350       ?computeMTD_ConvexHeightField@Gu@physx@@YA_NAAVPxVec3@2@AAMABVPxConvexMeshGeometry@2@ABVPxTransform@2@ABVPxHeightFieldGeometry@2@3@Z 10114350 f   GuMTD.obj
 0001:00113420       ?pointConvexDistance@@YA_NAAVPxVec3@physx@@0AAMABV12@PBVConvexMesh@Gu@2@ABVPxMeshScale@2@ABVPxTransform@2@@Z 10114420 f   GuMTD.obj
 0001:001157d0       ??0ContactPoint@Gu@physx@@QAE@XZ 101167d0 f i GuMTD.obj
 0001:00116190       ?computeBounds@GeometryUnion@Gu@physx@@QBEXAAVPxBounds3@3@ABVPxTransform@3@MPIBV43@@Z 10117190 f   GuObjectBounds.obj
 0001:001166e0       ?computeBoundsWithCCDThreshold@GeometryUnion@Gu@physx@@QBEMAAVPxVec3@3@0ABVPxTransform@3@PIBVPxBounds3@3@@Z 101176e0 f   GuObjectBounds.obj
 0001:00116bd0       ??0PxBounds3@physx@@QAE@ABV01@@Z 10117bd0 f i GuObjectBounds.obj
 0001:00117860       ?intersectPlaneBox@Gu@physx@@YA_NABVPxPlane@2@ABVBox@12@@Z 10118860 f   GuOverlapTests.obj
 0001:001178f0       ?intersectPlaneCapsule@Gu@physx@@YA_NABVCapsule@12@ABVPxPlane@2@@Z 101188f0 f   GuOverlapTests.obj
 0001:00117970       ?intersectSphereSphere@Gu@physx@@YA_NABVSphere@12@0@Z 10118970 f   GuOverlapTests.obj
 0001:001179d0       ?intersectSphereCapsule@Gu@physx@@YA_NABVSphere@12@ABVCapsule@12@@Z 101189d0 f   GuOverlapTests.obj
 0001:00117a10       ?intersectSphereBox@Gu@physx@@YA_NABVSphere@12@ABVBox@12@@Z 10118a10 f   GuOverlapTests.obj
 0001:00117bf0       ?intersectBoxCapsule@Gu@physx@@YA_NABVBox@12@ABVCapsule@12@@Z 10118bf0 f   GuOverlapTests.obj
 0001:00117c40       ?intersectSphereConvex@Gu@physx@@YA_NABVSphere@12@ABVConvexMesh@12@ABVPxMeshScale@2@ABVPxTransform@2@PAVPxVec3@2@@Z 10118c40 f   GuOverlapTests.obj
 0001:00118650       ?intersectCapsuleConvex@Gu@physx@@YA_NABVPxCapsuleGeometry@2@ABVPxTransform@2@ABVConvexMesh@12@ABVPxMeshScale@2@1PAVPxVec3@2@@Z 10119650 f   GuOverlapTests.obj
 0001:00119080       ?intersectBoxConvex@Gu@physx@@YA_NABVPxBoxGeometry@2@ABVPxTransform@2@ABVConvexMesh@12@ABVPxMeshScale@2@1PAVPxVec3@2@@Z 1011a080 f   GuOverlapTests.obj
 0001:00119ae0       ?checkOverlapSphere_boxGeom@Gu@physx@@YA_NABVPxGeometry@2@ABVPxTransform@2@ABVSphere@12@@Z 1011aae0 f   GuOverlapTests.obj
 0001:00119c70       ?checkOverlapSphere_sphereGeom@Gu@physx@@YA_NABVPxGeometry@2@ABVPxTransform@2@ABVSphere@12@@Z 1011ac70 f   GuOverlapTests.obj
 0001:00119cd0       ?checkOverlapSphere_capsuleGeom@Gu@physx@@YA_NABVPxGeometry@2@ABVPxTransform@2@ABVSphere@12@@Z 1011acd0 f   GuOverlapTests.obj
 0001:00119de0       ?checkOverlapSphere_planeGeom@Gu@physx@@YA_NABVPxGeometry@2@ABVPxTransform@2@ABVSphere@12@@Z 1011ade0 f   GuOverlapTests.obj
 0001:00119e40       ?checkOverlapSphere_convexGeom@Gu@physx@@YA_NABVPxGeometry@2@ABVPxTransform@2@ABVSphere@12@@Z 1011ae40 f   GuOverlapTests.obj
 0001:0011a040       ?checkOverlapOBB_boxGeom@Gu@physx@@YA_NABVPxGeometry@2@ABVPxTransform@2@ABVBox@12@@Z 1011b040 f   GuOverlapTests.obj
 0001:0011a180       ?checkOverlapOBB_sphereGeom@Gu@physx@@YA_NABVPxGeometry@2@ABVPxTransform@2@ABVBox@12@@Z 1011b180 f   GuOverlapTests.obj
 0001:0011a1d0       ?checkOverlapOBB_capsuleGeom@Gu@physx@@YA_NABVPxGeometry@2@ABVPxTransform@2@ABVBox@12@@Z 1011b1d0 f   GuOverlapTests.obj
 0001:0011a2e0       ?checkOverlapOBB_planeGeom@Gu@physx@@YA_NABVPxGeometry@2@ABVPxTransform@2@ABVBox@12@@Z 1011b2e0 f   GuOverlapTests.obj
 0001:0011a310       ?checkOverlapOBB_convexGeom@Gu@physx@@YA_NABVPxGeometry@2@ABVPxTransform@2@ABVBox@12@@Z 1011b310 f   GuOverlapTests.obj
 0001:0011a570       ?checkOverlapCapsule_boxGeom@Gu@physx@@YA_NABVPxGeometry@2@ABVPxTransform@2@ABVCapsule@12@@Z 1011b570 f   GuOverlapTests.obj
 0001:0011a730       ?checkOverlapCapsule_sphereGeom@Gu@physx@@YA_NABVPxGeometry@2@ABVPxTransform@2@ABVCapsule@12@@Z 1011b730 f   GuOverlapTests.obj
 0001:0011a7a0       ?checkOverlapCapsule_capsuleGeom@Gu@physx@@YA_NABVPxGeometry@2@ABVPxTransform@2@ABVCapsule@12@@Z 1011b7a0 f   GuOverlapTests.obj
 0001:0011a900       ?checkOverlapCapsule_planeGeom@Gu@physx@@YA_NABVPxGeometry@2@ABVPxTransform@2@ABVCapsule@12@@Z 1011b900 f   GuOverlapTests.obj
 0001:0011a9a0       ?checkOverlapCapsule_convexGeom@Gu@physx@@YA_NABVPxGeometry@2@ABVPxTransform@2@ABVCapsule@12@@Z 1011b9a0 f   GuOverlapTests.obj
 0001:0011abf0       ?GetGeomOverlapMethodTable@Gu@physx@@YAPAY06P6A_NABVPxGeometry@2@ABVPxTransform@2@01PAUTriggerCache@12@@ZXZ 1011bbf0 f   GuOverlapTests.obj
 0001:0011ac00       ?registerHeightFields@Gu@physx@@YAXXZ 1011bc00 f   GuOverlapTests.obj
 0001:0011d690       ?GetRaycastFuncTable@Gu@physx@@YAAAY06P6AIABVPxGeometry@2@ABVPxTransform@2@ABVPxVec3@2@2MV?$PxFlags@W4Enum@PxHitFlag@physx@@G@2@IPIAUPxRaycastHit@2@_NP6A_NAAU72@PAX@Z7@ZXZ 1011e690 f   GuRaycastTests.obj
 0001:0011d6a0       ?raycast_box@@YAIABVPxGeometry@physx@@ABVPxTransform@2@ABVPxVec3@2@2MV?$PxFlags@W4Enum@PxHitFlag@physx@@G@2@IPIAUPxRaycastHit@2@_NP6A_NAAU62@PAX@Z7@Z 1011e6a0 f   GuRaycastTests.obj
 0001:0011dcc0       ?raycast_sphere@@YAIABVPxGeometry@physx@@ABVPxTransform@2@ABVPxVec3@2@2MV?$PxFlags@W4Enum@PxHitFlag@physx@@G@2@IPIAUPxRaycastHit@2@_NP6A_NAAU62@PAX@Z7@Z 1011ecc0 f   GuRaycastTests.obj
 0001:0011de40       ?raycast_capsule@@YAIABVPxGeometry@physx@@ABVPxTransform@2@ABVPxVec3@2@2MV?$PxFlags@W4Enum@PxHitFlag@physx@@G@2@IPIAUPxRaycastHit@2@_NP6A_NAAU62@PAX@Z7@Z 1011ee40 f   GuRaycastTests.obj
 0001:0011e160       ?raycast_plane@@YAIABVPxGeometry@physx@@ABVPxTransform@2@ABVPxVec3@2@2MV?$PxFlags@W4Enum@PxHitFlag@physx@@G@2@IPIAUPxRaycastHit@2@_NP6A_NAAU62@PAX@Z7@Z 1011f160 f   GuRaycastTests.obj
 0001:0011e2c0       ?raycast_convexMesh@@YAIABVPxGeometry@physx@@ABVPxTransform@2@ABVPxVec3@2@2MV?$PxFlags@W4Enum@PxHitFlag@physx@@G@2@IPIAUPxRaycastHit@2@_NP6A_NAAU62@PAX@Z7@Z 1011f2c0 f   GuRaycastTests.obj
 0001:0011ede0       ?raycast_triangleMesh@@YAIABVPxGeometry@physx@@ABVPxTransform@2@ABVPxVec3@2@2MV?$PxFlags@W4Enum@PxHitFlag@physx@@G@2@IPIAUPxRaycastHit@2@_NP6A_NAAU62@PAX@Z7@Z 1011fde0 f   GuRaycastTests.obj
 0001:0011f5b0       ?raycast_heightField@@YAIABVPxGeometry@physx@@ABVPxTransform@2@ABVPxVec3@2@2MV?$PxFlags@W4Enum@PxHitFlag@physx@@G@2@IPIAUPxRaycastHit@2@_NP6A_NAAU62@PAX@Z7@Z 101205b0 f   GuRaycastTests.obj
 0001:0011fe00       ??$traceSegment@VRayCastCallback@Gu@physx@@$0A@$0A@$0A@@HeightFieldUtil@Gu@physx@@QBEXABVPxVec3@2@0PAVRayCastCallback@12@PBV32@@Z 10120e00 f i GuRaycastTests.obj
 0001:00120890       ??Dphysx@@YA?AVMatrix34@Cm@0@ABVPxMeshScale@0@ABVPxTransform@0@@Z 10121890 f i GuRaycastTests.obj
 0001:00120f80       ??_GRayMeshColliderCallback@@UAEPAXI@Z 10121f80 f i GuRaycastTests.obj
 0001:00120f80       ??_ERayMeshColliderCallback@@UAEPAXI@Z 10121f80 f i GuRaycastTests.obj
 0001:00120fc0       ?processHit@RayMeshColliderCallback@@UAE_NABUPxRaycastHit@physx@@ABVPxVec3@3@11AAMPBI@Z 10121fc0 f i GuRaycastTests.obj
 0001:00121600       ?transform@PxMeshScale@physx@@QBE?AVPxVec3@2@ABV32@@Z 10122600 f i GuRaycastTests.obj
 0001:00121820       ??0RadixSort@Gu@physx@@QAE@XZ 10122820 f   GuRevisitedRadix.obj
 0001:00121860       ??1RadixSort@Gu@physx@@UAE@XZ 10122860 f   GuRevisitedRadix.obj
 0001:00121870       ?Sort@RadixSort@Gu@physx@@QAEAAV123@PBIIW4RadixHint@23@@Z 10122870 f   GuRevisitedRadix.obj
 0001:00121dd0       ?Sort@RadixSort@Gu@physx@@QAEAAV123@PBMI@Z 10122dd0 f   GuRevisitedRadix.obj
 0001:00122420       ?SetBuffers@RadixSort@Gu@physx@@QAE_NPAI00PAPAI@Z 10123420 f   GuRevisitedRadix.obj
 0001:00122470       ??_ERadixSort@Gu@physx@@UAEPAXI@Z 10123470 f i GuRevisitedRadix.obj
 0001:001224e0       ??_GRadixSort@Gu@physx@@UAEPAXI@Z 101234e0 f i GuRevisitedRadix.obj
 0001:00122510       ??0RadixSortBuffered@Gu@physx@@QAE@XZ 10123510 f   GuRevisitedRadixBuffered.obj
 0001:00122530       ??1RadixSortBuffered@Gu@physx@@UAE@XZ 10123530 f   GuRevisitedRadixBuffered.obj
 0001:00122580       ?Sort@RadixSortBuffered@Gu@physx@@QAEAAV123@PBIIW4RadixHint@23@@Z 10123580 f   GuRevisitedRadixBuffered.obj
 0001:001225f0       ?Sort@RadixSortBuffered@Gu@physx@@QAEAAV123@PBMI@Z 101235f0 f   GuRevisitedRadixBuffered.obj
 0001:00122660       ?Resize@RadixSortBuffered@Gu@physx@@AAE_NI@Z 10123660 f   GuRevisitedRadixBuffered.obj
 0001:001226d0       ??_ERadixSortBuffered@Gu@physx@@UAEPAXI@Z 101236d0 f i GuRevisitedRadixBuffered.obj
 0001:001227b0       ??_GRadixSortBuffered@Gu@physx@@UAEPAXI@Z 101237b0 f i GuRevisitedRadixBuffered.obj
 0001:00122810       ?CheckResize@RadixSortBuffered@Gu@physx@@AAEXI@Z 10123810 f i GuRevisitedRadixBuffered.obj
 0001:00122840       ?writeChunk@physx@@YAXCCCCAAVPxOutputStream@1@@Z 10123840 f   GuSerialize.obj
 0001:00122880       ?readChunk@physx@@YAXAAC000AAVPxInputStream@1@@Z 10123880 f   GuSerialize.obj
 0001:001228c0       ?readWord@physx@@YAG_NAAVPxInputStream@1@@Z 101238c0 f   GuSerialize.obj
 0001:001228f0       ?readDword@physx@@YAI_NAAVPxInputStream@1@@Z 101238f0 f   GuSerialize.obj
 0001:00122930       ?readFloat@physx@@YAM_NAAVPxInputStream@1@@Z 10123930 f   GuSerialize.obj
 0001:00122970       ?writeWord@physx@@YAXG_NAAVPxOutputStream@1@@Z 10123970 f   GuSerialize.obj
 0001:001229a0       ?writeDword@physx@@YAXI_NAAVPxOutputStream@1@@Z 101239a0 f   GuSerialize.obj
 0001:001229d0       ?writeFloat@physx@@YAXM_NAAVPxOutputStream@1@@Z 101239d0 f   GuSerialize.obj
 0001:00122a00       ?readFloatBuffer@physx@@YA_NPAMI_NAAVPxInputStream@1@@Z 10123a00 f   GuSerialize.obj
 0001:00122a60       ?writeWordBuffer@physx@@YAXPBGI_NAAVPxOutputStream@1@@Z 10123a60 f   GuSerialize.obj
 0001:00122ab0       ?writeFloatBuffer@physx@@YAXPBMI_NAAVPxOutputStream@1@@Z 10123ab0 f   GuSerialize.obj
 0001:00122b10       ?writeHeader@physx@@YA_NCCCCI_NAAVPxOutputStream@1@@Z 10123b10 f   GuSerialize.obj
 0001:00122be0       ?readHeader@physx@@YA_NCCCCAAIAA_NAAVPxInputStream@1@@Z 10123be0 f   GuSerialize.obj
 0001:00122cc0       ?computeMaxIndex@physx@@YAIPBII@Z 10123cc0 f   GuSerialize.obj
 0001:00122cf0       ?computeMaxIndex@physx@@YAGPBGI@Z 10123cf0 f   GuSerialize.obj
 0001:00122d20       ?storeIndices@physx@@YAXIIPBIAAVPxOutputStream@1@_N@Z 10123d20 f   GuSerialize.obj
 0001:00122dd0       ?readIndices@physx@@YAXIIPAIAAVPxInputStream@1@_N@Z 10123dd0 f   GuSerialize.obj
 0001:00122e80       ?WriteHeader@Gu@physx@@YA_NEEEEI_NAAVPxOutputStream@2@@Z 10123e80 f   GuSerialize.obj
 0001:00122f50       ?ReadHeader@Gu@physx@@YA_NEEEEAAIAA_NAAVPxInputStream@2@@Z 10123f50 f   GuSerialize.obj
 0001:00123040       ?StoreIndices@Gu@physx@@YAXIIPBIAAVPxOutputStream@2@_N@Z 10124040 f   GuSerialize.obj
 0001:00123110       ?ReadIndices@Gu@physx@@YAXIIPAIAAVPxInputStream@2@_N@Z 10124110 f   GuSerialize.obj
 0001:001231b0       ?StoreIndices@Gu@physx@@YAXGIPBGAAVPxOutputStream@2@_N@Z 101241b0 f   GuSerialize.obj
 0001:00123240       ?ReadIndices@Gu@physx@@YAXGIPAGAAVPxInputStream@2@_N@Z 10124240 f   GuSerialize.obj
 0001:00123330       ?computeCapsule_TriangleMeshMTD@Gu@physx@@YA_NABVPxTriangleMeshGeometry@2@ABVPxTransform@2@AAVCapsuleV@12@MM_NAAUPxSweepHit@2@@Z 10124330 f   GuSweepMTD.obj
 0001:00123ad0       ?computeCapsule_HeightFieldMTD@Gu@physx@@YA_NABVPxHeightFieldGeometry@2@ABVPxTransform@2@AAVCapsuleV@12@MM_NIAAUPxSweepHit@2@@Z 10124ad0 f   GuSweepMTD.obj
 0001:00124120       ?computeBox_TriangleMeshMTD@Gu@physx@@YA_NABVPxTriangleMeshGeometry@2@ABVPxTransform@2@ABVBox@12@1MM_NAAUPxSweepHit@2@@Z 10125120 f   GuSweepMTD.obj
 0001:00124d30       ?computeBox_HeightFieldMTD@Gu@physx@@YA_NABVPxHeightFieldGeometry@2@ABVPxTransform@2@ABVBox@12@1MM_NIAAUPxSweepHit@2@@Z 10125d30 f   GuSweepMTD.obj
 0001:00125c40       ?computeConvex_TriangleMeshMTD@Gu@physx@@YA_NABVPxTriangleMeshGeometry@2@ABVPxTransform@2@ABVPxConvexMeshGeometry@2@1MM_NAAUPxSweepHit@2@@Z 10126c40 f   GuSweepMTD.obj
 0001:001271d0       ?computeConvex_HeightFieldMTD@Gu@physx@@YA_NABVPxHeightFieldGeometry@2@ABVPxTransform@2@ABVPxConvexMeshGeometry@2@1MM_NIAAUPxSweepHit@2@@Z 101281d0 f   GuSweepMTD.obj
 0001:00128840       ?computeSphere_SphereMTD@Gu@physx@@YA_NABVSphere@12@0AAUPxSweepHit@2@@Z 10129840 f   GuSweepMTD.obj
 0001:00128910       ?computeSphere_CapsuleMTD@Gu@physx@@YA_NABVSphere@12@ABVCapsule@12@AAUPxSweepHit@2@@Z 10129910 f   GuSweepMTD.obj
 0001:00128a40       ?computeCapsule_CapsuleMTD@Gu@physx@@YA_NABVCapsule@12@0AAUPxSweepHit@2@@Z 10129a40 f   GuSweepMTD.obj
 0001:00128bc0       ?computePlane_CapsuleMTD@Gu@physx@@YA_NABVPxPlane@2@ABVCapsule@12@AAUPxSweepHit@2@@Z 10129bc0 f   GuSweepMTD.obj
 0001:00128cc0       ?computePlane_BoxMTD@Gu@physx@@YA_NABVPxPlane@2@ABVBox@12@AAUPxSweepHit@2@@Z 10129cc0 f   GuSweepMTD.obj
 0001:00128ee0       ?computePlane_ConvexMTD@Gu@physx@@YA_NABVPxPlane@2@ABVPxConvexMeshGeometry@2@ABVPxTransform@2@AAUPxSweepHit@2@@Z 10129ee0 f   GuSweepMTD.obj
 0001:00129360       ?calculateMTD@@YA_NABVCapsuleV@Gu@physx@@ABT__m128@@_NPBUMTDTriangle@@IIPAVMeshPersistentContact@23@AAIAAT4@6656@Z 1012a360 f   GuSweepMTD.obj
 0001:00129550       ?calculateMTD@@YA_NABUPolygonalData@Gu@physx@@PAVSupportLocal@23@AAVPsTransformV@aos@shdfnd@3@ABVPsMatTransformV@673@_NABT__m128@@PBUMTDTriangle@@IIPAVMeshPersistentContact@23@AAIAAT9@9989@Z 1012a550 f   GuSweepMTD.obj
 0001:001296a0       ??0MTDTriangle@@QAE@XZ     1012a6a0 f i GuSweepMTD.obj
 0001:001296b0       ??1MTDTriangle@@QAE@XZ     1012a6b0 f i GuSweepMTD.obj
 0001:001296c0       ??_GMeshMTDGenerationCallback@@UAEPAXI@Z 1012a6c0 f i GuSweepMTD.obj
 0001:001296c0       ??_EMeshMTDGenerationCallback@@UAEPAXI@Z 1012a6c0 f i GuSweepMTD.obj
 0001:001296f0       ??_GMidPhaseQueryLocalReport@@UAEPAXI@Z 1012a6f0 f i GuSweepMTD.obj
 0001:001296f0       ??_EMidPhaseQueryLocalReport@@UAEPAXI@Z 1012a6f0 f i GuSweepMTD.obj
 0001:001297c0       ?onEvent@MidPhaseQueryLocalReport@@UAE_NIPAI@Z 1012a7c0 f i GuSweepMTD.obj
 0001:00129810       ?processHit@MeshMTDGenerationCallback@@UAE_NABUPxRaycastHit@physx@@ABVPxVec3@3@11AAMPBI@Z 1012a810 f i GuSweepMTD.obj
 0001:00129850       ?SweepCapsuleTriangles@Gu@physx@@YA_NIPBVPxTriangle@2@_NABVPxCapsuleGeometry@2@ABVPxTransform@2@ABVPxVec3@2@MPBIAAV62@6AAMAAIMV?$PxFlags@W4Enum@PxHitFlag@physx@@G@2@@Z 1012a850 f   GuSweepSharedTests.obj
 0001:001299c0       ?sweepCapsule_SphereGeom@@YA_NABVPxGeometry@physx@@ABVPxTransform@2@ABVCapsule@Gu@2@ABVPxVec3@2@MAAUPxSweepHit@2@V?$PxFlags@W4Enum@PxHitFlag@physx@@G@2@M@Z 1012a9c0 f   GuSweepSharedTests.obj
 0001:00129b40       ?sweepCapsule_PlaneGeom@@YA_NABVPxGeometry@physx@@ABVPxTransform@2@ABVCapsule@Gu@2@ABVPxVec3@2@MAAUPxSweepHit@2@V?$PxFlags@W4Enum@PxHitFlag@physx@@G@2@M@Z 1012ab40 f   GuSweepSharedTests.obj
 0001:00129de0       ?sweepCapsule_CapsuleGeom@@YA_NABVPxGeometry@physx@@ABVPxTransform@2@ABVCapsule@Gu@2@ABVPxVec3@2@MAAUPxSweepHit@2@V?$PxFlags@W4Enum@PxHitFlag@physx@@G@2@M@Z 1012ade0 f   GuSweepSharedTests.obj
 0001:00129f80       ?sweepCapsule_ConvexGeom@@YA_NABVPxGeometry@physx@@ABVPxTransform@2@ABVCapsule@Gu@2@ABVPxVec3@2@MAAUPxSweepHit@2@V?$PxFlags@W4Enum@PxHitFlag@physx@@G@2@M@Z 1012af80 f   GuSweepSharedTests.obj
 0001:0012adc0       ?sweepBox_PlaneGeom@@YA_NABVPxGeometry@physx@@ABVPxTransform@2@ABVBox@Gu@2@ABVPxVec3@2@MAAUPxSweepHit@2@V?$PxFlags@W4Enum@PxHitFlag@physx@@G@2@M@Z 1012bdc0 f   GuSweepSharedTests.obj
 0001:0012b150       ?sweepBox_ConvexGeom@@YA_NABVPxGeometry@physx@@ABVPxTransform@2@ABVBox@Gu@2@ABVPxVec3@2@MAAUPxSweepHit@2@V?$PxFlags@W4Enum@PxHitFlag@physx@@G@2@M@Z 1012c150 f   GuSweepSharedTests.obj
 0001:0012bf90       ?sweepConvex_SphereGeom@@YA_NABVPxGeometry@physx@@ABVPxTransform@2@ABVPxConvexMeshGeometry@2@1ABVPxVec3@2@MAAUPxSweepHit@2@V?$PxFlags@W4Enum@PxHitFlag@physx@@G@2@M@Z 1012cf90 f   GuSweepSharedTests.obj
 0001:0012ccb0       ?sweepConvex_PlaneGeom@@YA_NABVPxGeometry@physx@@ABVPxTransform@2@ABVPxConvexMeshGeometry@2@1ABVPxVec3@2@MAAUPxSweepHit@2@V?$PxFlags@W4Enum@PxHitFlag@physx@@G@2@M@Z 1012dcb0 f   GuSweepSharedTests.obj
 0001:0012d080       ?sweepConvex_CapsuleGeom@@YA_NABVPxGeometry@physx@@ABVPxTransform@2@ABVPxConvexMeshGeometry@2@1ABVPxVec3@2@MAAUPxSweepHit@2@V?$PxFlags@W4Enum@PxHitFlag@physx@@G@2@M@Z 1012e080 f   GuSweepSharedTests.obj
 0001:0012d260       ?sweepConvex_BoxGeom@@YA_NABVPxGeometry@physx@@ABVPxTransform@2@ABVPxConvexMeshGeometry@2@1ABVPxVec3@2@MAAUPxSweepHit@2@V?$PxFlags@W4Enum@PxHitFlag@physx@@G@2@M@Z 1012e260 f   GuSweepSharedTests.obj
 0001:0012d4f0       ?sweepConvex_ConvexGeom@@YA_NABVPxGeometry@physx@@ABVPxTransform@2@ABVPxConvexMeshGeometry@2@1ABVPxVec3@2@MAAUPxSweepHit@2@V?$PxFlags@W4Enum@PxHitFlag@physx@@G@2@M@Z 1012e4f0 f   GuSweepSharedTests.obj
 0001:0012ebf0       ?GetGeomSweepFuncs@Gu@physx@@YAABUGeomSweepFuncs@12@XZ 1012fbf0 f   GuSweepTests.obj
 0001:0012ec00       ?SweepBoxTriangles@Gu@physx@@YA_NIPBVPxTriangle@2@_NABVPxBoxGeometry@2@ABVPxTransform@2@ABVPxVec3@2@MAAV62@5AAMAAIPBIMV?$PxFlags@W4Enum@PxHitFlag@physx@@G@2@@Z 1012fc00 f   GuSweepTests.obj
 0001:0012f710       ?sweepCapsule_BoxGeom@@YA_NABVPxGeometry@physx@@ABVPxTransform@2@ABVCapsule@Gu@2@ABVPxVec3@2@MAAUPxSweepHit@2@V?$PxFlags@W4Enum@PxHitFlag@physx@@G@2@M@Z 10130710 f   GuSweepTests.obj
 0001:00130000       ?sweepBox_SphereGeom@@YA_NABVPxGeometry@physx@@ABVPxTransform@2@ABVBox@Gu@2@ABVPxVec3@2@MAAUPxSweepHit@2@V?$PxFlags@W4Enum@PxHitFlag@physx@@G@2@M@Z 10131000 f   GuSweepTests.obj
 0001:00130640       ?sweepBox_CapsuleGeom@@YA_NABVPxGeometry@physx@@ABVPxTransform@2@ABVBox@Gu@2@ABVPxVec3@2@MAAUPxSweepHit@2@V?$PxFlags@W4Enum@PxHitFlag@physx@@G@2@M@Z 10131640 f   GuSweepTests.obj
 0001:00130ed0       ?sweepBox_BoxGeom@@YA_NABVPxGeometry@physx@@ABVPxTransform@2@ABVBox@Gu@2@ABVPxVec3@2@MAAUPxSweepHit@2@V?$PxFlags@W4Enum@PxHitFlag@physx@@G@2@M@Z 10131ed0 f   GuSweepTests.obj
 0001:00131784       _CloseHandle@4             10132784 f   kernel32:KERNEL32.dll
 0001:0013178a       _MapViewOfFile@20          1013278a f   kernel32:KERNEL32.dll
 0001:00131790       _UnmapViewOfFile@4         10132790 f   kernel32:KERNEL32.dll
 0001:00131796       _CreateFileMappingA@24     10132796 f   kernel32:KERNEL32.dll
 0001:0013179c       _OpenFileMappingA@12       1013279c f   kernel32:KERNEL32.dll
 0001:001317a2       _FreeLibrary@4             101327a2 f   kernel32:KERNEL32.dll
 0001:001317a8       _GetProcAddress@8          101327a8 f   kernel32:KERNEL32.dll
 0001:001317ae       _LoadLibraryA@4            101327ae f   kernel32:KERNEL32.dll
 0001:001317b4       _InitializeCriticalSection@4 101327b4 f   kernel32:KERNEL32.dll
 0001:001317ba       _EnterCriticalSection@4    101327ba f   kernel32:KERNEL32.dll
 0001:001317c0       _LeaveCriticalSection@4    101327c0 f   kernel32:KERNEL32.dll
 0001:001317c6       _TryEnterCriticalSection@4 101327c6 f   kernel32:KERNEL32.dll
 0001:001317cc       _DeleteCriticalSection@4   101327cc f   kernel32:KERNEL32.dll
 0001:001317d2       _GetCurrentThread@0        101327d2 f   kernel32:KERNEL32.dll
 0001:001317d8       _GetCurrentThreadId@0      101327d8 f   kernel32:KERNEL32.dll
 0001:001317de       _OutputDebugStringA@4      101327de f   kernel32:KERNEL32.dll
 0001:001317e4       _InitializeSListHead@4     101327e4 f   kernel32:KERNEL32.dll
 0001:001317ea       _InterlockedPopEntrySList@4 101327ea f   kernel32:KERNEL32.dll
 0001:001317f0       _InterlockedPushEntrySList@8 101327f0 f   kernel32:KERNEL32.dll
 0001:001317f6       _InterlockedFlushSList@4   101327f6 f   kernel32:KERNEL32.dll
 0001:001317fc       _SetEvent@4                101327fc f   kernel32:KERNEL32.dll
 0001:00131802       _ResetEvent@4              10132802 f   kernel32:KERNEL32.dll
 0001:00131808       _WaitForSingleObject@8     10132808 f   kernel32:KERNEL32.dll
 0001:0013180e       _CreateEventA@16           1013280e f   kernel32:KERNEL32.dll
 0001:00131814       _RaiseException@16         10132814 f   kernel32:KERNEL32.dll
 0001:0013181a       _GetLastError@0            1013281a f   kernel32:KERNEL32.dll
 0001:00131820       _Sleep@4                   10132820 f   kernel32:KERNEL32.dll
 0001:00131826       _SwitchToThread@0          10132826 f   kernel32:KERNEL32.dll
 0001:0013182c       _CreateThread@24           1013282c f   kernel32:KERNEL32.dll
 0001:00131832       _SetThreadPriority@8       10132832 f   kernel32:KERNEL32.dll
 0001:00131838       _GetThreadPriority@4       10132838 f   kernel32:KERNEL32.dll
 0001:0013183e       _ExitThread@4              1013283e f   kernel32:KERNEL32.dll
 0001:00131844       _TerminateThread@8         10132844 f   kernel32:KERNEL32.dll
 0001:0013184a       _ResumeThread@4            1013284a f   kernel32:KERNEL32.dll
 0001:00131850       _TlsAlloc@0                10132850 f   kernel32:KERNEL32.dll
 0001:00131856       _TlsGetValue@4             10132856 f   kernel32:KERNEL32.dll
 0001:0013185c       _TlsSetValue@8             1013285c f   kernel32:KERNEL32.dll
 0001:00131862       _TlsFree@4                 10132862 f   kernel32:KERNEL32.dll
 0001:00131868       _GetModuleHandleA@4        10132868 f   kernel32:KERNEL32.dll
 0001:0013186e       _SetThreadAffinityMask@8   1013286e f   kernel32:KERNEL32.dll
 0001:00131874       _QueryPerformanceCounter@4 10132874 f   kernel32:KERNEL32.dll
 0001:0013187a       _QueryPerformanceFrequency@4 1013287a f   kernel32:KERNEL32.dll
 0001:00131880       ??3@YAXPAXI@Z              10132880 f   MSVCRT:delete_scalar_size.obj
 0001:0013188e       ??_V@YAXPAXI@Z             1013288e f   MSVCRT:delete_array_size.obj
 0001:0013189c       ?__scrt_initialize_type_info@@YAXXZ 1013289c f   MSVCRT:tncleanup.obj
 0001:001318a8       ?__scrt_uninitialize_type_info@@YAXXZ 101328a8 f   MSVCRT:tncleanup.obj
 0001:001318b4       ??1type_info@@UAE@XZ       101328b4 f   MSVCRT:std_type_info_static.obj
 0001:001318bb       ??_Gtype_info@@UAEPAXI@Z   101328bb f i MSVCRT:std_type_info_static.obj
 0001:001318bb       ??_Etype_info@@UAEPAXI@Z   101328bb f i MSVCRT:std_type_info_static.obj
 0001:001318de       ??3@YAXPAX@Z               101328de f   MSVCRT:delete_scalar.obj
 0001:001318e3       ??_V@YAXPAX@Z              101328e3 f   MSVCRT:delete_array.obj
 0001:001318f0       __alloca_probe_16          101328f0 f   MSVCRT:alloca16.obj
 0001:00131906       __alloca_probe_8           10132906     MSVCRT:alloca16.obj
 0001:00131920       __allmul                   10132920 f   MSVCRT:llmul.obj
 0001:00131960       __aulldiv                  10132960 f   MSVCRT:ulldiv.obj
 0001:001319d0       __ftoui3                   101329d0 f   MSVCRT:_ftol3_.obj
 0001:001319df       __ftoul3                   101329df f   MSVCRT:_ftol3_.obj
 0001:001319ee       __ftol3                    101329ee f   MSVCRT:_ftol3_.obj
 0001:001319fb       __ftol3_NaN                101329fb f   MSVCRT:_ftol3_.obj
 0001:00131a13       __ftol3_work               10132a13 f   MSVCRT:_ftol3_.obj
 0001:00131a99       __ftol3_common             10132a99 f   MSVCRT:_ftol3_.obj
 0001:00131b5b       __ftol3_arg_error          10132b5b f   MSVCRT:_ftol3_.obj
 0001:00131b6d       __ftol3_except             10132b6d f   MSVCRT:_ftol3_.obj
 0001:00131bb1       __dtoui3                   10132bb1 f   MSVCRT:_ftol3_.obj
 0001:00131bc0       __dtoul3                   10132bc0 f   MSVCRT:_ftol3_.obj
 0001:00131bcf       __dtol3                    10132bcf f   MSVCRT:_ftol3_.obj
 0001:00131bdc       __dtol3_NaN                10132bdc f   MSVCRT:_ftol3_.obj
 0001:00131bf9       __dtol3_work               10132bf9 f   MSVCRT:_ftol3_.obj
 0001:00131ce0       __ultod3                   10132ce0 f   MSVCRT:_ftol3_.obj
 0001:00131d20       __ltod3                    10132d20 f   MSVCRT:_ftol3_.obj
 0001:00131d47       ??$__crt_fast_decode_pointer@PAP6AXXZ@@YAPAP6AXXZQAP6AXXZ@Z 10132d47 f i MSVCRT:utility.obj
 0001:00131d5b       ??$__crt_fast_encode_pointer@PAP6AXXZ@@YAPAP6AXXZQAP6AXXZ@Z 10132d5b f i MSVCRT:utility.obj
 0001:00131d78       ?__crt_rotate_pointer_value@@YAIIH@Z 10132d78 f i MSVCRT:utility.obj
 0001:00131d85       ?configure_argv@__scrt_narrow_argv_policy@@SAHXZ 10132d85 f i MSVCRT:utility.obj
 0001:00131e09       _NtCurrentTeb              10132e09 f i MSVCRT:utility.obj
 0001:00131e10       ___scrt_acquire_startup_lock 10132e10 f   MSVCRT:utility.obj
 0001:00131e45       ___scrt_dllmain_after_initialize_c 10132e45 f   MSVCRT:utility.obj
 0001:00131e70       ___scrt_dllmain_before_initialize_c 10132e70 f   MSVCRT:utility.obj
 0001:00131e7e       ___scrt_dllmain_crt_thread_attach 10132e7e f   MSVCRT:utility.obj
 0001:00131e9d       ___scrt_dllmain_crt_thread_detach 10132e9d f   MSVCRT:utility.obj
 0001:00131eaa       ___scrt_dllmain_exception_filter 10132eaa f   MSVCRT:utility.obj
 0001:00131edd       ___scrt_dllmain_uninitialize_c 10132edd f   MSVCRT:utility.obj
 0001:00131f00       ___scrt_dllmain_uninitialize_critical 10132f00 f   MSVCRT:utility.obj
 0001:00131f0d       ___scrt_initialize_crt     10132f0d f   MSVCRT:utility.obj
 0001:00131f46       ___scrt_initialize_onexit_tables 10132f46 f   MSVCRT:utility.obj
 0001:00131fdd       ___scrt_is_nonwritable_in_current_image 10132fdd f   MSVCRT:utility.obj
 0001:00132067       ___scrt_release_startup_lock 10133067 f   MSVCRT:utility.obj
 0001:00132084       ___scrt_uninitialize_crt   10133084 f   MSVCRT:utility.obj
 0001:001320ac       __onexit                   101330ac f   MSVCRT:utility.obj
 0001:001320e7       _at_quick_exit             101330e7 f   MSVCRT:utility.obj
 0001:00132118       _atexit                    10133118 f   MSVCRT:utility.obj
 0001:00132130       __chkstk                   10133130 f   MSVCRT:chkstk.obj
 0001:00132130       __alloca_probe             10133130 f   MSVCRT:chkstk.obj
 0001:0013215d       ??_U@YAPAXI@Z              1013315d f   MSVCRT:new_array.obj
 0001:0013246e       __CRT_INIT@12              1013346e f   MSVCRT:dll_dllmain.obj
 0001:00132477       __DllMainCRTStartup@12     10133477 f   MSVCRT:dll_dllmain.obj
 0001:0013249a       ___isa_available_init      1013349a f   MSVCRT:_cpu_disp_.obj
 0001:00132634       __get_startup_argv_mode    10133634 f   MSVCRT:argv_mode.obj
 0001:00132638       ___scrt_is_ucrt_dll_in_use 10133638 f   MSVCRT:ucrt_detection.obj
 0001:00132644       ___scrt_fastfail           10133644 f   MSVCRT:utility_desktop.obj
 0001:0013275f       ___scrt_get_show_window_mode 1013375f f   MSVCRT:utility_desktop.obj
 0001:00132792       ___scrt_initialize_winrt   10133792 f   MSVCRT:utility_desktop.obj
 0001:00132795       ___scrt_is_managed_app     10133795 f   MSVCRT:utility_desktop.obj
 0001:001327d9       ___scrt_set_unhandled_exception_filter 101337d9 f   MSVCRT:utility_desktop.obj
 0001:001327e5       ___scrt_unhandled_exception_filter@4 101337e5 f   MSVCRT:utility_desktop.obj
 0001:00132826       __crt_debugger_hook        10133826 f   MSVCRT:utility_desktop.obj
 0001:0013282e       @_guard_check_icall@4      1013382e f i MSVCRT:checkcfg.obj
 0001:00132840       __SEH_prolog4              10133840 f   MSVCRT:_sehprolg4_.obj
 0001:00132886       __SEH_epilog4              10133886 f   MSVCRT:_sehprolg4_.obj
 0001:0013289b       __except_handler4          1013389b f   MSVCRT:_chandler4gs_.obj
 0001:001328be       ??2@YAPAXI@Z               101338be f   MSVCRT:new_scalar.obj
 0001:001328f1       ___security_init_cookie    101338f1 f   MSVCRT:gs_support.obj
 0001:0013298d       _DllMain@12                1013398d f   MSVCRT:dll_dllmain_stub.obj
 0001:001329af       ___local_stdio_scanf_options 101339af f i MSVCRT:default_local_stdio_options.obj
 0001:001329b5       ___scrt_initialize_default_local_stdio_options 101339b5 f   MSVCRT:default_local_stdio_options.obj
 0001:001329d2       ___scrt_get_dyn_tls_init_callback 101339d2 f   MSVCRT:dyn_tls_init.obj
 0001:001329d8       __RTC_Initialize           101339d8 f   MSVCRT:_initsect_.obj
 0001:00132a03       __RTC_Terminate            10133a03 f   MSVCRT:_initsect_.obj
 0001:00132a2e       @_guard_check_icall_nop@4  10133a2e f i MSVCRT:guard_support.obj
 0001:00132a2f       __guard_icall_checks_enforced 10133a2f f i MSVCRT:guard_support.obj
 0001:00132a41       @__security_check_cookie@4 10133a41 f   MSVCRT:_secchk_.obj
 0001:00132a52       ??0bad_alloc@std@@AAE@QBD@Z 10133a52 f i MSVCRT:throw_bad_alloc.obj
 0001:00132a6f       ??0bad_alloc@std@@QAE@ABV01@@Z 10133a6f f i MSVCRT:throw_bad_alloc.obj
 0001:00132a8a       ??0bad_alloc@std@@QAE@XZ   10133a8a f i MSVCRT:throw_bad_alloc.obj
 0001:00132aa2       ??0bad_array_new_length@std@@QAE@ABV01@@Z 10133aa2 f i MSVCRT:throw_bad_alloc.obj
 0001:00132abd       ??0bad_array_new_length@std@@QAE@XZ 10133abd f i MSVCRT:throw_bad_alloc.obj
 0001:00132ad5       ??0exception@std@@QAE@ABV01@@Z 10133ad5 f i MSVCRT:throw_bad_alloc.obj
 0001:00132b01       ??0exception@std@@QAE@QBDH@Z 10133b01 f i MSVCRT:throw_bad_alloc.obj
 0001:00132b1e       ??1bad_alloc@std@@UAE@XZ   10133b1e f i MSVCRT:throw_bad_alloc.obj
 0001:00132b2f       ??1bad_array_new_length@std@@UAE@XZ 10133b2f f i MSVCRT:throw_bad_alloc.obj
 0001:00132b40       ??1exception@std@@UAE@XZ   10133b40 f i MSVCRT:throw_bad_alloc.obj
 0001:00132b51       ??_Ebad_alloc@std@@UAEPAXI@Z 10133b51 f i MSVCRT:throw_bad_alloc.obj
 0001:00132b51       ??_Gbad_alloc@std@@UAEPAXI@Z 10133b51 f i MSVCRT:throw_bad_alloc.obj
 0001:00132b7e       ??_Ebad_array_new_length@std@@UAEPAXI@Z 10133b7e f i MSVCRT:throw_bad_alloc.obj
 0001:00132b7e       ??_Gbad_array_new_length@std@@UAEPAXI@Z 10133b7e f i MSVCRT:throw_bad_alloc.obj
 0001:00132bab       ??_Gexception@std@@UAEPAXI@Z 10133bab f i MSVCRT:throw_bad_alloc.obj
 0001:00132bab       ??_Eexception@std@@UAEPAXI@Z 10133bab f i MSVCRT:throw_bad_alloc.obj
 0001:00132bd8       ?__scrt_throw_std_bad_alloc@@YAXXZ 10133bd8 f   MSVCRT:throw_bad_alloc.obj
 0001:00132bf5       ?__scrt_throw_std_bad_array_new_length@@YAXXZ 10133bf5 f   MSVCRT:throw_bad_alloc.obj
 0001:00132c12       ?what@exception@std@@UBEPBDXZ 10133c12 f i MSVCRT:throw_bad_alloc.obj
 0001:00132c1f       ___raise_securityfailure   10133c1f f   MSVCRT:gs_report.obj
 0001:00132c47       ___report_gsfailure        10133c47 f   MSVCRT:gs_report.obj
 0001:00132d42       ___report_rangecheckfailure 10133d42 f   MSVCRT:gs_report.obj
 0001:00132d4e       ___report_securityfailure  10133d4e f   MSVCRT:gs_report.obj
 0001:00132e1e       ___report_securityfailureEx 10133e1e f   MSVCRT:gs_report.obj
 0001:00132f34       ___WSAFDIsSet@8            10133f34 f   Ws2_32:WS2_32.dll
 0001:00132f3a       _accept@12                 10133f3a f   Ws2_32:WS2_32.dll
 0001:00132f40       _bind@12                   10133f40 f   Ws2_32:WS2_32.dll
 0001:00132f46       _closesocket@4             10133f46 f   Ws2_32:WS2_32.dll
 0001:00132f4c       _connect@12                10133f4c f   Ws2_32:WS2_32.dll
 0001:00132f52       _ioctlsocket@12            10133f52 f   Ws2_32:WS2_32.dll
 0001:00132f58       _getsockopt@20             10133f58 f   Ws2_32:WS2_32.dll
 0001:00132f5e       _htonl@4                   10133f5e f   Ws2_32:WS2_32.dll
 0001:00132f64       _htons@4                   10133f64 f   Ws2_32:WS2_32.dll
 0001:00132f6a       _inet_addr@4               10133f6a f   Ws2_32:WS2_32.dll
 0001:00132f70       _listen@8                  10133f70 f   Ws2_32:WS2_32.dll
 0001:00132f76       _recv@16                   10133f76 f   Ws2_32:WS2_32.dll
 0001:00132f7c       _select@20                 10133f7c f   Ws2_32:WS2_32.dll
 0001:00132f82       _send@16                   10133f82 f   Ws2_32:WS2_32.dll
 0001:00132f88       _setsockopt@20             10133f88 f   Ws2_32:WS2_32.dll
 0001:00132f8e       _socket@12                 10133f8e f   Ws2_32:WS2_32.dll
 0001:00132f94       _gethostbyaddr@12          10133f94 f   Ws2_32:WS2_32.dll
 0001:00132f9a       _gethostbyname@4           10133f9a f   Ws2_32:WS2_32.dll
 0001:00132fa0       _WSAStartup@8              10133fa0 f   Ws2_32:WS2_32.dll
 0001:00132fa6       _WSACleanup@0              10133fa6 f   Ws2_32:WS2_32.dll
 0001:00132fac       _WSAGetLastError@0         10133fac f   Ws2_32:WS2_32.dll
 0001:00132fb2       _WSASendDisconnect@8       10133fb2 f   Ws2_32:WS2_32.dll
 0001:00132fb8       __purecall                 10133fb8 f   vcruntime:VCRUNTIME140.dll
 0001:00132fbe       ___std_type_info_name      10133fbe f   vcruntime:VCRUNTIME140.dll
 0001:00132fc4       _memcpy                    10133fc4 f   vcruntime:VCRUNTIME140.dll
 0001:00132fca       _memset                    10133fca f   vcruntime:VCRUNTIME140.dll
 0001:00132fd0       __except_handler3          10133fd0 f   vcruntime:VCRUNTIME140.dll
 0001:00132fd6       _memmove                   10133fd6 f   vcruntime:VCRUNTIME140.dll
 0001:00132fdc       _strchr                    10133fdc f   vcruntime:VCRUNTIME140.dll
 0001:00132fe2       _strstr                    10133fe2 f   vcruntime:VCRUNTIME140.dll
 0001:00132fe8       ___std_type_info_destroy_list 10133fe8 f   vcruntime:VCRUNTIME140.dll
 0001:00132fee       __except_handler4_common   10133fee f   vcruntime:VCRUNTIME140.dll
 0001:00132ff4       ___std_exception_copy      10133ff4 f   vcruntime:VCRUNTIME140.dll
 0001:00132ffa       ___std_exception_destroy   10133ffa f   vcruntime:VCRUNTIME140.dll
 0001:00133000       __CxxThrowException@8      10134000 f   vcruntime:VCRUNTIME140.dll
 0001:00133006       __clearfp                  10134006 f   ucrt:api-ms-win-crt-runtime-l1-1-0.dll
 0001:0013300c       __controlfp_s              1013400c f   ucrt:api-ms-win-crt-runtime-l1-1-0.dll
 0001:00133012       ___control87_2             10134012 f   ucrt:api-ms-win-crt-runtime-l1-1-0.dll
 0001:00133018       _puts                      10134018 f   ucrt:api-ms-win-crt-stdio-l1-1-0.dll
 0001:0013301e       ___stdio_common_vsprintf_s 1013401e f   ucrt:api-ms-win-crt-stdio-l1-1-0.dll
 0001:00133024       _abort                     10134024 f   ucrt:api-ms-win-crt-runtime-l1-1-0.dll
 0001:0013302a       ___stdio_common_vsprintf   1013402a f   ucrt:api-ms-win-crt-stdio-l1-1-0.dll
 0001:00133030       _strncmp                   10134030 f   ucrt:api-ms-win-crt-string-l1-1-0.dll
 0001:00133036       _tolower                   10134036 f   ucrt:api-ms-win-crt-string-l1-1-0.dll
 0001:0013303c       ___libm_sse2_asinf         1013403c f   ucrt:api-ms-win-crt-math-l1-1-0.dll
 0001:00133042       ___libm_sse2_cosf          10134042 f   ucrt:api-ms-win-crt-math-l1-1-0.dll
 0001:00133048       ___libm_sse2_sinf          10134048 f   ucrt:api-ms-win-crt-math-l1-1-0.dll
 0001:0013304e       __fpclass                  1013404e f   ucrt:api-ms-win-crt-math-l1-1-0.dll
 0001:00133054       _strnlen                   10134054 f   ucrt:api-ms-win-crt-string-l1-1-0.dll
 0001:0013305a       ___acrt_iob_func           1013405a f   ucrt:api-ms-win-crt-stdio-l1-1-0.dll
 0001:00133060       ___stdio_common_vfprintf   10134060 f   ucrt:api-ms-win-crt-stdio-l1-1-0.dll
 0001:00133066       _ceil                      10134066 f   ucrt:api-ms-win-crt-math-l1-1-0.dll
 0001:0013306c       _free                      1013406c f   ucrt:api-ms-win-crt-heap-l1-1-0.dll
 0001:00133072       __except1                  10134072 f   ucrt:api-ms-win-crt-math-l1-1-0.dll
 0001:00133078       __seh_filter_dll           10134078 f   ucrt:api-ms-win-crt-runtime-l1-1-0.dll
 0001:0013307e       __configure_narrow_argv    1013407e f   ucrt:api-ms-win-crt-runtime-l1-1-0.dll
 0001:00133084       __initialize_narrow_environment 10134084 f   ucrt:api-ms-win-crt-runtime-l1-1-0.dll
 0001:0013308a       __initialize_onexit_table  1013408a f   ucrt:api-ms-win-crt-runtime-l1-1-0.dll
 0001:00133090       __register_onexit_function 10134090 f   ucrt:api-ms-win-crt-runtime-l1-1-0.dll
 0001:00133096       __execute_onexit_table     10134096 f   ucrt:api-ms-win-crt-runtime-l1-1-0.dll
 0001:0013309c       __crt_atexit               1013409c f   ucrt:api-ms-win-crt-runtime-l1-1-0.dll
 0001:001330a2       __crt_at_quick_exit        101340a2 f   ucrt:api-ms-win-crt-runtime-l1-1-0.dll
 0001:001330a8       __cexit                    101340a8 f   ucrt:api-ms-win-crt-runtime-l1-1-0.dll
 0001:001330ae       __initterm                 101340ae f   ucrt:api-ms-win-crt-runtime-l1-1-0.dll
 0001:001330b4       __initterm_e               101340b4 f   ucrt:api-ms-win-crt-runtime-l1-1-0.dll
 0001:001330ba       _terminate                 101340ba f   ucrt:api-ms-win-crt-runtime-l1-1-0.dll
 0001:001330c0       __callnewh                 101340c0 f   ucrt:api-ms-win-crt-heap-l1-1-0.dll
 0001:001330c6       _malloc                    101340c6 f   ucrt:api-ms-win-crt-heap-l1-1-0.dll
 0001:001330cc       _IsProcessorFeaturePresent@4 101340cc f   kernel32:KERNEL32.dll
 0001:001330d2       _IsDebuggerPresent@0       101340d2 f   kernel32:KERNEL32.dll
 0001:001330d8       _UnhandledExceptionFilter@4 101340d8 f   kernel32:KERNEL32.dll
 0001:001330de       _SetUnhandledExceptionFilter@4 101340de f   kernel32:KERNEL32.dll
 0001:001330e4       _GetStartupInfoW@4         101340e4 f   kernel32:KERNEL32.dll
 0001:001330ea       _GetModuleHandleW@4        101340ea f   kernel32:KERNEL32.dll
 0001:001330f0       _GetCurrentProcessId@0     101340f0 f   kernel32:KERNEL32.dll
 0001:001330f6       _GetSystemTimeAsFileTime@4 101340f6 f   kernel32:KERNEL32.dll
 0001:001330fc       _DisableThreadLibraryCalls@4 101340fc f   kernel32:KERNEL32.dll
 0001:00133102       _GetCurrentProcess@0       10134102 f   kernel32:KERNEL32.dll
 0001:00133108       _TerminateProcess@8        10134108 f   kernel32:KERNEL32.dll
 0001:0013310e       ___acrt_initialize         1013410e f   MSVCRT:ucrt_stubs.obj
 0001:0013310e       ___scrt_stub_for_acrt_initialize 1013410e f   MSVCRT:ucrt_stubs.obj
 0001:0013310e       ___vcrt_initialize         1013410e f   MSVCRT:ucrt_stubs.obj
 0001:00133111       ___vcrt_thread_attach      10134111 f   MSVCRT:ucrt_stubs.obj
 0001:00133111       ___acrt_thread_attach      10134111 f   MSVCRT:ucrt_stubs.obj
 0001:00133111       ___scrt_stub_for_acrt_thread_attach 10134111 f   MSVCRT:ucrt_stubs.obj
 0001:00133114       ___scrt_stub_for_acrt_thread_detach 10134114 f   MSVCRT:ucrt_stubs.obj
 0001:00133114       ___vcrt_thread_detach      10134114 f   MSVCRT:ucrt_stubs.obj
 0001:00133114       ___acrt_thread_detach      10134114 f   MSVCRT:ucrt_stubs.obj
 0001:00133117       ___scrt_stub_for_acrt_uninitialize 10134117 f   MSVCRT:ucrt_stubs.obj
 0001:00133117       ___acrt_uninitialize       10134117 f   MSVCRT:ucrt_stubs.obj
 0001:00133117       ___vcrt_uninitialize       10134117 f   MSVCRT:ucrt_stubs.obj
 0001:0013311a       ___vcrt_uninitialize_critical 1013411a f   MSVCRT:ucrt_stubs.obj
 0001:0013311a       ___scrt_stub_for_acrt_uninitialize_critical 1013411a f   MSVCRT:ucrt_stubs.obj
 0001:0013311a       ___acrt_uninitialize_critical 1013411a f   MSVCRT:ucrt_stubs.obj
 0001:0013311d       __is_c_termination_complete 1013411d f   MSVCRT:ucrt_stubs.obj
 0001:0013311d       ___scrt_stub_for_is_c_termination_complete 1013411d f   MSVCRT:ucrt_stubs.obj
 0002:00000000       __imp__CloseHandle@4       10135000     kernel32:KERNEL32.dll
 0002:00000004       __imp__MapViewOfFile@20    10135004     kernel32:KERNEL32.dll
 0002:00000008       __imp__UnmapViewOfFile@4   10135008     kernel32:KERNEL32.dll
 0002:0000000c       __imp__CreateFileMappingA@24 1013500c     kernel32:KERNEL32.dll
 0002:00000010       __imp__OpenFileMappingA@12 10135010     kernel32:KERNEL32.dll
 0002:00000014       __imp__FreeLibrary@4       10135014     kernel32:KERNEL32.dll
 0002:00000018       __imp__GetProcAddress@8    10135018     kernel32:KERNEL32.dll
 0002:0000001c       __imp__LoadLibraryA@4      1013501c     kernel32:KERNEL32.dll
 0002:00000020       __imp__InitializeCriticalSection@4 10135020     kernel32:KERNEL32.dll
 0002:00000024       __imp__EnterCriticalSection@4 10135024     kernel32:KERNEL32.dll
 0002:00000028       __imp__LeaveCriticalSection@4 10135028     kernel32:KERNEL32.dll
 0002:0000002c       __imp__TryEnterCriticalSection@4 1013502c     kernel32:KERNEL32.dll
 0002:00000030       __imp__DeleteCriticalSection@4 10135030     kernel32:KERNEL32.dll
 0002:00000034       __imp__GetCurrentThread@0  10135034     kernel32:KERNEL32.dll
 0002:00000038       __imp__GetCurrentThreadId@0 10135038     kernel32:KERNEL32.dll
 0002:0000003c       __imp__OutputDebugStringA@4 1013503c     kernel32:KERNEL32.dll
 0002:00000040       __imp__InitializeSListHead@4 10135040     kernel32:KERNEL32.dll
 0002:00000044       __imp__InterlockedPopEntrySList@4 10135044     kernel32:KERNEL32.dll
 0002:00000048       __imp__InterlockedPushEntrySList@8 10135048     kernel32:KERNEL32.dll
 0002:0000004c       __imp__InterlockedFlushSList@4 1013504c     kernel32:KERNEL32.dll
 0002:00000050       __imp__SetEvent@4          10135050     kernel32:KERNEL32.dll
 0002:00000054       __imp__ResetEvent@4        10135054     kernel32:KERNEL32.dll
 0002:00000058       __imp__WaitForSingleObject@8 10135058     kernel32:KERNEL32.dll
 0002:0000005c       __imp__CreateEventA@16     1013505c     kernel32:KERNEL32.dll
 0002:00000060       __imp__RaiseException@16   10135060     kernel32:KERNEL32.dll
 0002:00000064       __imp__GetLastError@0      10135064     kernel32:KERNEL32.dll
 0002:00000068       __imp__Sleep@4             10135068     kernel32:KERNEL32.dll
 0002:0000006c       __imp__SwitchToThread@0    1013506c     kernel32:KERNEL32.dll
 0002:00000070       __imp__CreateThread@24     10135070     kernel32:KERNEL32.dll
 0002:00000074       __imp__SetThreadPriority@8 10135074     kernel32:KERNEL32.dll
 0002:00000078       __imp__GetThreadPriority@4 10135078     kernel32:KERNEL32.dll
 0002:0000007c       __imp__ExitThread@4        1013507c     kernel32:KERNEL32.dll
 0002:00000080       __imp__TerminateThread@8   10135080     kernel32:KERNEL32.dll
 0002:00000084       __imp__ResumeThread@4      10135084     kernel32:KERNEL32.dll
 0002:00000088       __imp__TlsAlloc@0          10135088     kernel32:KERNEL32.dll
 0002:0000008c       __imp__TlsGetValue@4       1013508c     kernel32:KERNEL32.dll
 0002:00000090       __imp__TlsSetValue@8       10135090     kernel32:KERNEL32.dll
 0002:00000094       __imp__TlsFree@4           10135094     kernel32:KERNEL32.dll
 0002:00000098       __imp__GetModuleHandleA@4  10135098     kernel32:KERNEL32.dll
 0002:0000009c       __imp__SetThreadAffinityMask@8 1013509c     kernel32:KERNEL32.dll
 0002:000000a0       __imp__QueryPerformanceCounter@4 101350a0     kernel32:KERNEL32.dll
 0002:000000a4       __imp__QueryPerformanceFrequency@4 101350a4     kernel32:KERNEL32.dll
 0002:000000a8       __imp__GetCurrentProcess@0 101350a8     kernel32:KERNEL32.dll
 0002:000000ac       __imp__DisableThreadLibraryCalls@4 101350ac     kernel32:KERNEL32.dll
 0002:000000b0       __imp__GetSystemTimeAsFileTime@4 101350b0     kernel32:KERNEL32.dll
 0002:000000b4       __imp__GetCurrentProcessId@0 101350b4     kernel32:KERNEL32.dll
 0002:000000b8       __imp__GetModuleHandleW@4  101350b8     kernel32:KERNEL32.dll
 0002:000000bc       __imp__GetStartupInfoW@4   101350bc     kernel32:KERNEL32.dll
 0002:000000c0       __imp__SetUnhandledExceptionFilter@4 101350c0     kernel32:KERNEL32.dll
 0002:000000c4       __imp__UnhandledExceptionFilter@4 101350c4     kernel32:KERNEL32.dll
 0002:000000c8       __imp__IsDebuggerPresent@0 101350c8     kernel32:KERNEL32.dll
 0002:000000cc       __imp__IsProcessorFeaturePresent@4 101350cc     kernel32:KERNEL32.dll
 0002:000000d0       __imp__TerminateProcess@8  101350d0     kernel32:KERNEL32.dll
 0002:000000d4       \177KERNEL32_NULL_THUNK_DATA 101350d4     kernel32:KERNEL32.dll
 0002:000000d8       __imp____std_type_info_name 101350d8     vcruntime:VCRUNTIME140.dll
 0002:000000dc       __imp___CxxThrowException@8 101350dc     vcruntime:VCRUNTIME140.dll
 0002:000000e0       __imp____std_exception_destroy 101350e0     vcruntime:VCRUNTIME140.dll
 0002:000000e4       __imp____std_exception_copy 101350e4     vcruntime:VCRUNTIME140.dll
 0002:000000e8       __imp___except_handler4_common 101350e8     vcruntime:VCRUNTIME140.dll
 0002:000000ec       __imp____std_type_info_destroy_list 101350ec     vcruntime:VCRUNTIME140.dll
 0002:000000f0       __imp__strstr              101350f0     vcruntime:VCRUNTIME140.dll
 0002:000000f4       __imp__strchr              101350f4     vcruntime:VCRUNTIME140.dll
 0002:000000f8       __imp__memmove             101350f8     vcruntime:VCRUNTIME140.dll
 0002:000000fc       __imp___except_handler3    101350fc     vcruntime:VCRUNTIME140.dll
 0002:00000100       __imp__memset              10135100     vcruntime:VCRUNTIME140.dll
 0002:00000104       __imp__memcpy              10135104     vcruntime:VCRUNTIME140.dll
 0002:00000108       __imp___purecall           10135108     vcruntime:VCRUNTIME140.dll
 0002:0000010c       \177VCRUNTIME140_NULL_THUNK_DATA 1013510c     vcruntime:VCRUNTIME140.dll
 0002:00000110       __imp__listen@8            10135110     Ws2_32:WS2_32.dll
 0002:00000114       __imp__WSAGetLastError@0   10135114     Ws2_32:WS2_32.dll
 0002:00000118       __imp__WSACleanup@0        10135118     Ws2_32:WS2_32.dll
 0002:0000011c       __imp__WSAStartup@8        1013511c     Ws2_32:WS2_32.dll
 0002:00000120       __imp__gethostbyname@4     10135120     Ws2_32:WS2_32.dll
 0002:00000124       __imp__gethostbyaddr@12    10135124     Ws2_32:WS2_32.dll
 0002:00000128       __imp__socket@12           10135128     Ws2_32:WS2_32.dll
 0002:0000012c       __imp__setsockopt@20       1013512c     Ws2_32:WS2_32.dll
 0002:00000130       __imp__send@16             10135130     Ws2_32:WS2_32.dll
 0002:00000134       __imp__select@20           10135134     Ws2_32:WS2_32.dll
 0002:00000138       __imp__recv@16             10135138     Ws2_32:WS2_32.dll
 0002:0000013c       __imp____WSAFDIsSet@8      1013513c     Ws2_32:WS2_32.dll
 0002:00000140       __imp__accept@12           10135140     Ws2_32:WS2_32.dll
 0002:00000144       __imp__bind@12             10135144     Ws2_32:WS2_32.dll
 0002:00000148       __imp__closesocket@4       10135148     Ws2_32:WS2_32.dll
 0002:0000014c       __imp__connect@12          1013514c     Ws2_32:WS2_32.dll
 0002:00000150       __imp__ioctlsocket@12      10135150     Ws2_32:WS2_32.dll
 0002:00000154       __imp__getsockopt@20       10135154     Ws2_32:WS2_32.dll
 0002:00000158       __imp__htonl@4             10135158     Ws2_32:WS2_32.dll
 0002:0000015c       __imp__htons@4             1013515c     Ws2_32:WS2_32.dll
 0002:00000160       __imp__inet_addr@4         10135160     Ws2_32:WS2_32.dll
 0002:00000164       __imp__WSASendDisconnect@8 10135164     Ws2_32:WS2_32.dll
 0002:00000168       \177WS2_32_NULL_THUNK_DATA 10135168     Ws2_32:WS2_32.dll
 0002:0000016c       __imp___callnewh           1013516c     ucrt:api-ms-win-crt-heap-l1-1-0.dll
 0002:00000170       __imp__free                10135170     ucrt:api-ms-win-crt-heap-l1-1-0.dll
 0002:00000174       __imp__malloc              10135174     ucrt:api-ms-win-crt-heap-l1-1-0.dll
 0002:00000178       \177api-ms-win-crt-heap-l1-1-0_NULL_THUNK_DATA 10135178     ucrt:api-ms-win-crt-heap-l1-1-0.dll
 0002:0000017c       __imp__ceil                1013517c     ucrt:api-ms-win-crt-math-l1-1-0.dll
 0002:00000180       __imp___fpclass            10135180     ucrt:api-ms-win-crt-math-l1-1-0.dll
 0002:00000184       __imp___except1            10135184     ucrt:api-ms-win-crt-math-l1-1-0.dll
 0002:00000188       __imp____libm_sse2_asinf   10135188     ucrt:api-ms-win-crt-math-l1-1-0.dll
 0002:0000018c       __imp____libm_sse2_cosf    1013518c     ucrt:api-ms-win-crt-math-l1-1-0.dll
 0002:00000190       __imp____libm_sse2_sinf    10135190     ucrt:api-ms-win-crt-math-l1-1-0.dll
 0002:00000194       \177api-ms-win-crt-math-l1-1-0_NULL_THUNK_DATA 10135194     ucrt:api-ms-win-crt-math-l1-1-0.dll
 0002:00000198       __imp___initialize_onexit_table 10135198     ucrt:api-ms-win-crt-runtime-l1-1-0.dll
 0002:0000019c       __imp___register_onexit_function 1013519c     ucrt:api-ms-win-crt-runtime-l1-1-0.dll
 0002:000001a0       __imp___execute_onexit_table 101351a0     ucrt:api-ms-win-crt-runtime-l1-1-0.dll
 0002:000001a4       __imp___crt_atexit         101351a4     ucrt:api-ms-win-crt-runtime-l1-1-0.dll
 0002:000001a8       __imp___crt_at_quick_exit  101351a8     ucrt:api-ms-win-crt-runtime-l1-1-0.dll
 0002:000001ac       __imp___cexit              101351ac     ucrt:api-ms-win-crt-runtime-l1-1-0.dll
 0002:000001b0       __imp___initterm           101351b0     ucrt:api-ms-win-crt-runtime-l1-1-0.dll
 0002:000001b4       __imp___initterm_e         101351b4     ucrt:api-ms-win-crt-runtime-l1-1-0.dll
 0002:000001b8       __imp___initialize_narrow_environment 101351b8     ucrt:api-ms-win-crt-runtime-l1-1-0.dll
 0002:000001bc       __imp___configure_narrow_argv 101351bc     ucrt:api-ms-win-crt-runtime-l1-1-0.dll
 0002:000001c0       __imp___seh_filter_dll     101351c0     ucrt:api-ms-win-crt-runtime-l1-1-0.dll
 0002:000001c4       __imp___clearfp            101351c4     ucrt:api-ms-win-crt-runtime-l1-1-0.dll
 0002:000001c8       __imp__terminate           101351c8     ucrt:api-ms-win-crt-runtime-l1-1-0.dll
 0002:000001cc       __imp___controlfp_s        101351cc     ucrt:api-ms-win-crt-runtime-l1-1-0.dll
 0002:000001d0       __imp____control87_2       101351d0     ucrt:api-ms-win-crt-runtime-l1-1-0.dll
 0002:000001d4       __imp__abort               101351d4     ucrt:api-ms-win-crt-runtime-l1-1-0.dll
 0002:000001d8       \177api-ms-win-crt-runtime-l1-1-0_NULL_THUNK_DATA 101351d8     ucrt:api-ms-win-crt-runtime-l1-1-0.dll
 0002:000001dc       __imp__puts                101351dc     ucrt:api-ms-win-crt-stdio-l1-1-0.dll
 0002:000001e0       __imp____stdio_common_vfprintf 101351e0     ucrt:api-ms-win-crt-stdio-l1-1-0.dll
 0002:000001e4       __imp____stdio_common_vsprintf 101351e4     ucrt:api-ms-win-crt-stdio-l1-1-0.dll
 0002:000001e8       __imp____acrt_iob_func     101351e8     ucrt:api-ms-win-crt-stdio-l1-1-0.dll
 0002:000001ec       __imp____stdio_common_vsprintf_s 101351ec     ucrt:api-ms-win-crt-stdio-l1-1-0.dll
 0002:000001f0       \177api-ms-win-crt-stdio-l1-1-0_NULL_THUNK_DATA 101351f0     ucrt:api-ms-win-crt-stdio-l1-1-0.dll
 0002:000001f4       __imp__strncmp             101351f4     ucrt:api-ms-win-crt-string-l1-1-0.dll
 0002:000001f8       __imp__strnlen             101351f8     ucrt:api-ms-win-crt-string-l1-1-0.dll
 0002:000001fc       __imp__tolower             101351fc     ucrt:api-ms-win-crt-string-l1-1-0.dll
 0002:00000200       \177api-ms-win-crt-string-l1-1-0_NULL_THUNK_DATA 10135200     ucrt:api-ms-win-crt-string-l1-1-0.dll
 0002:00000204       ___guard_check_icall_fptr  10135204     MSVCRT:guard_support.obj
 0002:00000208       ___xc_a                    10135208     MSVCRT:initializers.obj
 0002:00000bd8       ___xc_z                    10135bd8     MSVCRT:initializers.obj
 0002:00000bdc       ___xi_a                    10135bdc     MSVCRT:initializers.obj
 0002:00000be0       ___xi_z                    10135be0     MSVCRT:initializers.obj
 0002:00000be4       ___xp_a                    10135be4     MSVCRT:initializers.obj
 0002:00000be8       ___xp_z                    10135be8     MSVCRT:initializers.obj
 0002:00000bec       ___xt_a                    10135bec     MSVCRT:initializers.obj
 0002:00000bf0       ___xt_z                    10135bf0     MSVCRT:initializers.obj
 0002:00000c00       ?MAX_LISTENER_COUNT@ErrorHandler@shdfnd@physx@@2IB 10135c00     PsWindowsMemoryMappedFile.obj
 0002:00000c04       ??_7PxFoundation@physx@@6B@ 10135c04     PsWindowsMemoryMappedFile.obj
 0002:00000c28       ??_C@_0DL@HJOKOCAB@?4?4?2?4?4?2foundation?2src?2windows?2PsW@ 10135c28     PsWindowsMemoryMappedFile.obj
 0002:00000c64       ??_C@_0BB@CPDDPFKD@GetUpdatedModule?$AA@ 10135c64     PsWindowsModuleUpdateLoader.obj
 0002:00000c7c       ??_C@_0DA@FAMEPBEB@?4?4?2?4?4?2foundation?2src?2windows?2PsW@ 10135c7c     PsWindowsMutex.obj
 0002:00000cb0       ??_C@_0FC@OEDJAIHG@c?3?2cpsc?2cpsc585?2physx3_3_4?2physx@ 10135cb0     PsWindowsMutex.obj
 0002:00000d04       ??_C@_0BM@OIFKLHDN@?$DMallocation?5names?5disabled?$DO?$AA@ 10135d04     PsWindowsMutex.obj
 0002:00000d20       ??_C@_0DF@KNPIDOCL@?4?4?2?4?4?2foundation?2src?2windows?2PsW@ 10135d20     PsWindowsPAEventSrc.obj
 0002:00000d58       ??_C@_0EM@NPLJPKIB@The?5AGPerfMON?5DLL?5does?5not?5conta@ 10135d58     PsWindowsPAEventSrc.obj
 0002:00000da4       ??_C@_09KKJFIDEP@NTDLL?4DLL?$AA@ 10135da4     PsWindowsPAEventSrc.obj
 0002:00000db0       ??_C@_0BJ@HKKELGGC@NtQueryInformationThread?$AA@ 10135db0     PsWindowsPAEventSrc.obj
 0002:00000dcc       ??_C@_0BC@PJLEJAOL@AgPerfMon_x86?4dll?$AA@ 10135dcc     PsWindowsPAEventSrc.obj
 0002:00000de0       ??_C@_0BL@DDAKOMJB@AgPmCreateSourceConnection?$AA@ 10135de0     PsWindowsPAEventSrc.obj
 0002:00000dfc       ??_C@_0BM@OHHNIHIM@AgPmDestroySourceConnection?$AA@ 10135dfc     PsWindowsPAEventSrc.obj
 0002:00000e18       ??_C@_0BC@DFOHHJHM@AgPmRegisterEvent?$AA@ 10135e18     PsWindowsPAEventSrc.obj
 0002:00000e2c       ??_C@_0BA@GDHBLAIH@AgPmSubmitEvent?$AA@ 10135e2c     PsWindowsPAEventSrc.obj
 0002:00000e3c       ??_C@_0BN@BFGBHLJA@AgPmSubmitEventWithTimestamp?$AA@ 10135e3c     PsWindowsPAEventSrc.obj
 0002:00000e5c       ??_C@_0CD@CADILMFD@AgPmSubmitEventWithTimestampUnsa@ 10135e5c     PsWindowsPAEventSrc.obj
 0002:00000e80       ??_C@_0BE@GFJBJNMP@AgPmSubmitEventLock?$AA@ 10135e80     PsWindowsPAEventSrc.obj
 0002:00000e94       ??_C@_0BG@DKGMIMMC@AgPmSubmitEventUnlock?$AA@ 10135e94     PsWindowsPAEventSrc.obj
 0002:00000eac       ??_C@_0BB@BBBCLILL@AgPmEventEnabled?$AA@ 10135eac     PsWindowsPAEventSrc.obj
 0002:00000ec0       ??_C@_0BI@OBLMKHMO@AgPmEventLoggingEnabled?$AA@ 10135ec0     PsWindowsPAEventSrc.obj
 0002:00000ed8       ??_C@_0HF@GCOFMDCL@The?5AGPerfMON?5DLL?5does?5not?5conta@ 10135ed8     PsWindowsPAEventSrc.obj
 0002:00000f50       ??_C@_0EG@BIIDHCKE@The?5AGPerfMON?5DLL?5was?5not?5able?5t@ 10135f50     PsWindowsPAEventSrc.obj
 0002:00000f98       ??_C@_01EEMJAFIK@?6?$AA@   10135f98     PsWindowsPrintString.obj
 0002:00000fa0       ?DEFAULT_BUFFER_SIZE@Socket@shdfnd@physx@@2IB 10135fa0     PsWindowsSocket.obj
 0002:00000fa4       ??_7Socket@shdfnd@physx@@6B@ 10135fa4     PsWindowsSocket.obj
 0002:00000fa8       ??_7Runnable@shdfnd@physx@@6B@ 10135fa8     PsWindowsSocket.obj
 0002:00000fb0       ??_7?$ThreadT@V?$ReflectionAllocator@VThreadImpl@shdfnd@physx@@@shdfnd@physx@@@shdfnd@physx@@6B@ 10135fb0     PsWindowsSocket.obj
 0002:00000fb8       ??_7SocketImpl@shdfnd@physx@@6B@ 10135fb8     PsWindowsSocket.obj
 0002:00000fc8       ??_7BufferedSocketImpl@shdfnd@physx@@6B@ 10135fc8     PsWindowsSocket.obj
 0002:00000fd8       ??_C@_0DB@HGEALNHB@?4?4?2?4?4?2foundation?2src?2windows?2PsW@ 10135fd8     PsWindowsSocket.obj
 0002:00001010       ??_C@_0FD@IOHGFNMI@C?3?2CPSC?2CPSC585?2PhysX3_3_4?2PhysX@ 10136010     PsWindowsSocket.obj
 0002:00001064       ?waitForever@SyncImpl@shdfnd@physx@@2IB 10136064     PsWindowsSync.obj
 0002:00001070       ??_C@_0BP@KHGALBC@GetLogicalProcessorInformation?$AA@ 10136070     PsWindowsThread.obj
 0002:00001090       ??_C@_08PNLNEKOB@kernel32?$AA@ 10136090     PsWindowsThread.obj
 0002:0000109c       ??_C@_0DN@IFPBEEGJ@Error?5querying?5buffer?5size?5for?5n@ 1013609c     PsWindowsThread.obj
 0002:000010dc       ??_C@_0DB@OEAPNBAD@?4?4?2?4?4?2foundation?2src?2windows?2PsW@ 101360dc     PsWindowsThread.obj
 0002:00001110       ??_C@_0CN@ELPPFLE@Error?5querying?5number?5of?5physica@ 10136110     PsWindowsThread.obj
 0002:00001140       ?sNumTensOfNanoSecondsInASecond@Time@shdfnd@physx@@2_KB 10136140     PsWindowsTime.obj
 0002:00001148       __real@3ff0000000000000    10136148     PsWindowsTime.obj
 0002:00001150       ??_C@_00CNPNBAHC@?$AA@     10136150     PsAllocator.obj
 0002:00001154       ??_7DefaultAssertHandler@?A0x06c62945@@6B@ 10136154     PsAssert.obj
 0002:0000115c       ??_C@_0BP@EFIHDDDE@?$CFs?$CI?$CFd?$CJ?5?3?5Assertion?5failed?3?5?$CFs?6?$AA@ 1013615c     PsAssert.obj
 0002:0000117c       ??_7PxAssertHandler@physx@@6B@ 1013617c     PsAssert.obj
 0002:00001184       ??_7PxIPC@shdfnd@physx@@6B@ 10136184     PsFastIPC.obj
 0002:000011a8       ??_C@_0FH@HGDBNBAM@C?3?2CPSC?2CPSC585?2PhysX3_3_4?2PhysX@ 101361a8     PsFastIPC.obj
 0002:00001200       ??_7FastIPC@shdfnd@physx@@6B@ 10136200     PsFastIPC.obj
 0002:00001224       ??_C@_0CD@BHELJLFF@?4?4?2?4?4?2foundation?2src?2PsFastIPC?4c@ 10136224     PsFastIPC.obj
 0002:00001284       ??_C@_04GJOGLFEJ@?$CGlt?$DL?$AA@ 10136284     PsFastXml.obj
 0002:0000128c       ??_C@_05JKJFEODM@?$CGamp?$DL?$AA@ 1013628c     PsFastXml.obj
 0002:00001294       ??_C@_04LOOHDCEI@?$CGgt?$DL?$AA@ 10136294     PsFastXml.obj
 0002:0000129c       ??_C@_06DDLNFFBN@?$CGquot?$DL?$AA@ 1013629c     PsFastXml.obj
 0002:000012a4       ??_C@_06PNMEMOHD@?$CGapos?$DL?$AA@ 101362a4     PsFastXml.obj
 0002:000012ac       ??_7FastXml@shdfnd@physx@@6B@ 101362ac     PsFastXml.obj
 0002:000012bc       ??_7MyFastXml@?A0xd3efc24c@@6B@ 101362bc     PsFastXml.obj
 0002:000012cc       ??_C@_03PJHHNEEI@xml?$AA@  101362cc     PsFastXml.obj
 0002:000012d0       ??_C@_0CB@OICNKAFC@User?5aborted?5the?5parsing?5process@ 101362d0     PsFastXml.obj
 0002:000012f4       ??_C@_03PNLDJJMO@?9?9?$DO?$AA@ 101362f4     PsFastXml.obj
 0002:000012f8       ??_C@_0DG@FBEFPMIN@Data?5portion?5of?5an?5element?5wasn?8@ 101362f8     PsFastXml.obj
 0002:00001330       ??_C@_0CD@DGNEBNCH@Open?5and?5closing?5tags?5do?5not?5mat@ 10136330     PsFastXml.obj
 0002:00001354       ??_C@_07JGKBCNAA@DOCTYPE?$AA@ 10136354     PsFastXml.obj
 0002:0000135c       ??_C@_0BA@NOIEEIDL@Invalid?5DOCTYPE?$AA@ 1013635c     PsFastXml.obj
 0002:0000136c       ??_C@_0CA@DFOKEHEE@encountered?5too?5many?5attributes?$AA@ 1013636c     PsFastXml.obj
 0002:0000138c       ??_C@_0CL@IMALDHHH@Failed?5to?5find?5closing?5quote?5for@ 1013638c     PsFastXml.obj
 0002:000013b8       ??_C@_0BE@OMJLDAGM@Invalid?5file?5format?$AA@ 101363b8     PsFastXml.obj
 0002:000013cc       ??_7PxAllocatorCallback@physx@@6B@ 101363cc     PsFoundation.obj
 0002:000013d8       ??_C@_0BA@DLCJDKDM@NonTrackedAlloc?$AA@ 101363d8     PsFoundation.obj
 0002:000013e8       ??_7PxBroadcastingAllocator@physx@@6B@ 101363e8     PsFoundation.obj
 0002:000013fc       ??_7AlignCheckAllocator@Foundation@shdfnd@physx@@6B@ 101363fc     PsFoundation.obj
 0002:00001410       ??_7Foundation@shdfnd@physx@@6B@ 10136410     PsFoundation.obj
 0002:00001438       ??_C@_0EE@HLMNBHHJ@Wrong?5version?3?5foundation?5versio@ 10136438     PsFoundation.obj
 0002:0000147c       ??_C@_0CG@BMKONEAC@?4?4?2?4?4?2foundation?2src?2PsFoundatio@ 1013647c     PsFoundation.obj
 0002:000014a4       ??_C@_0L@LLOEHGOK@Foundation?$AA@ 101364a4     PsFoundation.obj
 0002:000014b0       ??_C@_0DA@CNIIACOI@Memory?5allocation?5for?5foundation@ 101364b0     PsFoundation.obj
 0002:000014e0       ??_C@_0FA@BDOLCCKE@Foundation?5object?5exists?5already@ 101364e0     PsFoundation.obj
 0002:00001530       ??_C@_0GL@CPBKAIEN@Foundation?5destruction?5failed?5du@ 10136530     PsFoundation.obj
 0002:0000159c       ??_C@_0CL@BGGAJOAL@Foundation?3?5Invalid?5registration@ 1013659c     PsFoundation.obj
 0002:000015c8       ??_C@_0CN@HIKEAJOE@Foundation?3?5Invalid?5deregistrati@ 101365c8     PsFoundation.obj
 0002:000015f8       ??_C@_0BO@FEGALDIG@User?5allocator?5returned?5NULL?4?$AA@ 101365f8     PsFoundation.obj
 0002:00001618       ??_C@_0CP@BEECKDMG@Allocations?5for?5PhysX?5must?5be?516@ 10136618     PsFoundation.obj
 0002:00001648       ??_C@_0FK@PBOKIFG@c?3?2cpsc?2cpsc585?2physx3_3_4?2physx@ 10136648     PsFoundation.obj
 0002:000016a8       ??_C@_0FC@ONFEABAP@c?3?2cpsc?2cpsc585?2physx3_3_4?2physx@ 101366a8     PsFoundation.obj
 0002:00001700       __xmm@41f00000000000000000000000000000 10136700     PsFoundation.obj
 0002:00001710       __real@00000000            10136710     PsMathUtils.obj
 0002:00001714       __real@24e69595            10136714     PsMathUtils.obj
 0002:00001718       __real@3f000000            10136718     PsMathUtils.obj
 0002:0000171c       __real@3f7ff972            1013671c     PsMathUtils.obj
 0002:00001720       __real@3f800000            10136720     PsMathUtils.obj
 0002:00001724       __real@40490fdb            10136724     PsMathUtils.obj
 0002:00001728       __real@bf7ff972            10136728     PsMathUtils.obj
 0002:0000172c       __real@bf800000            1013672c     PsMathUtils.obj
 0002:00001730       __xmm@7fffffff7fffffff7fffffff7fffffff 10136730     PsMathUtils.obj
 0002:00001740       __xmm@80000000800000008000000080000000 10136740     PsMathUtils.obj
 0002:00001750       ??_C@_0FC@MHCNBNBN@C?3?2CPSC?2CPSC585?2PhysX3_3_4?2PhysX@ 10136750     PsTempAllocator.obj
 0002:000017a4       ??_7PxCollection@physx@@6B@ 101367a4     CmCollection.obj
 0002:000017e4       ??_7Collection@Cm@physx@@6B@ 101367e4     CmCollection.obj
 0002:00001828       ??_C@_0GE@GBACBMOC@PxCollection?3?3add?5called?5for?5an?5@ 10136828     CmCollection.obj
 0002:0000188c       ??_C@_0CC@IADNGPGM@?4?4?2?4?4?2Common?2src?2CmCollection?4cp@ 1013688c     CmCollection.obj
 0002:000018b0       ??_C@_0EM@OMMGDOMK@PxCollection?3?3add?5called?5with?5an@ 101368b0     CmCollection.obj
 0002:000018fc       ??_C@_0BA@MIBLHBGK@Basic?4collision?$AA@ 101368fc     CmEventProfiler.obj
 0002:0000190c       ??_C@_0BB@CNNNIIKB@Basic?4broadPhase?$AA@ 1013690c     CmEventProfiler.obj
 0002:00001920       ??_C@_0BC@JMIHPGJA@Basic?4narrowPhase?$AA@ 10136920     CmEventProfiler.obj
 0002:00001934       ??_C@_0BG@GJLJHLKK@Basic?4rigidBodySolver?$AA@ 10136934     CmEventProfiler.obj
 0002:0000194c       ??_C@_0BA@HGKFBHPH@Basic?4islandGen?$AA@ 1013694c     CmEventProfiler.obj
 0002:0000195c       ??_C@_0P@LCFKDIEP@Basic?4dynamics?$AA@ 1013695c     CmEventProfiler.obj
 0002:0000196c       ??_C@_0BE@CABHADLK@Basic?4pvdFrameStart?$AA@ 1013696c     CmEventProfiler.obj
 0002:00001980       ??_C@_0P@FCMKHNLB@Basic?4simulate?$AA@ 10136980     CmEventProfiler.obj
 0002:00001990       ??_C@_0BD@JOGLKFKJ@Basic?4checkResults?$AA@ 10136990     CmEventProfiler.obj
 0002:000019a4       ??_C@_0BF@LGFKGEBC@Basic?4checkCollision?$AA@ 101369a4     CmEventProfiler.obj
 0002:000019bc       ??_C@_0BD@ELBODAJK@Basic?4fetchResults?$AA@ 101369bc     CmEventProfiler.obj
 0002:000019d0       ??_C@_0BF@LJCIBDL@?4API?4flushSimulation?$AA@ 101369d0     CmEventProfiler.obj
 0002:000019e8       ??_C@_0BH@PCMHPPAG@?4API?4flushQueryUpdates?$AA@ 101369e8     CmEventProfiler.obj
 0002:00001a00       ??_C@_0O@EIEDIKON@?4API?4addActor?$AA@ 10136a00     CmEventProfiler.obj
 0002:00001a10       ??_C@_0P@NKOBPHHK@?4API?4addActors?$AA@ 10136a10     CmEventProfiler.obj
 0002:00001a20       ??_C@_0BB@KMKGGDIE@?4API?4removeActor?$AA@ 10136a20     CmEventProfiler.obj
 0002:00001a34       ??_C@_0BC@OOGLMLGP@?4API?4removeActors?$AA@ 10136a34     CmEventProfiler.obj
 0002:00001a48       ??_C@_0BC@DPBMBOGL@?4API?4addAggregate?$AA@ 10136a48     CmEventProfiler.obj
 0002:00001a5c       ??_C@_0BF@FLGPGMAF@?4API?4removeAggregate?$AA@ 10136a5c     CmEventProfiler.obj
 0002:00001a74       ??_C@_0BF@CEDAHEOM@?4API?4addArticulation?$AA@ 10136a74     CmEventProfiler.obj
 0002:00001a8c       ??_C@_0BI@LCHMKJFA@?4API?4removeArticulation?$AA@ 10136a8c     CmEventProfiler.obj
 0002:00001aa4       ??_C@_0BD@BNILPGGG@?4API?4addCollection?$AA@ 10136aa4     CmEventProfiler.obj
 0002:00001ab8       ??_C@_0BH@DBNJDACL@?4API?4addParticleSystem?$AA@ 10136ab8     CmEventProfiler.obj
 0002:00001ad0       ??_C@_0BK@IBMLOJLK@?4API?4removeParticleSystem?$AA@ 10136ad0     CmEventProfiler.obj
 0002:00001aec       ??_C@_0BG@FHCIAMCP@?4API?4addParticleFluid?$AA@ 10136aec     CmEventProfiler.obj
 0002:00001b04       ??_C@_0BJ@JFGJLPFF@?4API?4removeParticleFluid?$AA@ 10136b04     CmEventProfiler.obj
 0002:00001b20       ??_C@_0O@KAJNNKOD@?4API?4addCloth?$AA@ 10136b20     CmEventProfiler.obj
 0002:00001b30       ??_C@_0BB@EEHIDDIK@?4API?4removeCloth?$AA@ 10136b30     CmEventProfiler.obj
 0002:00001b44       ??_C@_0BG@HFDIJLP@?4API?4createBatchQuery?$AA@ 10136b44     CmEventProfiler.obj
 0002:00001b5c       ??_C@_0BH@NFMEGCFI@?4API?4releaseBatchQuery?$AA@ 10136b5c     CmEventProfiler.obj
 0002:00001b74       ??_C@_0BN@NHLFGIND@?4API?4forceDynamicTreeRebuild?$AA@ 10136b74     CmEventProfiler.obj
 0002:00001b94       ??_C@_0BB@BIDPKBFO@?4API?4shiftOrigin?$AA@ 10136b94     CmEventProfiler.obj
 0002:00001ba8       ??_C@_0BD@NKEMEMNB@?4API?4addActorToSim?$AA@ 10136ba8     CmEventProfiler.obj
 0002:00001bbc       ??_C@_0BI@EIALDOIM@?4API?4removeActorFromSim?$AA@ 10136bbc     CmEventProfiler.obj
 0002:00001bd4       ??_C@_0BE@LODGKFBP@?4API?4addShapesToSim?$AA@ 10136bd4     CmEventProfiler.obj
 0002:00001be8       ??_C@_0BJ@JAKJJECM@?4API?4removeShapesFromSim?$AA@ 10136be8     CmEventProfiler.obj
 0002:00001c04       ??_C@_0BD@BJCJKOGM@?4API?4addShapesToSQ?$AA@ 10136c04     CmEventProfiler.obj
 0002:00001c18       ??_C@_0BI@DCBFBMBB@?4API?4removeShapesFromSQ?$AA@ 10136c18     CmEventProfiler.obj
 0002:00001c30       ??_C@_0BN@ECHOGGPB@?4API?4simAddShapeToBroadPhase?$AA@ 10136c30     CmEventProfiler.obj
 0002:00001c50       ??_C@_0BM@NFHNBMHI@?4API?4findAndReplaceWithLast?$AA@ 10136c50     CmEventProfiler.obj
 0002:00001c6c       ??_C@_0BH@BJKEIFKF@Sim?4updateDirtyShaders?$AA@ 10136c6c     CmEventProfiler.obj
 0002:00001c84       ??_C@_0BH@DMPCGCE@Sim?4taskFrameworkSetup?$AA@ 10136c84     CmEventProfiler.obj
 0002:00001c9c       ??_C@_0BG@DNHCGIKJ@Sim?4resetDependencies?$AA@ 10136c9c     CmEventProfiler.obj
 0002:00001cb4       ??_C@_0BE@CAIIKOJC@Sim?4solveQueueTasks?$AA@ 10136cb4     CmEventProfiler.obj
 0002:00001cc8       ??_C@_0BG@KMFIHMN@Sim?4collideQueueTasks?$AA@ 10136cc8     CmEventProfiler.obj
 0002:00001ce0       ??_C@_0BG@DJLFLABI@Sim?4stepSetupSimulate?$AA@ 10136ce0     CmEventProfiler.obj
 0002:00001cf8       ??_C@_0BD@JJMKFKDH@Sim?4stepSetupSolve?$AA@ 10136cf8     CmEventProfiler.obj
 0002:00001d0c       ??_C@_0BF@FANAHMLK@Sim?4stepSetupCollide?$AA@ 10136d0c     CmEventProfiler.obj
 0002:00001d24       ??_C@_0BL@LELOEGFN@?4Sim?4projectionTreeUpdates?$AA@ 10136d24     CmEventProfiler.obj
 0002:00001d40       ??_C@_0BH@LNNOBOLE@Sim?4processNewOverlaps?$AA@ 10136d40     CmEventProfiler.obj
 0002:00001d58       ??_C@_0BI@JLHCBPCB@Sim?4processLostOverlaps?$AA@ 10136d58     CmEventProfiler.obj
 0002:00001d70       ??_C@_0BE@CIIPCGID@Sim?4processTriggers?$AA@ 10136d70     CmEventProfiler.obj
 0002:00001d84       ??_C@_0BF@NDJOFMEP@Sim?4queueNarrowPhase?$AA@ 10136d84     CmEventProfiler.obj
 0002:00001d9c       ??_C@_0BA@IAJJNLNL@Sim?4narrowPhase?$AA@ 10136d9c     CmEventProfiler.obj
 0002:00001dac       ??_C@_0BK@PBHILHAF@Sim?4finishModifiablePairs?$AA@ 10136dac     CmEventProfiler.obj
 0002:00001dc8       ??_C@_0BF@LAABKADL@Sim?4narrowPhaseMerge?$AA@ 10136dc8     CmEventProfiler.obj
 0002:00001de0       ??_C@_0BB@MMIHNICK@Sim?4preIslandGen?$AA@ 10136de0     CmEventProfiler.obj
 0002:00001df4       ??_C@_0BC@IGMBOODB@Sim?4updateIslands?$AA@ 10136df4     CmEventProfiler.obj
 0002:00001e08       ??_C@_0BL@LOJEKLAG@Sim?4preIslandGenSecondPass?$AA@ 10136e08     CmEventProfiler.obj
 0002:00001e24       ??_C@_0BM@DDHIIJBM@Sim?4updateIslandsSecondPass?$AA@ 10136e24     CmEventProfiler.obj
 0002:00001e40       ??_C@_0BM@IGNAPKHI@Sim?4postIslandGenSecondPass?$AA@ 10136e40     CmEventProfiler.obj
 0002:00001e5c       ??_C@_0BB@CFGDPNEA@Sim?4updateForces?$AA@ 10136e5c     CmEventProfiler.obj
 0002:00001e70       ??_C@_0BH@OOBNLNPN@Sim?4updateCCDMultiPass?$AA@ 10136e70     CmEventProfiler.obj
 0002:00001e88       ??_C@_0BC@DNOCCOIA@Sim?4ccdBroadPhase?$AA@ 10136e88     CmEventProfiler.obj
 0002:00001e9c       ??_C@_0BI@LKPOJOFH@Sim?4updateCCDSinglePass?$AA@ 10136e9c     CmEventProfiler.obj
 0002:00001eb4       ??_C@_0BK@NKFLGOIH@Sim?4ccdBroadPhaseComplete?$AA@ 10136eb4     CmEventProfiler.obj
 0002:00001ed0       ??_C@_0BF@CILKBHIA@?4Sim?4projectContacts?$AA@ 10136ed0     CmEventProfiler.obj
 0002:00001ee8       ??_C@_0O@LJEANFP@?4Sim?4ccdSweep?$AA@ 10136ee8     CmEventProfiler.obj
 0002:00001ef8       ??_C@_0BD@CHPHICPP@?4Sim?4ccdSweepMerge?$AA@ 10136ef8     CmEventProfiler.obj
 0002:00001f0c       ??_C@_0N@CBJMAAJC@?4Sim?4ccdPair?$AA@ 10136f0c     CmEventProfiler.obj
 0002:00001f1c       ??_C@_0P@DGLLIMAB@?4Sim?4ccdIsland?$AA@ 10136f1c     CmEventProfiler.obj
 0002:00001f2c       ??_C@_0BC@OLPJNLOP@?4Sim?4getSimEvents?$AA@ 10136f2c     CmEventProfiler.obj
 0002:00001f40       ??_C@_0BL@OIBOHMDC@?4Sim?4syncBodiesAfterSolver?$AA@ 10136f40     CmEventProfiler.obj
 0002:00001f5c       ??_C@_0CA@IPIGIJJJ@?4Sim?4syncBodiesAfterIntegration?$AA@ 10136f5c     CmEventProfiler.obj
 0002:00001f7c       ??_C@_0BI@KLMJHGNC@?4Sim?4projectConstraints?$AA@ 10136f7c     CmEventProfiler.obj
 0002:00001f94       ??_C@_0BN@GPOBOIBN@?4Sim?4checkConstraintBreakage?$AA@ 10136f94     CmEventProfiler.obj
 0002:00001fb4       ??_C@_0BI@DHNJPMGB@?4Sim?4visualizeStartStep?$AA@ 10136fb4     CmEventProfiler.obj
 0002:00001fcc       ??_C@_0BG@LAKEEIOL@?4Sim?4visualizeEndStep?$AA@ 10136fcc     CmEventProfiler.obj
 0002:00001fe4       ??_C@_0CB@EIGHFGHM@Sim?4fireCustomFilteringCallbacks@ 10136fe4     CmEventProfiler.obj
 0002:00002008       ??_C@_0BJ@LFGMCHDM@Sim?4fireCallBacksPreSync?$AA@ 10137008     CmEventProfiler.obj
 0002:00002024       ??_C@_0BH@OPBJDBEE@Sim?4updatePruningTrees?$AA@ 10137024     CmEventProfiler.obj
 0002:0000203c       ??_C@_0BK@NGHEFLJE@Sim?4fireCallBacksPostSync?$AA@ 1013703c     CmEventProfiler.obj
 0002:00002058       ??_C@_0O@OOLOCNEF@Sim?4syncState?$AA@ 10137058     CmEventProfiler.obj
 0002:00002068       ??_C@_0BK@NNOIFFML@Sim?4buildActiveTransforms?$AA@ 10137068     CmEventProfiler.obj
 0002:00002084       ??_C@_0BB@KKAMLGKP@Sim?4fetchResults?$AA@ 10137084     CmEventProfiler.obj
 0002:00002098       ??_C@_0BG@IANODDFO@Sim?4sceneFinalization?$AA@ 10137098     CmEventProfiler.obj
 0002:000020b0       ??_C@_0BG@IBLJLDMG@ParticleSim?4startStep?$AA@ 101370b0     CmEventProfiler.obj
 0002:000020c8       ??_C@_0BE@GEILGIKO@ParticleSim?4endStep?$AA@ 101370c8     CmEventProfiler.obj
 0002:000020dc       ??_C@_0CD@DPGIIPPG@ParticleSim?4shapesUpdateProcessi@ 101370dc     CmEventProfiler.obj
 0002:00002100       ??_C@_0BM@JDFGHBHB@ParticleSim?4updateCollision?$AA@ 10137100     CmEventProfiler.obj
 0002:0000211c       ??_C@_0BK@PCGIBKAM@Dynamics?4solverQueueTasks?$AA@ 1013711c     CmEventProfiler.obj
 0002:00002138       ??_C@_0BE@OEBHCFMH@Dynamics?4solveGroup?$AA@ 10137138     CmEventProfiler.obj
 0002:0000214c       ??_C@_0BM@GFIEJPFJ@Dynamics?4solverMergeResults?$AA@ 1013714c     CmEventProfiler.obj
 0002:00002168       ??_C@_0BA@OKMBOPLA@Dynamics?4solver?$AA@ 10137168     CmEventProfiler.obj
 0002:00002178       ??_C@_0BJ@MHAGEBNG@?4Dynamics?4createFinalize?$AA@ 10137178     CmEventProfiler.obj
 0002:00002194       ??_C@_0BI@HACBLIBB@?4Dynamics?4setupFinalize?$AA@ 10137194     CmEventProfiler.obj
 0002:000021ac       ??_C@_0BL@LGAKCCJL@?4Dynamics?4getFrictionPatch?$AA@ 101371ac     CmEventProfiler.obj
 0002:000021c8       ??_C@_0BP@EBKEJMEP@?4Dynamics?4createContactPatches?$AA@ 101371c8     CmEventProfiler.obj
 0002:000021e8       ??_C@_0BL@LFJCEHBF@?4Dynamics?4correlatePatches?$AA@ 101371e8     CmEventProfiler.obj
 0002:00002204       ??_C@_0BG@PHLBLBFO@?4Dynamics?4growPatches?$AA@ 10137204     CmEventProfiler.obj
 0002:0000221c       ??_C@_0BI@OHEAFNOI@?4Dynamics?4parallelSolve?$AA@ 1013721c     CmEventProfiler.obj
 0002:00002234       ??_C@_0BL@OGBIJANG@?4Dynamics?4updateKinematics?$AA@ 10137234     CmEventProfiler.obj
 0002:00002250       ??_C@_0BL@JOJBEIFI@?4Dynamics?4updateVelocities?$AA@ 10137250     CmEventProfiler.obj
 0002:0000226c       ??_C@_0BK@OCLGHGAK@?4Dynamics?4updatePositions?$AA@ 1013726c     CmEventProfiler.obj
 0002:00002288       ??_C@_0BH@KPBAFFPF@?4SceneQuery?4raycastAny?$AA@ 10137288     CmEventProfiler.obj
 0002:000022a0       ??_C@_0BK@KJEGJMDA@?4SceneQuery?4raycastSingle?$AA@ 101372a0     CmEventProfiler.obj
 0002:000022bc       ??_C@_0BM@INFEBJDK@?4SceneQuery?4raycastMultiple?$AA@ 101372bc     CmEventProfiler.obj
 0002:000022d8       ??_C@_0BM@PJFCPLCI@?4SceneQuery?4overlapMultiple?$AA@ 101372d8     CmEventProfiler.obj
 0002:000022f4       ??_C@_0BF@OEGDLFDP@?4SceneQuery?4sweepAny?$AA@ 101372f4     CmEventProfiler.obj
 0002:0000230c       ??_C@_0BJ@EEKDKNDD@?4SceneQuery?4sweepAnyList?$AA@ 1013730c     CmEventProfiler.obj
 0002:00002328       ??_C@_0BI@KCAMFMIH@?4SceneQuery?4sweepSingle?$AA@ 10137328     CmEventProfiler.obj
 0002:00002340       ??_C@_0BM@EHIMLDKE@?4SceneQuery?4sweepSingleList?$AA@ 10137340     CmEventProfiler.obj
 0002:0000235c       ??_C@_0BK@LNLEOILP@?4SceneQuery?4sweepMultiple?$AA@ 1013735c     CmEventProfiler.obj
 0002:00002378       ??_C@_0BO@BBFABMGD@?4SceneQuery?4sweepMultipleList?$AA@ 10137378     CmEventProfiler.obj
 0002:00002398       ??_C@_0BJ@LPMPMAPA@?4SceneQuery?4flushUpdates?$AA@ 10137398     CmEventProfiler.obj
 0002:000023b4       ??_C@_0BL@BBKIICNF@?4BatchedSceneQuery?4execute?$AA@ 101373b4     CmEventProfiler.obj
 0002:000023d0       ??_C@_0BO@HAMBEM@?4BatchedSceneQuery?4raycastAny?$AA@ 101373d0     CmEventProfiler.obj
 0002:000023f0       ??_C@_0CB@DLFGHHEG@?4BatchedSceneQuery?4raycastSingle@ 101373f0     CmEventProfiler.obj
 0002:00002414       ??_C@_0CD@MDOJGOKK@?4BatchedSceneQuery?4raycastMultip@ 10137414     CmEventProfiler.obj
 0002:00002438       ??_C@_0CD@LHOPIMLI@?4BatchedSceneQuery?4overlapMultip@ 10137438     CmEventProfiler.obj
 0002:0000245c       ??_C@_0BP@BABODHDL@?4BatchedSceneQuery?4sweepSingle?$AA@ 1013745c     CmEventProfiler.obj
 0002:0000247c       ??_C@_0CB@CPKEADMJ@?4BatchedSceneQuery?4sweepMultiple@ 1013747c     CmEventProfiler.obj
 0002:000024a0       ??_C@_0CA@DNMMBAMP@?4Articulations?4prepareDataBlock?$AA@ 101374a0     CmEventProfiler.obj
 0002:000024c0       ??_C@_0BM@LGJMKGKM@?4Articulations?4setupProject?$AA@ 101374c0     CmEventProfiler.obj
 0002:000024dc       ??_C@_0BN@MKIODIOJ@?4Articulations?4prepareFsData?$AA@ 101374dc     CmEventProfiler.obj
 0002:000024fc       ??_C@_0BL@OBDPJDBB@?4Articulations?4setupDrives?$AA@ 101374fc     CmEventProfiler.obj
 0002:00002518       ??_C@_0BK@CCNEHK@?4Articulations?4jointLoads?$AA@ 10137518     CmEventProfiler.obj
 0002:00002534       ??_C@_0CG@JGLFNGPF@?4Articulations?4propagateDrivenIn@ 10137534     CmEventProfiler.obj
 0002:0000255c       ??_C@_0CC@PINOIDLF@?4Articulations?4computeJointDrive@ 1013755c     CmEventProfiler.obj
 0002:00002580       ??_C@_0CA@JADFKDHH@?4Articulations?4applyJointDrives?$AA@ 10137580     CmEventProfiler.obj
 0002:000025a0       ??_C@_0CF@MJDHKFJG@?4Articulations?4applyExternalImpu@ 101375a0     CmEventProfiler.obj
 0002:000025c8       ??_C@_0CA@OOGJDHEG@?4Articulations?4setupConstraints?$AA@ 101375c8     CmEventProfiler.obj
 0002:000025e8       ??_C@_0BJ@IKFHNEPN@?4Articulations?4integrate?$AA@ 101375e8     CmEventProfiler.obj
 0002:00002604       ??_C@_0CD@DHMKIDHC@?4BroadPhase?4computeAABBUpdateLis@ 10137604     CmEventProfiler.obj
 0002:00002628       ??_C@_0CG@IGODGJJL@?4BroadPhase?4updateAggLocalSpaceB@ 10137628     CmEventProfiler.obj
 0002:00002650       ??_C@_0BN@ODAGPJLA@?4BroadPhase?4updateShapeAABBs?$AA@ 10137650     CmEventProfiler.obj
 0002:00002670       ??_C@_0BL@MPKGGIDP@?4BroadPhase?4updateAggAABBs?$AA@ 10137670     CmEventProfiler.obj
 0002:0000268c       ??_C@_0BN@OKBHLBNE@?4BroadPhase?4updateBroadphase?$AA@ 1013768c     CmEventProfiler.obj
 0002:000026ac       ??_C@_0BG@HNFCKPFC@?4BroadPhase?4SapUpdate?$AA@ 101376ac     CmEventProfiler.obj
 0002:000026c4       ??_C@_0BK@NAJKDGHG@?4BroadPhase?4SapPostUpdate?$AA@ 101376c4     CmEventProfiler.obj
 0002:000026e0       ??_C@_0BJ@LBAKENLA@?4BroadPhase?4SapUpdateSPU?$AA@ 101376e0     CmEventProfiler.obj
 0002:000026fc       ??_C@_0BN@LLHCNIPA@?4BroadPhase?4SapPostUpdateSPU?$AA@ 101376fc     CmEventProfiler.obj
 0002:0000271c       ??_C@_0BG@GDPMCDJ@?4BroadPhase?4MBPUpdate?$AA@ 1013771c     CmEventProfiler.obj
 0002:00002734       ??_C@_0BK@GLDGKDFJ@?4BroadPhase?4MBPPostUpdate?$AA@ 10137734     CmEventProfiler.obj
 0002:00002750       ??_C@_0BJ@BGNIGBAF@?4BroadPhase?4MBPUpdateSPU?$AA@ 10137750     CmEventProfiler.obj
 0002:0000276c       ??_C@_0BN@FLDFEIAK@?4BroadPhase?4MBPPostUpdateSPU?$AA@ 1013776c     CmEventProfiler.obj
 0002:0000278c       ??_C@_0BN@EMEDBPE@?4BroadPhase?4processBPResults?$AA@ 1013778c     CmEventProfiler.obj
 0002:000027ac       ??_C@_0CE@DNLACEDP@?4BroadPhase?4updateLazyAggShapeAA@ 101377ac     CmEventProfiler.obj
 0002:000027d0       ??_C@_0CE@MJIPFNHP@?4BroadPhase?4computeAggAggShapePa@ 101377d0     CmEventProfiler.obj
 0002:000027f4       ??_C@_0BD@EMBKOIOE@?4BroadPhase?4finish?$AA@ 101377f4     CmEventProfiler.obj
 0002:00002808       ??_C@_0BI@DAOKOBAA@?4IslandGen?4resizeArrays?$AA@ 10137808     CmEventProfiler.obj
 0002:00002820       ??_C@_0BP@HCJOIOMO@?4IslandGen?4resizeForKinematics?$AA@ 10137820     CmEventProfiler.obj
 0002:00002840       ??_C@_0BN@DDPLMBBJ@?4IslandGen?4cleanupEdgeEvents?$AA@ 10137840     CmEventProfiler.obj
 0002:00002860       ??_C@_0BI@EOIJAKEO@?4IslandGen?4emptyIslands?$AA@ 10137860     CmEventProfiler.obj
 0002:00002878       ??_C@_0BH@MHLIJJPL@?4IslandGen?4joinedEdges?$AA@ 10137878     CmEventProfiler.obj
 0002:00002890       ??_C@_0BI@OIACCHDK@?4IslandGen?4createdNodes?$AA@ 10137890     CmEventProfiler.obj
 0002:000028a8       ??_C@_0CD@NMJNDKBO@?4IslandGen?4duplicateKinematicNod@ 101378a8     CmEventProfiler.obj
 0002:000028cc       ??_C@_0BN@CFEOLCAH@?4IslandGen?4brokenEdgeIslands?$AA@ 101378cc     CmEventProfiler.obj
 0002:000028ec       ??_C@_0CC@CMMPHDOH@?4IslandGen?4processSleepingIsland@ 101378ec     CmEventProfiler.obj
 0002:00002910       ??_C@_0BH@EFDLIGFG@?4IslandGen?4freeBuffers?$AA@ 10137910     CmEventProfiler.obj
 0002:00002928       ??_C@_0BN@BNGFLIND@?4IslandGen?4deletedNodesEdges?$AA@ 10137928     CmEventProfiler.obj
 0002:00002948       ??_C@_0BE@IKDMEHLH@?4PVD?4updateContacts?$AA@ 10137948     CmEventProfiler.obj
 0002:0000295c       ??_C@_0BJ@IIPPGIEK@?4PVD?4updateDynamicBodies?$AA@ 1013795c     CmEventProfiler.obj
 0002:00002978       ??_C@_0BC@CCDNOENI@?4PVD?4updateJoints?$AA@ 10137978     CmEventProfiler.obj
 0002:0000298c       ??_C@_0BC@JEOJMLOK@?4PVD?4updateCloths?$AA@ 1013798c     CmEventProfiler.obj
 0002:000029a0       ??_C@_0BE@GPNMCIEE@?4PVD?4updateSleeping?$AA@ 101379a0     CmEventProfiler.obj
 0002:000029b4       ??_C@_0BN@CHDLNOLO@?4PVD?4updatePariclesAndFluids?$AA@ 101379b4     CmEventProfiler.obj
 0002:000029d4       ??_C@_0BB@FDDDEOJB@?4PVD?4sceneUpdate?$AA@ 101379d4     CmEventProfiler.obj
 0002:000029e8       ??_C@_0BH@IIFBHCLD@?4PVD?4createPVDInstance?$AA@ 101379e8     CmEventProfiler.obj
 0002:00002a00       ??_C@_0BI@IHPAHCC@?4PVD?4releasePVDInstance?$AA@ 10137a00     CmEventProfiler.obj
 0002:00002a18       ??_C@_0BJ@PKDEPGEK@?4PVD?4updatePVDProperties?$AA@ 10137a18     CmEventProfiler.obj
 0002:00002a34       ??_C@_0BD@DLOBPCIF@?4PVD?4sendPVDArrays?$AA@ 10137a34     CmEventProfiler.obj
 0002:00002a48       ??_C@_0BA@PJNJNBCJ@PVD?4originShift?$AA@ 10137a48     CmEventProfiler.obj
 0002:00002a58       ??_7FreeListAllocator@Cm@physx@@6B@ 10137a58     CmFreeListAllocator.obj
 0002:00002a64       ??_C@_0BH@DIEJOAKE@FreeListAllocatorMutex?$AA@ 10137a64     CmFreeListAllocator.obj
 0002:00002a7c       ??_C@_0CJ@KFICLIBG@?4?4?2?4?4?2Common?2src?2CmFreeListAlloc@ 10137a7c     CmFreeListAllocator.obj
 0002:00002aa8       ??_C@_0CD@HOICFALD@?$DN?$DN?$DN?$DN?$DN?$DN?$DN?$DN?$DN?$DN?$DN?$DN?$DN?$DN?$DN?$DN?$DN?$DN?$DN?$DN?$DN?$DN?$DN?$DN?$DN?$DN?$DN?$DN?$DN?$DN?$DN?$DN@ 10137aa8     CmFreeListAllocator.obj
 0002:00002acc       ??_C@_05HKAKDGKI@EMPTY?$AA@ 10137acc     CmFreeListAllocator.obj
 0002:00002ad4       ??_C@_0L@NIFKCPOI@Block?3?5?$CFp?6?$AA@ 10137ad4     CmFreeListAllocator.obj
 0002:00002ae0       ??_C@_04DHFLIKEL@LAST?$AA@ 10137ae0     CmFreeListAllocator.obj
 0002:00002ae8       ??_C@_05BDPGECIF@FIRST?$AA@ 10137ae8     CmFreeListAllocator.obj
 0002:00002af0       ??_C@_04PCNCCNDP@USED?$AA@ 10137af0     CmFreeListAllocator.obj
 0002:00002af8       ??_C@_0CK@DEKKEMKF@Chunk?5?$CFp?0?5size?5?$CFu?0?5prevSize?5?$CFu?0?5@ 10137af8     CmFreeListAllocator.obj
 0002:00002b24       ??_C@_0BC@PAEBNJHI@FreeListAllocator?$AA@ 10137b24     CmFreeListAllocator.obj
 0002:00002b38       ??_C@_0FC@MOEABEGE@C?3?2CPSC?2CPSC585?2PhysX3_3_4?2PhysX@ 10137b38     CmFreeListAllocator.obj
 0002:00002b8c       __real@358637bd            10137b8c     CmMathUtils.obj
 0002:00002b90       __real@3dcccccd            10137b90     CmMathUtils.obj
 0002:00002b94       __real@3e800000            10137b94     CmMathUtils.obj
 0002:00002b98       __real@3f3504f3            10137b98     CmMathUtils.obj
 0002:00002ba0       __real@413e848000000000    10137ba0     CmMathUtils.obj
 0002:00002ba8       __real@447a0000            10137ba8     CmMathUtils.obj
 0002:00002bb0       __xmm@000000003f8000000000000000000000 10137bb0     CmMathUtils.obj
 0002:00002bc0       __xmm@3f800000000000000000000000000000 10137bc0     CmMathUtils.obj
 0002:00002bd0       ??_C@_08MDGMHCHN@PtrTable?$AA@ 10137bd0     CmPtrTable.obj
 0002:00002bdc       ??_C@_04GKJNKENE@void?$AA@ 10137bdc     CmPtrTable.obj
 0002:00002be4       ??_C@_07DFEBJDHE@mSingle?$AA@ 10137be4     CmPtrTable.obj
 0002:00002bec       ??_C@_05NLHHBMOH@PxU16?$AA@ 10137bec     CmPtrTable.obj
 0002:00002bf4       ??_C@_06EPKHJPIM@mCount?$AA@ 10137bf4     CmPtrTable.obj
 0002:00002bfc       ??_C@_04DDKJGDCM@bool?$AA@ 10137bfc     CmPtrTable.obj
 0002:00002c04       ??_C@_0M@DAGELID@mOwnsMemory?$AA@ 10137c04     CmPtrTable.obj
 0002:00002c10       ??_C@_0M@MMPOMMLP@mBufferUsed?$AA@ 10137c10     CmPtrTable.obj
 0002:00002c1c       ?sBufferSize@DebugText@Cm@physx@@2HB 10137c1c     CmRenderOutput.obj
 0002:00002c20       __real@3e19999a            10137c20     CmRenderOutput.obj
 0002:00002c24       __real@3eddb3d7            10137c24     CmRenderOutput.obj
 0002:00002c28       __real@40c90fdb            10137c28     CmRenderOutput.obj
 0002:00002c2c       __real@3d4ccccd            10137c2c     CmVisualization.obj
 0002:00002c30       __real@3e490fdb            10137c30     CmVisualization.obj
 0002:00002c34       __real@3e99999a            10137c34     CmVisualization.obj
 0002:00002c38       __real@3fc00000            10137c38     CmVisualization.obj
 0002:00002c3c       __real@40000000            10137c3c     CmVisualization.obj
 0002:00002c40       ?g_PXSinCoefficients0@aos@shdfnd@physx@@3UPX_VECTORF32@123@B 10137c40     GuContactCapsuleMesh.obj
 0002:00002c50       ?g_PXSinCoefficients1@aos@shdfnd@physx@@3UPX_VECTORF32@123@B 10137c50     GuContactCapsuleMesh.obj
 0002:00002c60       ?g_PXSinCoefficients2@aos@shdfnd@physx@@3UPX_VECTORF32@123@B 10137c60     GuContactCapsuleMesh.obj
 0002:00002c70       ?g_PXCosCoefficients0@aos@shdfnd@physx@@3UPX_VECTORF32@123@B 10137c70     GuContactCapsuleMesh.obj
 0002:00002c80       ?g_PXCosCoefficients1@aos@shdfnd@physx@@3UPX_VECTORF32@123@B 10137c80     GuContactCapsuleMesh.obj
 0002:00002c90       ?g_PXCosCoefficients2@aos@shdfnd@physx@@3UPX_VECTORF32@123@B 10137c90     GuContactCapsuleMesh.obj
 0002:00002ca0       ?g_PXTanCoefficients0@aos@shdfnd@physx@@3UPX_VECTORF32@123@B 10137ca0     GuContactCapsuleMesh.obj
 0002:00002cb0       ?g_PXTanCoefficients1@aos@shdfnd@physx@@3UPX_VECTORF32@123@B 10137cb0     GuContactCapsuleMesh.obj
 0002:00002cc0       ?g_PXTanCoefficients2@aos@shdfnd@physx@@3UPX_VECTORF32@123@B 10137cc0     GuContactCapsuleMesh.obj
 0002:00002cd0       ?g_PXASinCoefficients0@aos@shdfnd@physx@@3UPX_VECTORF32@123@B 10137cd0     GuContactCapsuleMesh.obj
 0002:00002ce0       ?g_PXASinCoefficients1@aos@shdfnd@physx@@3UPX_VECTORF32@123@B 10137ce0     GuContactCapsuleMesh.obj
 0002:00002cf0       ?g_PXASinCoefficients2@aos@shdfnd@physx@@3UPX_VECTORF32@123@B 10137cf0     GuContactCapsuleMesh.obj
 0002:00002d00       ?g_PXATanCoefficients0@aos@shdfnd@physx@@3UPX_VECTORF32@123@B 10137d00     GuContactCapsuleMesh.obj
 0002:00002d10       ?g_PXATanCoefficients1@aos@shdfnd@physx@@3UPX_VECTORF32@123@B 10137d10     GuContactCapsuleMesh.obj
 0002:00002d20       ?g_PXATanCoefficients2@aos@shdfnd@physx@@3UPX_VECTORF32@123@B 10137d20     GuContactCapsuleMesh.obj
 0002:00002d30       ?g_PXSinEstCoefficients@aos@shdfnd@physx@@3UPX_VECTORF32@123@B 10137d30     GuContactCapsuleMesh.obj
 0002:00002d40       ?g_PXCosEstCoefficients@aos@shdfnd@physx@@3UPX_VECTORF32@123@B 10137d40     GuContactCapsuleMesh.obj
 0002:00002d50       ?g_PXTanEstCoefficients@aos@shdfnd@physx@@3UPX_VECTORF32@123@B 10137d50     GuContactCapsuleMesh.obj
 0002:00002d60       ?g_PXATanEstCoefficients@aos@shdfnd@physx@@3UPX_VECTORF32@123@B 10137d60     GuContactCapsuleMesh.obj
 0002:00002d70       ?g_PXASinEstCoefficients@aos@shdfnd@physx@@3UPX_VECTORF32@123@B 10137d70     GuContactCapsuleMesh.obj
 0002:00002d80       ?g_PXASinEstConstants@aos@shdfnd@physx@@3UPX_VECTORF32@123@B 10137d80     GuContactCapsuleMesh.obj
 0002:00002d90       ?g_PXPiConstants0@aos@shdfnd@physx@@3UPX_VECTORF32@123@B 10137d90     GuContactCapsuleMesh.obj
 0002:00002da0       ?g_PXReciprocalTwoPi@aos@shdfnd@physx@@3UPX_VECTORF32@123@B 10137da0     GuContactCapsuleMesh.obj
 0002:00002db0       ?g_PXTwoPi@aos@shdfnd@physx@@3UPX_VECTORF32@123@B 10137db0     GuContactCapsuleMesh.obj
 0002:00002dd0       ??_C@_06EJKDJEDO@PxBase?$AA@ 10137dd0     GuContactCapsuleMesh.obj
 0002:00002dd8       ??_C@_0P@GGNFNHKF@PxTriangleMesh?$AA@ 10137dd8     GuContactCapsuleMesh.obj
 0002:00002de8       ??_C@_0O@PBAKPCEC@PxHeightField?$AA@ 10137de8     GuContactCapsuleMesh.obj
 0002:00002df8       ??_7PxBase@physx@@6B@      10137df8     GuContactCapsuleMesh.obj
 0002:00002e10       ??_C@_0FF@FGIOIIIE@C?3?2CPSC?2CPSC585?2PhysX3_3_4?2PhysX@ 10137e10     GuContactCapsuleMesh.obj
 0002:00002e68       ??_7?$MeshHitCallback@UPxRaycastHit@physx@@@Gu@physx@@6B@ 10137e68     GuContactCapsuleMesh.obj
 0002:00002e70       ??_7CapsuleMeshContactGenerationCallback@?A0xc20cb5b8@@6B@ 10137e70     GuContactCapsuleMesh.obj
 0002:00002e78       ??_7?$EntityReport@I@Gu@physx@@6B@ 10137e78     GuContactCapsuleMesh.obj
 0002:00002e80       ??_7CapsuleHeightfieldContactGenerationCallback@?A0xc20cb5b8@@6B@ 10137e80     GuContactCapsuleMesh.obj
 0002:00002e88       __real@358637be            10137e88     GuContactCapsuleMesh.obj
 0002:00002e8c       __real@3a83126f            10137e8c     GuContactCapsuleMesh.obj
 0002:00002e90       __real@3c23d70a            10137e90     GuContactCapsuleMesh.obj
 0002:00002e94       __real@3eaaaaab            10137e94     GuContactCapsuleMesh.obj
 0002:00002e98       __real@3eb0c6f7a0b5ed8d    10137e98     GuContactCapsuleMesh.obj
 0002:00002ea0       __real@3f7fbe77            10137ea0     GuContactCapsuleMesh.obj
 0002:00002ea4       __real@4b000000            10137ea4     GuContactCapsuleMesh.obj
 0002:00002ea8       __real@80000000            10137ea8     GuContactCapsuleMesh.obj
 0002:00002eac       __real@ba83126f            10137eac     GuContactCapsuleMesh.obj
 0002:00002eb0       __xmm@000000003a83126f3a83126f3a83126f 10137eb0     GuContactCapsuleMesh.obj
 0002:00002ec0       __xmm@00000000ba83126fba83126fba83126f 10137ec0     GuContactCapsuleMesh.obj
 0002:00002ee0       ??_7ConvexMeshContactGenerationCallback@@6B@ 10137ee0     GuContactConvexMesh.obj
 0002:00002ee8       ??_7ConvexVsHeightfieldContactGenerationCallback@?A0xb3aad102@@6B@ 10137ee8     GuContactConvexMesh.obj
 0002:00002ef0       __real@38d1b717            10137ef0     GuContactConvexMesh.obj
 0002:00002f00       __xmm@ffffffffffffffffffffffffffffffff 10137f00     GuContactConvexMesh.obj
 0002:00002f20       __real@3c8efa35            10137f20     GuContactPolygonPolygon.obj
 0002:00002f28       __real@3e7ad7f29abcaf48    10137f28     GuContactPolygonPolygon.obj
 0002:00002f30       __real@3ec90fdb            10137f30     GuContactPolygonPolygon.obj
 0002:00002f34       __real@7f7fffff            10137f34     GuContactPolygonPolygon.obj
 0002:00002f38       __real@b58637bd            10137f38     GuContactPolygonPolygon.obj
 0002:00002f3c       __real@ff7fffff            10137f3c     GuContactPolygonPolygon.obj
 0002:00002f50       ??_7SphereMeshContactGenerationCallback_NoScale@?A0x4910fd16@@6B@ 10137f50     GuContactSphereMesh.obj
 0002:00002f58       ??_7SphereMeshContactGenerationCallback_Scale@?A0x4910fd16@@6B@ 10137f58     GuContactSphereMesh.obj
 0002:00002f60       ??_7SphereHeightfieldContactGenerationCallback@?A0x4910fd16@@6B@ 10137f60     GuContactSphereMesh.obj
 0002:00002f68       ??_C@_0FB@FOMCKLKI@C?3?2CPSC?2CPSC585?2PhysX3_3_4?2PhysX@ 10137f68     GuContactSphereMesh.obj
 0002:00002fc0       __xmm@0000000000000000000000003f800000 10137fc0     GuContactSphereMesh.obj
 0002:00002fe0       ??_C@_0CP@JIINMLKM@?4?4?2?4?4?2GeomUtils?2src?2convex?2GuBig@ 10137fe0     GuBigConvexData.obj
 0002:00003020       ??_C@_0N@CDGINLLF@PxConvexMesh?$AA@ 10138020     GuConvexMesh.obj
 0002:00003030       ??_7PxConvexMesh@physx@@6B@ 10138030     GuConvexMesh.obj
 0002:00003064       ??_7RefCountable@Cm@physx@@6B@ 10138064     GuConvexMesh.obj
 0002:0000306c       ??_7ConvexMesh@Gu@physx@@6BPxConvexMesh@2@@ 1013806c     GuConvexMesh.obj
 0002:000030a8       ??_7ConvexMesh@Gu@physx@@6BRefCountable@Cm@2@@ 101380a8     GuConvexMesh.obj
 0002:000030b0       ??_7GuMeshFactory@physx@@6B@ 101380b0     GuConvexMesh.obj
 0002:000030b4       ??_C@_0CM@DABFPBIC@?4?4?2?4?4?2GeomUtils?2src?2convex?2GuCon@ 101380b4     GuConvexMesh.obj
 0002:000030e0       ??_C@_0JL@ECHHLPCO@Loading?5convex?5mesh?5failed?3?5Depr@ 101380e0     GuConvexMesh.obj
 0002:0000317c       ??_C@_0DD@GDAMDLJL@Gu?3?3ConvexMesh?3?3release?3?5double?5@ 1013817c     GuConvexMesh.obj
 0002:000031c0       __xmm@000000000000000000000000ffffffff 101381c0     GuConvexSupportTable.obj
 0002:000031d0       __xmm@0000000000000000ffffffff00000000 101381d0     GuConvexSupportTable.obj
 0002:000031e0       __xmm@0000000000000000ffffffffffffffff 101381e0     GuConvexSupportTable.obj
 0002:000031f0       __xmm@00000000ffffffff0000000000000000 101381f0     GuConvexSupportTable.obj
 0002:00003200       __xmm@00000000ffffffff00000000ffffffff 10138200     GuConvexSupportTable.obj
 0002:00003210       __xmm@00000000ffffffffffffffff00000000 10138210     GuConvexSupportTable.obj
 0002:00003220       __xmm@00000000ffffffffffffffffffffffff 10138220     GuConvexSupportTable.obj
 0002:000032a0       __real@34000000            101382a0     GuDistanceSegmentSegment.obj
 0002:000032c0       __real@2b8cbccc            101382c0     GuDistanceSegmentTriangle.obj
 0002:000032e0       ??_7PxTriangleMesh@physx@@6B@ 101382e0     GuSweepBoxBox.obj
 0002:00003318       ??_7TriangleMesh@Gu@physx@@6BPxTriangleMesh@2@@ 10138318     GuSweepBoxBox.obj
 0002:00003358       ??_7TriangleMesh@Gu@physx@@6BRefCountable@Cm@2@@ 10138358     GuSweepBoxBox.obj
 0002:00003370       __real@b727c5ac            10138370     GuSweepBoxSphere.obj
 0002:00003390       __real@3727c5ac            10138390     GuSweepBoxTriangle_FeatureBased.obj
 0002:00003394       __real@3ca3d70a            10138394     GuSweepBoxTriangle_FeatureBased.obj
 0002:000033c0       ??_C@_0DA@IFKKGIIO@?4?4?2?4?4?2GeomUtils?2src?2sweep?2GuSwee@ 101383c0     GuSweepCapsuleBox.obj
 0002:00003410       __real@3f7fff58            10138410     GuSweepCapsuleTriangle.obj
 0002:00003430       __real@40800000            10138430     GuSweepSphereSphere.obj
 0002:00003450       __real@41200000            10138450     GuSweepSphereTriangle.obj
 0002:00003470       __real@3eaaaa9f            10138470     GuSweepTriangleUtils.obj
 0002:00003480       __xmm@00000000000000003f80000000000000 10138480     GuSweepTriangleUtils.obj
 0002:000034b0       ?absMask@?1??FAbs@aos@shdfnd@physx@@YA?AT__m128@@T5@@Z@4QBIB 101384b0     GuEPA.obj
 0002:000034c0       __real@3f5db3d7            101384c0     GuEPA.obj
 0002:000034c4       __real@bf000000            101384c4     GuEPA.obj
 0002:000034e0       ??_7EPASupportMapPair@Gu@physx@@6B@ 101384e0     GuEPAPenetrationWrapper.obj
 0002:000034f0       ??_7?$EPASupportMapPairLocalImpl@VCapsuleV@Gu@physx@@VBoxV@23@@Gu@physx@@6B@ 101384f0     GuEPAPenetrationWrapper.obj
 0002:00003500       ??_7?$EPASupportMapPairLocalImpl@VCapsuleV@Gu@physx@@VConvexHullV@23@@Gu@physx@@6B@ 10138500     GuEPAPenetrationWrapper.obj
 0002:00003510       ??_7?$EPASupportMapPairLocalImpl@VTriangleV@Gu@physx@@VBoxV@23@@Gu@physx@@6B@ 10138510     GuEPAPenetrationWrapper.obj
 0002:00003520       ??_7?$EPASupportMapPairLocalImpl@VTriangleV@Gu@physx@@VConvexHullV@23@@Gu@physx@@6B@ 10138520     GuEPAPenetrationWrapper.obj
 0002:00003530       ??_7?$EPASupportMapPairRelativeImpl@VBoxV@Gu@physx@@V123@@Gu@physx@@6B@ 10138530     GuEPAPenetrationWrapper.obj
 0002:00003540       ??_7?$EPASupportMapPairRelativeImpl@VBoxV@Gu@physx@@VConvexHullV@23@@Gu@physx@@6B@ 10138540     GuEPAPenetrationWrapper.obj
 0002:00003550       ??_7?$EPASupportMapPairRelativeImpl@VConvexHullV@Gu@physx@@V123@@Gu@physx@@6B@ 10138550     GuEPAPenetrationWrapper.obj
 0002:00003560       ??_7?$EPASupportMapPairRelativeImpl@VConvexHullNoScaleV@Gu@physx@@V123@@Gu@physx@@6B@ 10138560     GuEPAPenetrationWrapper.obj
 0002:00003570       ??_7?$EPASupportMapPairRelativeImpl@VConvexHullNoScaleV@Gu@physx@@VConvexHullV@23@@Gu@physx@@6B@ 10138570     GuEPAPenetrationWrapper.obj
 0002:00003580       ??_7?$EPASupportMapPairRelativeImpl@VConvexHullV@Gu@physx@@VConvexHullNoScaleV@23@@Gu@physx@@6B@ 10138580     GuEPAPenetrationWrapper.obj
 0002:000035a0       __real@396bedfa            101385a0     GuGJKFallBack.obj
 0002:000035c0       __real@39d1b717            101385c0     GuGJKPenetrationWrapper.obj
 0002:000035f0       __real@42c80000            101385f0     GuGJKSimplexTesselation.obj
 0002:000035f4       __real@461c4000            101385f4     GuGJKSimplexTesselation.obj
 0002:00003610       ??_7SupportMap@Gu@physx@@6B@ 10138610     GuGJKWrapper.obj
 0002:00003620       ??_7?$SupportMapRelativeImpl@VBoxV@Gu@physx@@@Gu@physx@@6B@ 10138620     GuGJKWrapper.obj
 0002:00003630       ??_7?$SupportMapLocalImpl@VConvexHullV@Gu@physx@@@Gu@physx@@6B@ 10138630     GuGJKWrapper.obj
 0002:00003640       ??_7?$SupportMapRelativeImpl@VConvexHullV@Gu@physx@@@Gu@physx@@6B@ 10138640     GuGJKWrapper.obj
 0002:00003650       ??_7?$EPASupportMapPairLocalImpl@VTriangleV@Gu@physx@@VCapsuleV@23@@Gu@physx@@6B@ 10138650     GuGJKWrapper.obj
 0002:00003660       ??_7?$EPASupportMapPairRelativeImpl@VTriangleV@Gu@physx@@VBoxV@23@@Gu@physx@@6B@ 10138660     GuGJKWrapper.obj
 0002:00003670       ??_7?$EPASupportMapPairRelativeImpl@VTriangleV@Gu@physx@@VCapsuleV@23@@Gu@physx@@6B@ 10138670     GuGJKWrapper.obj
 0002:00003680       ??_7?$EPASupportMapPairRelativeImpl@VTriangleV@Gu@physx@@VConvexHullV@23@@Gu@physx@@6B@ 10138680     GuGJKWrapper.obj
 0002:00003690       ??_7?$EPASupportMapPairRelativeImpl@VCapsuleV@Gu@physx@@V123@@Gu@physx@@6B@ 10138690     GuGJKWrapper.obj
 0002:000036a0       ??_7?$EPASupportMapPairRelativeImpl@VCapsuleV@Gu@physx@@VBoxV@23@@Gu@physx@@6B@ 101386a0     GuGJKWrapper.obj
 0002:000036b0       ??_7?$EPASupportMapPairRelativeImpl@VCapsuleV@Gu@physx@@VConvexHullV@23@@Gu@physx@@6B@ 101386b0     GuGJKWrapper.obj
 0002:000036d0       __xmm@ffffffffffffffffffffffff00000000 101386d0     GuVecBox.obj
 0002:000036f0       __real@3089705f            101386f0     GuIntersectionRayBox.obj
 0002:000036f4       __real@b4000000            101386f4     GuIntersectionRayBox.obj
 0002:00003700       __xmm@000000003089705f3089705f3089705f 10138700     GuIntersectionRayBox.obj
 0002:00003710       __xmm@000000003f8000003f8000003f800000 10138710     GuIntersectionRayBox.obj
 0002:00003720       __xmm@00000000400000003f80000000000000 10138720     GuIntersectionRayBox.obj
 0002:00003730       __xmm@0000000040a000004080000040400000 10138730     GuIntersectionRayBox.obj
 0002:00003750       __real@3f7ffffe            10138750     GuIntersectionRayCapsule.obj
 0002:00003770       __xmm@ffffffffffffffff00000000ffffffff 10138770     GuIntersectionTriangleBox.obj
 0002:00003780       ??_C@_0DE@DHOAGBNA@?4?4?2?4?4?2GeomUtils?2src?2mesh?2GuInter@ 10138780     GuInternalTriangleMesh.obj
 0002:000037b8       ??_C@_0FG@PKANIOEJ@Obsolete?5cooked?5mesh?5found?4?5Mesh@ 101387b8     GuInternalTriangleMesh.obj
 0002:00003810       ??_C@_0BP@CDOKDACA@RTree?5binary?5image?5load?5error?4?$AA@ 10138810     GuInternalTriangleMesh.obj
 0002:00003830       ??_C@_0CM@PCALKPID@MeshInterface?3?3SetPointers?3?5poin@ 10138830     GuMeshInterface.obj
 0002:0000385c       ??_C@_0CN@EAJLGEFM@?4?4?2?4?4?2GeomUtils?2src?2mesh?2GuMeshI@ 1013885c     GuMeshInterface.obj
 0002:000038a0       ??_7HfTrianglesEntityReport2@?A0x52559a5e@@6B@ 101388a0     GuMeshQuery.obj
 0002:000038a8       ??_C@_0FD@EHCCILIF@Adjacency?5information?5not?5create@ 101388a8     GuMeshQuery.obj
 0002:000038fc       ??_C@_0CJ@EBMNMENK@?4?4?2?4?4?2GeomUtils?2src?2mesh?2GuMeshQ@ 101388fc     GuMeshQuery.obj
 0002:00003928       __real@4cbebc20            10138928     GuMeshQuery.obj
 0002:00003940       ??_7Callback@RTree@Gu@physx@@6B@ 10138940     GuMidphase.obj
 0002:0000394c       ??_7CallbackRaycast@RTree@Gu@physx@@6B@ 1013894c     GuMidphase.obj
 0002:00003954       ??_7?$RayRTreeCallback@$0A@$0A@@@6BCallbackRaycast@RTree@Gu@physx@@@ 10138954     GuMidphase.obj
 0002:0000395c       ??_7?$RayRTreeCallback@$0A@$0A@@@6BCallback@RTree@Gu@physx@@@ 1013895c     GuMidphase.obj
 0002:00003968       ??_7?$RayRTreeCallback@$00$0A@@@6BCallbackRaycast@RTree@Gu@physx@@@ 10138968     GuMidphase.obj
 0002:00003970       ??_7?$RayRTreeCallback@$00$0A@@@6BCallback@RTree@Gu@physx@@@ 10138970     GuMidphase.obj
 0002:0000397c       ??_7?$RayRTreeCallback@$0A@$00@@6BCallbackRaycast@RTree@Gu@physx@@@ 1013897c     GuMidphase.obj
 0002:00003984       ??_7?$RayRTreeCallback@$0A@$00@@6BCallback@RTree@Gu@physx@@@ 10138984     GuMidphase.obj
 0002:00003990       ??_7?$RayRTreeCallback@$00$00@@6BCallbackRaycast@RTree@Gu@physx@@@ 10138990     GuMidphase.obj
 0002:00003998       ??_7?$RayRTreeCallback@$00$00@@6BCallback@RTree@Gu@physx@@@ 10138998     GuMidphase.obj
 0002:000039b0       __xmm@000000007f7fffff0000000000000000 101389b0     GuMidphase.obj
 0002:000039d0       ??_7ConvexVsMeshOverlapCallback@@6B@ 101389d0     GuOverlapTestsMesh.obj
 0002:000039d8       ??_7?$IntersectAnyVsMeshCallback@$0A@$00@@6B@ 101389d8     GuOverlapTestsMesh.obj
 0002:000039e0       ??_7?$IntersectAnyVsMeshCallback@$0A@$0A@@@6B@ 101389e0     GuOverlapTestsMesh.obj
 0002:000039e8       ??_7?$IntersectAnyVsMeshCallback@$00$00@@6B@ 101389e8     GuOverlapTestsMesh.obj
 0002:000039f0       ??_7?$IntersectAnyVsMeshCallback@$00$0A@@@6B@ 101389f0     GuOverlapTestsMesh.obj
 0002:000039f8       ??_7?$IntersectAnyVsMeshCallback@$01$00@@6B@ 101389f8     GuOverlapTestsMesh.obj
 0002:00003a00       ??_7?$IntersectAnyVsMeshCallback@$01$0A@@@6B@ 10138a00     GuOverlapTestsMesh.obj
 0002:00003a08       __real@3e4ccccd            10138a08     GuOverlapTestsMesh.obj
 0002:00003a0c       ?MN@RTreePage@Gu@physx@@2MB 10138a0c     GuRTree.obj
 0002:00003a10       ?MX@RTreePage@Gu@physx@@2MB 10138a10     GuRTree.obj
 0002:00003a14       ??_C@_0CF@JNCLIKON@?4?4?2?4?4?2GeomUtils?2src?2mesh?2GuRTree@ 10138a14     GuRTree.obj
 0002:00003a50       __xmm@33d6bf9533d6bf9533d6bf9533d6bf95 10138a50     GuRTreeQueries.obj
 0002:00003a60       __xmm@358637bd358637bd358637bd358637bd 10138a60     GuRTreeQueries.obj
 0002:00003a70       __xmm@3f0000003f0000003f0000003f000000 10138a70     GuRTreeQueries.obj
 0002:00003a90       ??_7SweepCapsuleCallback@@6B@ 10138a90     GuSweepsMesh.obj
 0002:00003a98       ??_7SweepBoxMeshHitCallback@@6B@ 10138a98     GuSweepsMesh.obj
 0002:00003aa0       ??_7ConvexVsMeshSweepCallback@@6B@ 10138aa0     GuSweepsMesh.obj
 0002:00003aa8       __real@1e3ce508            10138aa8     GuSweepsMesh.obj
 0002:00003aac       __real@3f8147ae            10138aac     GuSweepsMesh.obj
 0002:00003ab0       ??_C@_0DF@DNLKAHAL@Gu?3?3TriangleMesh?3?3release?3?5doubl@ 10138ab0     GuTriangleMesh.obj
 0002:00003ae8       ??_C@_0CM@OEFFOGD@?4?4?2?4?4?2GeomUtils?2src?2mesh?2GuTrian@ 10138ae8     GuTriangleMesh.obj
 0002:00003b18       ??_C@_0GP@NHELMDAL@Loading?5triangle?5mesh?5failed?3?5De@ 10138b18     GuTriangleMesh.obj
 0002:00003b90       __xmm@880000888800880088880000ff808080 10138b90     GuTriangleMesh.obj
 0002:00003ba0       __xmm@ff0000ffff00ff00ffff0000ff000000 10138ba0     GuTriangleMesh.obj
 0002:00003bb0       __xmm@ffffffffff00ffffffff00ffffffff00 10138bb0     GuTriangleMesh.obj
 0002:00003bc0       ??_7PxHeightField@physx@@6B@ 10138bc0     GuHeightField.obj
 0002:00003c08       ??_7HeightField@Gu@physx@@6BPxHeightField@2@@ 10138c08     GuHeightField.obj
 0002:00003c58       ??_7HeightField@Gu@physx@@6BRefCountable@Cm@2@@ 10138c58     GuHeightField.obj
 0002:00003c60       ??_C@_0DL@DNGFPCEG@Gu?3?3HeightField?3?3onRefCountZero?3@ 10138c60     GuHeightField.obj
 0002:00003c9c       ??_C@_0CJ@ECCFDMLB@?4?4?2?4?4?2GeomUtils?2src?2hf?2GuHeightF@ 10138c9c     GuHeightField.obj
 0002:00003cc8       ??_C@_0CI@DMKEKGNK@Gu?3?3HeightField?3?3load?3?5PX_ALLOC?5@ 10138cc8     GuHeightField.obj
 0002:00003cf0       ??_C@_0EL@KGPGOMAJ@C?3?2CPSC?2CPSC585?2PhysX3_3_4?2PhysX@ 10138cf0     GuHeightField.obj
 0002:00003d78       __real@2edbe6ff            10138d78     GuOverlapTestsHF.obj
 0002:00003d7c       __real@33d6bf95            10138d7c     GuOverlapTestsHF.obj
 0002:00003d80       __real@b8d1b717            10138d80     GuOverlapTestsHF.obj
 0002:00003da0       ??_7CapsuleTraceSegmentReport@@6B@ 10138da0     GuSweepsHF.obj
 0002:00003da8       ??_7ConvexVsHeightfieldSweep@@6B@ 10138da8     GuSweepsHF.obj
 0002:00003db0       ??_7BoxTraceSegmentReport@@6B@ 10138db0     GuSweepsHF.obj
 0002:00003db8       __real@3f800347            10138db8     GuSweepsHF.obj
 0002:00003dd0       __real@3f4ccccd            10138dd0     GuPCMContactBoxBox.obj
 0002:00003de0       __xmm@00000000358637bd358637bd358637bd 10138de0     GuPCMContactBoxBox.obj
 0002:00003df0       __xmm@ffffffff00000000ffffffffffffffff 10138df0     GuPCMContactBoxBox.obj
 0002:00003e10       ??_7SupportLocal@Gu@physx@@6B@ 10138e10     GuPCMContactBoxConvex.obj
 0002:00003e20       ??_7?$SupportLocalImpl@VBoxV@Gu@physx@@@Gu@physx@@6B@ 10138e20     GuPCMContactBoxConvex.obj
 0002:00003e30       ??_7?$SupportLocalImpl@VConvexHullV@Gu@physx@@@Gu@physx@@6B@ 10138e30     GuPCMContactBoxConvex.obj
 0002:00003e40       ??_7?$SupportLocalImpl@VConvexHullNoScaleV@Gu@physx@@@Gu@physx@@6B@ 10138e40     GuPCMContactBoxConvex.obj
 0002:00003e70       __real@3fa00000            10138e70     GuPCMContactCapsuleConvex.obj
 0002:00003e90       ??_7?$PCMHeightfieldContactGenerationCallback@UPCMCapsuleVsHeightfieldContactGenerationCallback@physx@@@Gu@physx@@6B@ 10138e90     GuPCMContactCapsuleHeightField.obj
 0002:00003e98       ??_7PCMCapsuleVsHeightfieldContactGenerationCallback@physx@@6B@ 10138e98     GuPCMContactCapsuleHeightField.obj
 0002:00003ea0       __real@3f7ef9db            10138ea0     GuPCMContactCapsuleHeightField.obj
 0002:00003ea4       __real@3f7f3b64            10138ea4     GuPCMContactCapsuleHeightField.obj
 0002:00003ea8       __real@3f7ff2e5            10138ea8     GuPCMContactCapsuleHeightField.obj
 0002:00003ec0       ??_7?$PCMMeshContactGenerationCallback@UPCMCapsuleVsMeshContactGenerationCallback@physx@@@Gu@physx@@6B@ 10138ec0     GuPCMContactCapsuleMesh.obj
 0002:00003ec8       ??_7PCMCapsuleVsMeshContactGenerationCallback@physx@@6B@ 10138ec8     GuPCMContactCapsuleMesh.obj
 0002:00003ee0       ??_7?$SupportLocalImpl@VTriangleV@Gu@physx@@@Gu@physx@@6B@ 10138ee0     GuPCMContactConvexCommon.obj
 0002:00003f10       ??_7?$PCMHeightfieldContactGenerationCallback@UPCMConvexVsHeightfieldContactGenerationCallback@physx@@@Gu@physx@@6B@ 10138f10     GuPCMContactConvexHeightField.obj
 0002:00003f18       ??_7PCMConvexVsHeightfieldContactGenerationCallback@physx@@6B@ 10138f18     GuPCMContactConvexHeightField.obj
 0002:00003f20       ??_7?$SupportLocalShrunkImpl@VConvexHullNoScaleV@Gu@physx@@VShrunkConvexHullNoScaleV@23@@Gu@physx@@6B@ 10138f20     GuPCMContactConvexHeightField.obj
 0002:00003f30       ??_7?$SupportLocalShrunkImpl@VConvexHullV@Gu@physx@@VShrunkConvexHullV@23@@Gu@physx@@6B@ 10138f30     GuPCMContactConvexHeightField.obj
 0002:00003f40       ??_7?$SupportLocalShrunkImpl@VBoxV@Gu@physx@@VShrunkBoxV@23@@Gu@physx@@6B@ 10138f40     GuPCMContactConvexHeightField.obj
 0002:00003f50       __real@3f19999a            10138f50     GuPCMContactConvexHeightField.obj
 0002:00003f70       ??_7?$PCMMeshContactGenerationCallback@UPCMConvexVsMeshContactGenerationCallback@physx@@@Gu@physx@@6B@ 10138f70     GuPCMContactConvexMesh.obj
 0002:00003f78       ??_7PCMConvexVsMeshContactGenerationCallback@physx@@6B@ 10138f78     GuPCMContactConvexMesh.obj
 0002:00003fa0       __real@3ba3d70a            10138fa0     GuPCMContactGenSphereCapsule.obj
 0002:00003ff0       ??_7?$EPASupportMapPairLocalImpl@VCapsuleV@Gu@physx@@VConvexHullNoScaleV@23@@Gu@physx@@6B@ 10138ff0     GuPCMContactSphereConvex.obj
 0002:00004010       ??_7?$PCMHeightfieldContactGenerationCallback@UPCMSphereVsHeightfieldContactGenerationCallback@physx@@@Gu@physx@@6B@ 10139010     GuPCMContactSphereHeightField.obj
 0002:00004018       ??_7PCMSphereVsHeightfieldContactGenerationCallback@physx@@6B@ 10139018     GuPCMContactSphereHeightField.obj
 0002:00004030       ??_7?$PCMMeshContactGenerationCallback@UPCMSphereVsMeshContactGenerationCallback@physx@@@Gu@physx@@6B@ 10139030     GuPCMContactSphereMesh.obj
 0002:00004038       ??_7PCMSphereVsMeshContactGenerationCallback@physx@@6B@ 10139038     GuPCMContactSphereMesh.obj
 0002:00004040       ?gPCMBoxPolygonData@Gu@physx@@3QBEB 10139040     GuPCMShapeConvex.obj
 0002:00004080       __real@3f350481            10139080     GuPCMTriangleContactGen.obj
 0002:00004090       ?invalidateThresholds@Gu@physx@@3QBMB 10139090     GuPersistentContactManifold.obj
 0002:000040a4       ?invalidateQuatThresholds@Gu@physx@@3QBMB 101390a4     GuPersistentContactManifold.obj
 0002:000040b8       ?invalidateThresholds2@Gu@physx@@3QBMB 101390b8     GuPersistentContactManifold.obj
 0002:000040c4       ?invalidateQuatThresholds2@Gu@physx@@3QBMB 101390c4     GuPersistentContactManifold.obj
 0002:000040e0       __xmm@000000003f8000003f80000000000000 101390e0     GuPersistentContactManifold.obj
 0002:000040f0       __xmm@00000000bf8000003f80000000000000 101390f0     GuPersistentContactManifold.obj
 0002:00004110       ??_C@_0CF@CNOODDND@?4?4?2?4?4?2GeomUtils?2src?2GuBoxPruning@ 10139110     GuBoxPruning.obj
 0002:00004160       ??_7LocalReport@?1??sweepCCTBox_HeightFieldGeom@@YA_NABVPxGeometry@physx@@ABVPxTransform@3@ABVBox@Gu@3@ABVPxVec3@3@MAAUPxSweepHit@3@V?$PxFlags@W4Enum@PxHitFlag@physx@@G@3@M@Z@6B@ 10139160     GuCCTSweepTests.obj
 0002:00004168       ??_C@_0CO@ONBCOPNE@?4?4?2?4?4?2GeomUtils?2src?2GuContainerM@ 10139168     GuContainerMemoryMgmt.obj
 0002:00004198       ??_C@_0CA@DBEAEKMC@?4?4?2?4?4?2GeomUtils?2src?2GuDebug?4cpp?$AA@ 10139198     GuDebug.obj
 0002:000041b8       __real@41a00000            101391b8     GuDebug.obj
 0002:000041d0       ??_C@_0FF@IKIPBFAH@c?3?2cpsc?2cpsc585?2physx3_3_4?2physx@ 101391d0     GuGeometryQuery.obj
 0002:00004240       ??_C@_0CG@GABGHALN@?4?4?2?4?4?2GeomUtils?2src?2GuMeshFactor@ 10139240     GuMeshFactory.obj
 0002:00004268       ??_C@_07GFCEJNGM@Valency?$AA@ 10139268     GuMetaData.obj
 0002:00004270       ??_C@_07NHGKEEIN@mOffset?$AA@ 10139270     GuMetaData.obj
 0002:00004278       ??_C@_0BB@BAGHBMNJ@BigConvexRawData?$AA@ 10139278     GuMetaData.obj
 0002:0000428c       ??_C@_07PBDEJAAC@mSubdiv?$AA@ 1013928c     GuMetaData.obj
 0002:00004294       ??_C@_0L@HNPACPGH@mNbSamples?$AA@ 10139294     GuMetaData.obj
 0002:000042a0       ??_C@_04NCKNBPPK@PxU8?$AA@ 101392a0     GuMetaData.obj
 0002:000042a8       ??_C@_08DEPEKJNI@mSamples?$AA@ 101392a8     GuMetaData.obj
 0002:000042b4       ??_C@_05LMJPANIN@PxU32?$AA@ 101392b4     GuMetaData.obj
 0002:000042bc       ??_C@_08IJDNJBMI@mNbVerts?$AA@ 101392bc     GuMetaData.obj
 0002:000042c8       ??_C@_0M@MMKMIJAF@mNbAdjVerts?$AA@ 101392c8     GuMetaData.obj
 0002:000042d4       ??_C@_0L@EOKMNILC@mValencies?$AA@ 101392d4     GuMetaData.obj
 0002:000042e0       ??_C@_0P@DLGEAMHJ@mAdjacentVerts?$AA@ 101392e0     GuMetaData.obj
 0002:000042f0       ??_C@_0O@PFOPBKAM@BigConvexData?$AA@ 101392f0     GuMetaData.obj
 0002:00004300       ??_C@_05PLKALGFN@mData?$AA@ 10139300     GuMetaData.obj
 0002:00004308       ??_C@_08PEMCLHEM@mVBuffer?$AA@ 10139308     GuMetaData.obj
 0002:00004314       ??_C@_09FBMAGD@Alignment?$AA@ 10139314     GuMetaData.obj
 0002:00004320       ??_C@_0BE@KFHIBEEA@InternalObjectsData?$AA@ 10139320     GuMetaData.obj
 0002:00004334       ??_C@_06GIEBFILM@PxReal?$AA@ 10139334     GuMetaData.obj
 0002:0000433c       ??_C@_07NKGFFIBH@mRadius?$AA@ 1013933c     GuMetaData.obj
 0002:00004344       ??_C@_08EHFCACAE@mExtents?$AA@ 10139344     GuMetaData.obj
 0002:00004350       ??_C@_0BA@LFMGGCBK@HullPolygonData?$AA@ 10139350     GuMetaData.obj
 0002:00004360       ??_C@_06BOHHGLB@mPlane?$AA@ 10139360     GuMetaData.obj
 0002:00004368       ??_C@_06EHMLHGLN@mVRef8?$AA@ 10139368     GuMetaData.obj
 0002:00004370       ??_C@_09BAHHHINI@mMinIndex?$AA@ 10139370     GuMetaData.obj
 0002:0000437c       ??_C@_0P@GBLBPIPB@ConvexHullData?$AA@ 1013937c     GuMetaData.obj
 0002:0000438c       ??_C@_09JDCJAPKD@PxBounds3?$AA@ 1013938c     GuMetaData.obj
 0002:00004398       ??_C@_05NDNHIFA@mAABB?$AA@ 10139398     GuMetaData.obj
 0002:000043a0       ??_C@_06KDGGGLIJ@PxVec3?$AA@ 101393a0     GuMetaData.obj
 0002:000043a8       ??_C@_0O@LNOGEMJI@mCenterOfMass?$AA@ 101393a8     GuMetaData.obj
 0002:000043b8       ??_C@_09CNMCBBKH@mPolygons?$AA@ 101393b8     GuMetaData.obj
 0002:000043c4       ??_C@_0BC@KKPDCFJC@mBigConvexRawData?$AA@ 101393c4     GuMetaData.obj
 0002:000043d8       ??_C@_08ELDMKGKH@mNbEdges?$AA@ 101393d8     GuMetaData.obj
 0002:000043e4       ??_C@_0BA@CGLOHBAC@mNbHullVertices?$AA@ 101393e4     GuMetaData.obj
 0002:000043f4       ??_C@_0M@HGFFLLDM@mNbPolygons?$AA@ 101393f4     GuMetaData.obj
 0002:00004400       ??_C@_09BHJEMDGO@mInternal?$AA@ 10139400     GuMetaData.obj
 0002:0000440c       ??_C@_0L@GMFHOMKA@ConvexMesh?$AA@ 1013940c     GuMetaData.obj
 0002:00004418       ??_C@_0N@KECKKFLK@RefCountable?$AA@ 10139418     GuMetaData.obj
 0002:00004428       ??_C@_09ILEBDLJH@mHullData?$AA@ 10139428     GuMetaData.obj
 0002:00004434       ??_C@_03DKDIKGNC@mNb?$AA@  10139434     GuMetaData.obj
 0002:00004438       ??_C@_0P@ENLHFHMD@mBigConvexData?$AA@ 10139438     GuMetaData.obj
 0002:00004448       ??_C@_05ILALLCHK@mMass?$AA@ 10139448     GuMetaData.obj
 0002:00004450       ??_C@_07DBPDADGB@PxMat33?$AA@ 10139450     GuMetaData.obj
 0002:00004458       ??_C@_08FNBHNDBI@mInertia?$AA@ 10139458     GuMetaData.obj
 0002:00004464       ??_C@_0O@FCKNKLMJ@GuMeshFactory?$AA@ 10139464     GuMetaData.obj
 0002:00004474       ??_C@_0N@EGBCLMAK@mMeshFactory?$AA@ 10139474     GuMetaData.obj
 0002:00004484       ??_C@_0BE@CJJAMAMK@PxHeightFieldSample?$AA@ 10139484     GuMetaData.obj
 0002:00004498       ??_C@_05MBLIPEMA@PxI16?$AA@ 10139498     GuMetaData.obj
 0002:000044a0       ??_C@_06LNLHEAAG@height?$AA@ 101394a0     GuMetaData.obj
 0002:000044a8       ??_C@_0N@HHDGHJN@PxBitAndByte?$AA@ 101394a8     GuMetaData.obj
 0002:000044b8       ??_C@_0P@MBBMLBO@materialIndex0?$AA@ 101394b8     GuMetaData.obj
 0002:000044c8       ??_C@_0P@BFAKPKFP@materialIndex1?$AA@ 101394c8     GuMetaData.obj
 0002:000044d8       ??_C@_0BD@EBLPJEOE@PxHeightFieldFlags?$AA@ 101394d8     GuMetaData.obj
 0002:000044ec       ??_C@_0BK@FNNCFFCN@PxHeightFieldFormat?3?3Enum?$AA@ 101394ec     GuMetaData.obj
 0002:00004508       ??_C@_0BA@CLNFMAAA@HeightFieldData?$AA@ 10139508     GuMetaData.obj
 0002:00004518       ??_C@_04IMCGAIPI@rows?$AA@ 10139518     GuMetaData.obj
 0002:00004520       ??_C@_07HIFEPIJN@columns?$AA@ 10139520     GuMetaData.obj
 0002:00004528       ??_C@_08MOAGOABI@rowLimit?$AA@ 10139528     GuMetaData.obj
 0002:00004534       ??_C@_08BAGEHOBO@colLimit?$AA@ 10139534     GuMetaData.obj
 0002:00004540       ??_C@_09LKDBLADF@nbColumns?$AA@ 10139540     GuMetaData.obj
 0002:0000454c       ??_C@_07ODIFGGLK@samples?$AA@ 1013954c     GuMetaData.obj
 0002:00004554       ??_C@_09GLPKLBIH@thickness?$AA@ 10139554     GuMetaData.obj
 0002:00004560       ??_C@_0BE@POHEGOJG@convexEdgeThreshold?$AA@ 10139560     GuMetaData.obj
 0002:00004574       ??_C@_05GECEPKB@flags?$AA@ 10139574     GuMetaData.obj
 0002:0000457c       ??_C@_06DLEPGFEF@format?$AA@ 1013957c     GuMetaData.obj
 0002:00004584       ??_C@_0L@NDMBOBEK@rowsPadded?$AA@ 10139584     GuMetaData.obj
 0002:00004590       ??_C@_0O@LADHJMOF@columnsPadded?$AA@ 10139590     GuMetaData.obj
 0002:000045a0       ??_C@_06JEAOGIEO@tilesU?$AA@ 101395a0     GuMetaData.obj
 0002:000045a8       ??_C@_06LPCDDLIN@tilesV?$AA@ 101395a8     GuMetaData.obj
 0002:000045b0       ??_C@_0BF@MOGDNMPL@PxMaterialTableIndex?$AA@ 101395b0     GuMetaData.obj
 0002:000045c8       ??_C@_0M@JMJICJJO@HeightField?$AA@ 101395c8     GuMetaData.obj
 0002:000045d4       ??_C@_0O@ENGHMLJP@mSampleStride?$AA@ 101395d4     GuMetaData.obj
 0002:000045e4       ??_C@_0L@EBEEMFFB@mMinHeight?$AA@ 101395e4     GuMetaData.obj
 0002:000045f0       ??_C@_0L@EAEIFPOF@mMaxHeight?$AA@ 101395f0     GuMetaData.obj
 0002:000045fc       ??_C@_0O@PDJPGKCH@LeafTriangles?$AA@ 101395fc     GuMetaData.obj
 0002:0000460c       ??_C@_04DICKPMGH@Data?$AA@ 1013960c     GuMetaData.obj
 0002:00004614       ??_C@_0O@PEJLJCAI@MeshInterface?$AA@ 10139614     GuMetaData.obj
 0002:00004624       ??_C@_07MPIKOOAP@mNbTris?$AA@ 10139624     GuMetaData.obj
 0002:0000462c       ??_C@_05LFOGJJFO@mTris?$AA@ 1013962c     GuMetaData.obj
 0002:00004634       ??_C@_06JFCLJMNN@mVerts?$AA@ 10139634     GuMetaData.obj
 0002:0000463c       ??_C@_0BB@MBAOOMGA@mHas16BitIndices?$AA@ 1013963c     GuMetaData.obj
 0002:00004650       ??_C@_0O@PGJOBDM@RTreeMidphase?$AA@ 10139650     GuMetaData.obj
 0002:00004660       ??_C@_06PHKNPKGP@mIMesh?$AA@ 10139660     GuMetaData.obj
 0002:00004668       ??_C@_0N@MGIKKCI@mGeomEpsilon?$AA@ 10139668     GuMetaData.obj
 0002:00004678       ??_C@_05FFEIGAJF@RTree?$AA@ 10139678     GuMetaData.obj
 0002:00004680       ??_C@_06JDIHDDGN@mRTree?$AA@ 10139680     GuMetaData.obj
 0002:00004688       ??_C@_09PHDKHCK@RTreePage?$AA@ 10139688     GuMetaData.obj
 0002:00004694       ??_C@_04LLPOBGED@minx?$AA@ 10139694     GuMetaData.obj
 0002:0000469c       ??_C@_04KCOFCHAC@miny?$AA@ 1013969c     GuMetaData.obj
 0002:000046a4       ??_C@_04IJMIHEMB@minz?$AA@ 101396a4     GuMetaData.obj
 0002:000046ac       ??_C@_04GGOBOBGO@maxx?$AA@ 101396ac     GuMetaData.obj
 0002:000046b4       ??_C@_04HPPKNACP@maxy?$AA@ 101396b4     GuMetaData.obj
 0002:000046bc       ??_C@_04FENHIDOM@maxz?$AA@ 101396bc     GuMetaData.obj
 0002:000046c4       ??_C@_04HHDFEJON@ptrs?$AA@ 101396c4     GuMetaData.obj
 0002:000046cc       ??_C@_06OMCHPNEO@PxVec4?$AA@ 101396cc     GuMetaData.obj
 0002:000046d4       ??_C@_0L@NBIFEFLN@mBoundsMin?$AA@ 101396d4     GuMetaData.obj
 0002:000046e0       ??_C@_0L@MDAOKBNC@mBoundsMax?$AA@ 101396e0     GuMetaData.obj
 0002:000046ec       ??_C@_0N@NJEHLCOF@mInvDiagonal?$AA@ 101396ec     GuMetaData.obj
 0002:000046fc       ??_C@_0BA@BEFIGPFG@mDiagonalScaler?$AA@ 101396fc     GuMetaData.obj
 0002:0000470c       ??_C@_09DICGGKGO@mPageSize?$AA@ 1013970c     GuMetaData.obj
 0002:00004718       ??_C@_0O@BOFFCNOL@mNumRootPages?$AA@ 10139718     GuMetaData.obj
 0002:00004728       ??_C@_0L@JKLGBKAE@mNumLevels?$AA@ 10139728     GuMetaData.obj
 0002:00004734       ??_C@_0M@PHDOHJGK@mTotalNodes?$AA@ 10139734     GuMetaData.obj
 0002:00004740       ??_C@_0M@GDGHALAO@mTotalPages?$AA@ 10139740     GuMetaData.obj
 0002:0000474c       ??_C@_07JFBFPKGD@mUnused?$AA@ 1013974c     GuMetaData.obj
 0002:00004754       ??_C@_06MHCBBJGP@mFlags?$AA@ 10139754     GuMetaData.obj
 0002:0000475c       ??_C@_06MMNBLHOK@mPages?$AA@ 1013975c     GuMetaData.obj
 0002:00004764       ??_C@_0BJ@CCMJAMJI@InternalTriangleMeshData?$AA@ 10139764     GuMetaData.obj
 0002:00004780       ??_C@_0N@EONCGABL@mNumVertices?$AA@ 10139780     GuMetaData.obj
 0002:00004790       ??_C@_0O@NLHMFGBI@mNumTriangles?$AA@ 10139790     GuMetaData.obj
 0002:000047a0       ??_C@_09LNNEGOJA@mVertices?$AA@ 101397a0     GuMetaData.obj
 0002:000047ac       ??_C@_0L@KBOFAKLO@mTriangles?$AA@ 101397ac     GuMetaData.obj
 0002:000047b8       ??_C@_0P@MHDFIHLD@mExtraTrigData?$AA@ 101397b8     GuMetaData.obj
 0002:000047c8       ??_C@_0BA@BEEAIDOP@mCollisionModel?$AA@ 101397c8     GuMetaData.obj
 0002:000047d8       ??_C@_0BF@LJKJIEBP@InternalTriangleMesh?$AA@ 101397d8     GuMetaData.obj
 0002:000047f0       ??_C@_0BB@IFLOOCNA@mMaterialIndices?$AA@ 101397f0     GuMetaData.obj
 0002:00004804       ??_C@_0L@OPJMBFMI@mFaceRemap?$AA@ 10139804     GuMetaData.obj
 0002:00004810       ??_C@_0N@BIOECAPM@mAdjacencies?$AA@ 10139810     GuMetaData.obj
 0002:00004820       ??_C@_0BA@ICGEFMNF@mNumAdjacencies?$AA@ 10139820     GuMetaData.obj
 0002:00004830       ??_C@_0BF@GBKBIGOB@mConvexEdgeThreshold?$AA@ 10139830     GuMetaData.obj
 0002:00004848       ??_C@_0P@EMMDNPMH@mMeshInterface?$AA@ 10139848     GuMetaData.obj
 0002:00004858       ??_C@_0N@OJNNNLIB@TriangleMesh?$AA@ 10139858     GuMetaData.obj
 0002:00004868       ??_C@_05KNFPOOLH@mMesh?$AA@ 10139868     GuMetaData.obj
 0002:00004870       ??_C@_0BG@EAPGHGEI@MaterialIndicesStruct?$AA@ 10139870     GuMetaData.obj
 0002:00004888       ??_C@_07OKCKIPNN@indices?$AA@ 10139888     GuMetaData.obj
 0002:00004890       ??_C@_0L@KCBHBGBP@numIndices?$AA@ 10139890     GuMetaData.obj
 0002:0000489c       ??_C@_03PNAAIPML@pad?$AA@  1013989c     GuMetaData.obj
 0002:000048a0       ??_C@_0BJ@LIOOOKID@ShadowConvexMeshGeometry?$AA@ 101398a0     GuMetaData.obj
 0002:000048bc       ??_C@_0BF@PJFPGDNP@PxGeometryType?3?3Enum?$AA@ 101398bc     GuMetaData.obj
 0002:000048d4       ??_C@_05GNIIDDHH@mType?$AA@ 101398d4     GuMetaData.obj
 0002:000048dc       ??_C@_0M@JFNDEGCE@PxMeshScale?$AA@ 101398dc     GuMetaData.obj
 0002:000048e8       ??_C@_05MHMEBBGO@scale?$AA@ 101398e8     GuMetaData.obj
 0002:000048f0       ??_C@_0L@OKMLGDHH@convexMesh?$AA@ 101398f0     GuMetaData.obj
 0002:000048fc       ??_C@_08CICKEKCM@hullData?$AA@ 101398fc     GuMetaData.obj
 0002:00004908       ??_C@_0BE@FFPGAPHN@PxMeshGeometryFlags?$AA@ 10139908     GuMetaData.obj
 0002:0000491c       ??_C@_0BL@KABFLNEB@ShadowTriangleMeshGeometry?$AA@ 1013991c     GuMetaData.obj
 0002:00004938       ??_C@_09PLMNFMJI@meshFlags?$AA@ 10139938     GuMetaData.obj
 0002:00004944       ??_C@_0BB@EINMAHMD@paddingFromFlags?$AA@ 10139944     GuMetaData.obj
 0002:00004958       ??_C@_0N@FKKDJAHE@triangleMesh?$AA@ 10139958     GuMetaData.obj
 0002:00004968       ??_C@_08BEABJAHJ@meshData?$AA@ 10139968     GuMetaData.obj
 0002:00004974       ??_C@_0BA@NGIONHFJ@materialIndices?$AA@ 10139974     GuMetaData.obj
 0002:00004984       ??_C@_09JGGNEAGH@materials?$AA@ 10139984     GuMetaData.obj
 0002:00004990       ??_C@_0BK@OIFEOHNJ@ShadowHeightFieldGeometry?$AA@ 10139990     GuMetaData.obj
 0002:000049ac       ??_C@_0M@IEKJPCGG@heightField?$AA@ 101399ac     GuMetaData.obj
 0002:000049b8       ??_C@_0M@LHLNPPJ@heightScale?$AA@ 101399b8     GuMetaData.obj
 0002:000049c4       ??_C@_08GJPCBGLE@rowScale?$AA@ 101399c4     GuMetaData.obj
 0002:000049d0       ??_C@_0M@HHBHEPCE@columnScale?$AA@ 101399d0     GuMetaData.obj
 0002:000049dc       ??_C@_0BB@PMIIHDKK@heightFieldFlags?$AA@ 101399dc     GuMetaData.obj
 0002:000049f0       ??_C@_0BA@DMOKLLHN@heightFieldData?$AA@ 101399f0     GuMetaData.obj
 0002:00004a00       ??_C@_0BE@IKADPPC@ShadowPlaneGeometry?$AA@ 10139a00     GuMetaData.obj
 0002:00004a14       ??_C@_0BF@PIKLLBGN@ShadowSphereGeometry?$AA@ 10139a14     GuMetaData.obj
 0002:00004a2c       ??_C@_06KGHINEPG@radius?$AA@ 10139a2c     GuMetaData.obj
 0002:00004a34       ??_C@_0BG@OBHJHKMO@ShadowCapsuleGeometry?$AA@ 10139a34     GuMetaData.obj
 0002:00004a4c       ??_C@_0L@PMAANELH@halfHeight?$AA@ 10139a4c     GuMetaData.obj
 0002:00004a58       ??_C@_0BC@DMJNHLLO@ShadowBoxGeometry?$AA@ 10139a58     GuMetaData.obj
 0002:00004a6c       ??_C@_0M@CMAEPJOI@halfExtents?$AA@ 10139a6c     GuMetaData.obj
 0002:00004a78       ??_C@_0BH@PKALDLFA@PxConvexMeshGeometryLL?$AA@ 10139a78     GuMetaData.obj
 0002:00004a90       ??_C@_0BJ@GAFBNAAE@PxTriangleMeshGeometryLL?$AA@ 10139a90     GuMetaData.obj
 0002:00004aac       ??_C@_0BI@IIFLCNOC@PxHeightFieldGeometryLL?$AA@ 10139aac     GuMetaData.obj
 0002:00004ac4       ??_C@_0BA@NAHKMBFO@PxPlaneGeometry?$AA@ 10139ac4     GuMetaData.obj
 0002:00004ad4       ??_C@_0BB@CHBDIEFA@PxSphereGeometry?$AA@ 10139ad4     GuMetaData.obj
 0002:00004ae8       ??_C@_0BC@LJMOIOOK@PxCapsuleGeometry?$AA@ 10139ae8     GuMetaData.obj
 0002:00004afc       ??_C@_0O@OEDJDNFP@PxBoxGeometry?$AA@ 10139afc     GuMetaData.obj
 0002:00004b0c       ??_C@_0BC@ICOOCLFG@Gu?3?3GeometryUnion?$AA@ 10139b0c     GuMetaData.obj
 0002:00004b30       ??_C@_0DG@DFOCGHP@Gu?3?3GeometryUnion?3?3computeBounds@ 10139b30     GuObjectBounds.obj
 0002:00004b68       ??_C@_0CH@NCDKBGFJ@?4?4?2?4?4?2GeomUtils?2src?2GuObjectBoun@ 10139b68     GuObjectBounds.obj
 0002:00004b90       __real@3f400000            10139b90     GuObjectBounds.obj
 0002:00004b94       __real@3f7fffef            10139b94     GuObjectBounds.obj
 0002:00004b98       __real@7e7fffff            10139b98     GuObjectBounds.obj
 0002:00004b9c       __real@fe7fffff            10139b9c     GuObjectBounds.obj
 0002:00004ba0       ??_C@_0EC@MLIJOGHA@Height?5Field?5Overlap?5test?5called@ 10139ba0     GuOverlapTests.obj
 0002:00004be4       ??_C@_0CH@MIKFAPPP@?4?4?2?4?4?2GeomUtils?2src?2GuOverlapTes@ 10139be4     GuOverlapTests.obj
 0002:00004c30       ??_7RayMeshColliderCallback@@6B@ 10139c30     GuRaycastTests.obj
 0002:00004c38       __real@3f1a36e2eb1c432d    10139c38     GuRaycastTests.obj
 0002:00004c40       __real@501502f9            10139c40     GuRaycastTests.obj
 0002:00004c44       __real@b3d6bf95            10139c44     GuRaycastTests.obj
 0002:00004c48       __real@be7ad7f29abcaf48    10139c48     GuRaycastTests.obj
 0002:00004c50       ??_7RadixSort@Gu@physx@@6B@ 10139c50     GuRevisitedRadix.obj
 0002:00004c60       __xmm@00000001000000010000000100000001 10139c60     GuRevisitedRadix.obj
 0002:00004c70       __xmm@00000003000000020000000100000000 10139c70     GuRevisitedRadix.obj
 0002:00004c80       ??_7RadixSortBuffered@Gu@physx@@6B@ 10139c80     GuRevisitedRadixBuffered.obj
 0002:00004c84       ??_C@_0DB@NDPHLCHA@?4?4?2?4?4?2GeomUtils?2src?2GuRevisitedR@ 10139c84     GuRevisitedRadixBuffered.obj
 0002:00004cd0       ??_7MeshMTDGenerationCallback@@6B@ 10139cd0     GuSweepMTD.obj
 0002:00004cd8       ??_7MidPhaseQueryLocalReport@@6B@ 10139cd8     GuSweepMTD.obj
 0002:00004ce0       __real@3f933333            10139ce0     GuSweepMTD.obj
 0002:00004cf0       __xmm@00000000000000003f8000003f800000 10139cf0     GuSweepMTD.obj
 0002:00004d24       ??_7type_info@@6B@         10139d24     MSVCRT:std_type_info_static.obj
 0002:00004db4       __pRawDllMain              10139db4     MSVCRT:dll_dllmain.obj
 0002:00004db4       __pDefaultRawDllMain       10139db4     MSVCRT:dll_dllmain.obj
 0002:00004dbc       ??_7exception@std@@6B@     10139dbc     MSVCRT:throw_bad_alloc.obj
 0002:00004dc4       ??_C@_0BC@EOODALEL@Unknown?5exception?$AA@ 10139dc4     MSVCRT:throw_bad_alloc.obj
 0002:00004ddc       ??_7bad_alloc@std@@6B@     10139ddc     MSVCRT:throw_bad_alloc.obj
 0002:00004de4       ??_C@_0P@GHFPNOJB@bad?5allocation?$AA@ 10139de4     MSVCRT:throw_bad_alloc.obj
 0002:00004df8       ??_7bad_array_new_length@std@@6B@ 10139df8     MSVCRT:throw_bad_alloc.obj
 0002:00004e00       ??_C@_0BF@KINCDENJ@bad?5array?5new?5length?$AA@ 10139e00     MSVCRT:throw_bad_alloc.obj
 0002:00004e78       __load_config_used         10139e78     MSVCRT:loadcfg.obj
 0002:00004ed4       ??_R4type_info@@6B@        10139ed4     MSVCRT:std_type_info_static.obj
 0002:00004ee8       ??_R3type_info@@8          10139ee8     MSVCRT:std_type_info_static.obj
 0002:00004ef8       ??_R2type_info@@8          10139ef8     MSVCRT:std_type_info_static.obj
 0002:00004f00       ??_R1A@?0A@EA@type_info@@8 10139f00     MSVCRT:std_type_info_static.obj
 0002:00004f1c       ??_R4exception@std@@6B@    10139f1c     MSVCRT:throw_bad_alloc.obj
 0002:00004f30       ??_R3exception@std@@8      10139f30     MSVCRT:throw_bad_alloc.obj
 0002:00004f40       ??_R2exception@std@@8      10139f40     MSVCRT:throw_bad_alloc.obj
 0002:00004f48       ??_R1A@?0A@EA@exception@std@@8 10139f48     MSVCRT:throw_bad_alloc.obj
 0002:00004f64       ??_R4bad_alloc@std@@6B@    10139f64     MSVCRT:throw_bad_alloc.obj
 0002:00004f78       ??_R3bad_alloc@std@@8      10139f78     MSVCRT:throw_bad_alloc.obj
 0002:00004f88       ??_R2bad_alloc@std@@8      10139f88     MSVCRT:throw_bad_alloc.obj
 0002:00004f94       ??_R1A@?0A@EA@bad_alloc@std@@8 10139f94     MSVCRT:throw_bad_alloc.obj
 0002:00004fb0       ??_R4bad_array_new_length@std@@6B@ 10139fb0     MSVCRT:throw_bad_alloc.obj
 0002:00004fc4       ??_R3bad_array_new_length@std@@8 10139fc4     MSVCRT:throw_bad_alloc.obj
 0002:00004fd4       ??_R2bad_array_new_length@std@@8 10139fd4     MSVCRT:throw_bad_alloc.obj
 0002:00004fe4       ??_R1A@?0A@EA@bad_array_new_length@std@@8 10139fe4     MSVCRT:throw_bad_alloc.obj
 0002:00005000       ___safe_se_handler_table   1013a000     <linker-defined>
 0002:00005324       ___rtc_iaa                 1013a324     MSVCRT:_initsect_.obj
 0002:00005328       ___rtc_izz                 1013a328     MSVCRT:_initsect_.obj
 0002:0000532c       ___rtc_taa                 1013a32c     MSVCRT:_initsect_.obj
 0002:00005330       ___rtc_tzz                 1013a330     MSVCRT:_initsect_.obj
 0002:000053c4       __TI2?AVbad_alloc@std@@    1013a3c4     MSVCRT:throw_bad_alloc.obj
 0002:000053d4       __CTA2?AVbad_alloc@std@@   1013a3d4     MSVCRT:throw_bad_alloc.obj
 0002:000053e0       __CT??_R0?AVbad_alloc@std@@@8??0bad_alloc@std@@QAE@ABV01@@Z12 1013a3e0     MSVCRT:throw_bad_alloc.obj
 0002:000053fc       __CT??_R0?AVexception@std@@@8??0exception@std@@QAE@ABV01@@Z12 1013a3fc     MSVCRT:throw_bad_alloc.obj
 0002:00005418       __TI3?AVbad_array_new_length@std@@ 1013a418     MSVCRT:throw_bad_alloc.obj
 0002:00005428       __CTA3?AVbad_array_new_length@std@@ 1013a428     MSVCRT:throw_bad_alloc.obj
 0002:00005438       __CT??_R0?AVbad_array_new_length@std@@@8??0bad_array_new_length@std@@QAE@ABV01@@Z12 1013a438     MSVCRT:throw_bad_alloc.obj
 0002:00017ffc       __IMPORT_DESCRIPTOR_KERNEL32 1014cffc     kernel32:KERNEL32.dll
 0002:00018010       __IMPORT_DESCRIPTOR_WS2_32 1014d010     Ws2_32:WS2_32.dll
 0002:00018024       __IMPORT_DESCRIPTOR_VCRUNTIME140 1014d024     vcruntime:VCRUNTIME140.dll
 0002:00018038       __IMPORT_DESCRIPTOR_api-ms-win-crt-runtime-l1-1-0 1014d038     ucrt:api-ms-win-crt-runtime-l1-1-0.dll
 0002:0001804c       __IMPORT_DESCRIPTOR_api-ms-win-crt-stdio-l1-1-0 1014d04c     ucrt:api-ms-win-crt-stdio-l1-1-0.dll
 0002:00018060       __IMPORT_DESCRIPTOR_api-ms-win-crt-string-l1-1-0 1014d060     ucrt:api-ms-win-crt-string-l1-1-0.dll
 0002:00018074       __IMPORT_DESCRIPTOR_api-ms-win-crt-math-l1-1-0 1014d074     ucrt:api-ms-win-crt-math-l1-1-0.dll
 0002:00018088       __IMPORT_DESCRIPTOR_api-ms-win-crt-heap-l1-1-0 1014d088     ucrt:api-ms-win-crt-heap-l1-1-0.dll
 0002:0001809c       __NULL_IMPORT_DESCRIPTOR   1014d09c     kernel32:KERNEL32.dll
 0003:00000000       ?sAssertHandlerPtr@?A0x06c62945@@3PAVPxAssertHandler@physx@@A 1014e000     PsAssert.obj
 0003:00000004       ?sAssertHandler@?A0x06c62945@@3VDefaultAssertHandler@1@A 1014e004     PsAssert.obj
 0003:00000904       ?mVersion@RTree@Gu@physx@@2IA 1014e904     GuRTree.obj
 0003:00000940       ?gGeomMTDMethodTable@Gu@physx@@3PAY06P6A_NAAVPxVec3@2@AAMABVPxGeometry@2@ABVPxTransform@2@23@ZA 1014e940     GuMTD.obj
 0003:00000a08       ?gGeomOverlapMethodTable@@3PAY06P6A_NABVPxGeometry@physx@@ABVPxTransform@2@01PAUTriggerCache@Gu@2@@ZA 1014ea08     GuOverlapTests.obj
 0003:00000acc       ?gRaycastMap@@3PAP6AIABVPxGeometry@physx@@ABVPxTransform@2@ABVPxVec3@2@2MV?$PxFlags@W4Enum@PxHitFlag@physx@@G@2@IPIAUPxRaycastHit@2@_NP6A_NAAU62@PAX@Z7@ZA 1014eacc     GuRaycastTests.obj
 0003:00000b00       ?gGeomSweepFuncs@@3UGeomSweepFuncs@Gu@physx@@A 1014eb00     GuSweepTests.obj
 0003:00000b90       __fltused                  1014eb90     MSVCRT:fltused.obj
 0003:00000b94       ___scrt_native_dllmain_reason 1014eb94     MSVCRT:utility.obj
 0003:00000ba0       ___isa_enabled             1014eba0     MSVCRT:_cpu_disp_.obj
 0003:00000bb0       ___security_cookie_complement 1014ebb0     MSVCRT:gs_cookie.obj
 0003:00000bb4       ___security_cookie         1014ebb4     MSVCRT:gs_cookie.obj
 0003:00000bb8       ___scrt_ucrt_dll_is_in_use 1014ebb8     MSVCRT:ucrt_stubs.obj
 0003:00000bbc       ??_R0?AVMutexImpl@shdfnd@physx@@@8 1014ebbc     PsWindowsMutex.obj
 0003:00000be4       ??_R0?AVConnImpl@shdfnd@physx@@@8 1014ebe4     PsWindowsPAEventSrc.obj
 0003:00000c08       ??_R0?AVThreadImpl@shdfnd@physx@@@8 1014ec08     PsWindowsSocket.obj
 0003:00000c30       ??_R0?AVFastIPC@shdfnd@physx@@@8 1014ec30     PsFastIPC.obj
 0003:00000c54       ??_R0?AVMemoryMappedFile@shdfnd@physx@@@8 1014ec54     PsFastIPC.obj
 0003:00000c80       ??_R0?AVMultiPartData@PxRingBuffer@shdfnd@physx@@@8 1014ec80     PsFastIPC.obj
 0003:00000cb8       ??_R0?AVMultiPartPacket@PxRingBuffer@shdfnd@physx@@@8 1014ecb8     PsFastIPC.obj
 0003:00000cf0       ??_R0?AVCollection@Cm@physx@@@8 1014ecf0     CmCollection.obj
 0003:00000d14       ??_R0D@8                   1014ed14     CmRenderOutput.obj
 0003:00000d20       ??_R0?AUPxDebugText@physx@@@8 1014ed20     CmRenderOutput.obj
 0003:00000d40       ??_R0?AUPxDebugTriangle@physx@@@8 1014ed40     CmRenderOutput.obj
 0003:00000d64       ??_R0?AUPxDebugLine@physx@@@8 1014ed64     CmRenderOutput.obj
 0003:00000d84       ??_R0?AUPxDebugPoint@physx@@@8 1014ed84     CmRenderOutput.obj
 0003:00000da8       ??_R0?AVBigConvexData@physx@@@8 1014eda8     GuConvexMesh.obj
 0003:00000dcc       ??_R0I@8                   1014edcc     GuInternalTriangleMesh.obj
 0003:00000dd8       ??_R0G@8                   1014edd8     GuInternalTriangleMesh.obj
 0003:00000de4       ??_R0E@8                   1014ede4     GuTriangleMesh.obj
 0003:00000df0       ??_R0?AVHeightField@Gu@physx@@@8 1014edf0     GuMeshFactory.obj
 0003:00000e14       ??_R0?AVConvexMesh@Gu@physx@@@8 1014ee14     GuMeshFactory.obj
 0003:00000e38       ??_R0?AVTriangleMesh@Gu@physx@@@8 1014ee38     GuMeshFactory.obj
 0003:00000e5c       ??_R0PAVGuMeshFactoryListener@physx@@@8 1014ee5c     GuMeshFactory.obj
 0003:00000e88       ??_R0?AVtype_info@@@8      1014ee88     MSVCRT:std_type_info_static.obj
 0003:00000ea0       ??_R0?AVbad_alloc@std@@@8  1014eea0     MSVCRT:throw_bad_alloc.obj
 0003:00000ebc       ??_R0?AVexception@std@@@8  1014eebc     MSVCRT:throw_bad_alloc.obj
 0003:00000ed8       ??_R0?AVbad_array_new_length@std@@@8 1014eed8     MSVCRT:throw_bad_alloc.obj
 0003:00000f08       ?_OptionsStorage@?1??__local_stdio_printf_options@@9@4_KA 1014ef08     PsWindowsPrintString.obj
 0003:00000f10       ?gPhysicalCoreCount@?A0x94e6aed1@shdfnd@physx@@3IA 1014ef10     PsWindowsThread.obj
 0003:00000f18       ?sTickDuration@?A0xd02160aa@@3NA 1014ef18     PsWindowsTime.obj
 0003:00000f30       ?mInstance@Foundation@shdfnd@physx@@0PAV123@A 1014ef30     PsFoundation.obj
 0003:00000f34       ?mRefCount@Foundation@shdfnd@physx@@0IA 1014ef34     PsFoundation.obj
 0003:00000f38       ?mWarnOnceTimestap@Foundation@shdfnd@physx@@0IA 1014ef38     PsFoundation.obj
 0003:00001344       ?sweepMultipleList@SceneQuery@ProfileEventId@Cm@physx@@2UPxProfileEventId@4@B 1014f344     CmEventProfiler.obj
 0003:00001348       ?correlatePatches@Dynamics@ProfileEventId@Cm@physx@@2UPxProfileEventId@4@B 1014f348     CmEventProfiler.obj
 0003:0000134c       ?processSleepingIslands@IslandGen@ProfileEventId@Cm@physx@@2UPxProfileEventId@4@B 1014f34c     CmEventProfiler.obj
 0003:00001350       ?sweepAny@SceneQuery@ProfileEventId@Cm@physx@@2UPxProfileEventId@4@B 1014f350     CmEventProfiler.obj
 0003:00001354       ?updatePariclesAndFluids@PVD@ProfileEventId@Cm@physx@@2UPxProfileEventId@4@B 1014f354     CmEventProfiler.obj
 0003:00001358       ?sendPVDArrays@PVD@ProfileEventId@Cm@physx@@2UPxProfileEventId@4@B 1014f358     CmEventProfiler.obj
 0003:0000135c       ?emptyIslands@IslandGen@ProfileEventId@Cm@physx@@2UPxProfileEventId@4@B 1014f35c     CmEventProfiler.obj
 0003:00001360       ?updateKinematics@Dynamics@ProfileEventId@Cm@physx@@2UPxProfileEventId@4@B 1014f360     CmEventProfiler.obj
 0003:00001364       ?solveGroup@Dynamics@ProfileEventId@Cm@physx@@2UPxProfileEventId@4@B 1014f364     CmEventProfiler.obj
 0003:00001368       ?narrowPhase@Sim@ProfileEventId@Cm@physx@@2UPxProfileEventId@4@B 1014f368     CmEventProfiler.obj
 0003:0000136c       ?releasePVDInstance@PVD@ProfileEventId@Cm@physx@@2UPxProfileEventId@4@B 1014f36c     CmEventProfiler.obj
 0003:00001370       ?SapUpdateSPU@BroadPhase@ProfileEventId@Cm@physx@@2UPxProfileEventId@4@B 1014f370     CmEventProfiler.obj
 0003:00001374       ?removeShapesFromSQ@API@ProfileEventId@Cm@physx@@2UPxProfileEventId@4@B 1014f374     CmEventProfiler.obj
 0003:00001378       ?ccdSweepMerge@Sim@ProfileEventId@Cm@physx@@2UPxProfileEventId@4@B 1014f378     CmEventProfiler.obj
 0003:0000137c       ?createdNodes@IslandGen@ProfileEventId@Cm@physx@@2UPxProfileEventId@4@B 1014f37c     CmEventProfiler.obj
 0003:00001380       ?addShapesToSQ@API@ProfileEventId@Cm@physx@@2UPxProfileEventId@4@B 1014f380     CmEventProfiler.obj
 0003:00001384       ?createPVDInstance@PVD@ProfileEventId@Cm@physx@@2UPxProfileEventId@4@B 1014f384     CmEventProfiler.obj
 0003:00001388       ?stepSetupCollide@Sim@ProfileEventId@Cm@physx@@2UPxProfileEventId@4@B 1014f388     CmEventProfiler.obj
 0003:0000138c       ?flushQueryUpdates@API@ProfileEventId@Cm@physx@@2UPxProfileEventId@4@B 1014f38c     CmEventProfiler.obj
 0003:00001390       ?updateLazyAggShapeAABBs@BroadPhase@ProfileEventId@Cm@physx@@2UPxProfileEventId@4@B 1014f390     CmEventProfiler.obj
 0003:00001394       ?sweepAnyList@SceneQuery@ProfileEventId@Cm@physx@@2UPxProfileEventId@4@B 1014f394     CmEventProfiler.obj
 0003:00001398       ?computeAggAggShapePairs@BroadPhase@ProfileEventId@Cm@physx@@2UPxProfileEventId@4@B 1014f398     CmEventProfiler.obj
 0003:0000139c       ?simAddShapeToBroadPhase@API@ProfileEventId@Cm@physx@@2UPxProfileEventId@4@B 1014f39c     CmEventProfiler.obj
 0003:000013a0       ?sweepSingleList@SceneQuery@ProfileEventId@Cm@physx@@2UPxProfileEventId@4@B 1014f3a0     CmEventProfiler.obj
 0003:000013a4       ?createContactPatches@Dynamics@ProfileEventId@Cm@physx@@2UPxProfileEventId@4@B 1014f3a4     CmEventProfiler.obj
 0003:000013a8       ?SapPostUpdateSPU@BroadPhase@ProfileEventId@Cm@physx@@2UPxProfileEventId@4@B 1014f3a8     CmEventProfiler.obj
 0003:000013ac       ?raycastSingle@SceneQuery@ProfileEventId@Cm@physx@@2UPxProfileEventId@4@B 1014f3ac     CmEventProfiler.obj
 0003:000013b0       ?propagateDrivenInertia@Articulations@ProfileEventId@Cm@physx@@2UPxProfileEventId@4@B 1014f3b0     CmEventProfiler.obj
 0003:000013b4       ?updateSleeping@PVD@ProfileEventId@Cm@physx@@2UPxProfileEventId@4@B 1014f3b4     CmEventProfiler.obj
 0003:000013b8       ?finish@BroadPhase@ProfileEventId@Cm@physx@@2UPxProfileEventId@4@B 1014f3b8     CmEventProfiler.obj
 0003:000013bc       ?processTriggers@Sim@ProfileEventId@Cm@physx@@2UPxProfileEventId@4@B 1014f3bc     CmEventProfiler.obj
 0003:000013c0       ?applyExternalImpulses@Articulations@ProfileEventId@Cm@physx@@2UPxProfileEventId@4@B 1014f3c0     CmEventProfiler.obj
 0003:000013c4       ?computeAABBUpdateLists@BroadPhase@ProfileEventId@Cm@physx@@2UPxProfileEventId@4@B 1014f3c4     CmEventProfiler.obj
 0003:000013c8       ?fireCallBacksPreSync@Sim@ProfileEventId@Cm@physx@@2UPxProfileEventId@4@B 1014f3c8     CmEventProfiler.obj
 0003:000013cc       ?raycastAny@BatchedSceneQuery@ProfileEventId@Cm@physx@@2UPxProfileEventId@4@B 1014f3cc     CmEventProfiler.obj
 0003:000013d0       ?duplicateKinematicNodes@IslandGen@ProfileEventId@Cm@physx@@2UPxProfileEventId@4@B 1014f3d0     CmEventProfiler.obj
 0003:000013d4       ?ccdBroadPhaseComplete@Sim@ProfileEventId@Cm@physx@@2UPxProfileEventId@4@B 1014f3d4     CmEventProfiler.obj
 0003:000013d8       ?execute@BatchedSceneQuery@ProfileEventId@Cm@physx@@2UPxProfileEventId@4@B 1014f3d8     CmEventProfiler.obj
 0003:000013dc       ?sweepSingle@SceneQuery@ProfileEventId@Cm@physx@@2UPxProfileEventId@4@B 1014f3dc     CmEventProfiler.obj
 0003:000013e0       ?MBPUpdate@BroadPhase@ProfileEventId@Cm@physx@@2UPxProfileEventId@4@B 1014f3e0     CmEventProfiler.obj
 0003:000013e4       ?solverQueueTasks@Dynamics@ProfileEventId@Cm@physx@@2UPxProfileEventId@4@B 1014f3e4     CmEventProfiler.obj
 0003:000013e8       ?stepSetupSolve@Sim@ProfileEventId@Cm@physx@@2UPxProfileEventId@4@B 1014f3e8     CmEventProfiler.obj
 0003:000013ec       ?prepareFsData@Articulations@ProfileEventId@Cm@physx@@2UPxProfileEventId@4@B 1014f3ec     CmEventProfiler.obj
 0003:000013f0       ?MBPPostUpdate@BroadPhase@ProfileEventId@Cm@physx@@2UPxProfileEventId@4@B 1014f3f0     CmEventProfiler.obj
 0003:000013f4       ?collision@Basic@ProfileEventId@Cm@physx@@2UPxProfileEventId@4@B 1014f3f4     CmEventProfiler.obj
 0003:000013f8       ?removeParticleSystem@API@ProfileEventId@Cm@physx@@2UPxProfileEventId@4@B 1014f3f8     CmEventProfiler.obj
 0003:000013fc       ?projectContacts@Sim@ProfileEventId@Cm@physx@@2UPxProfileEventId@4@B 1014f3fc     CmEventProfiler.obj
 0003:00001400       ?fireCallBacksPostSync@Sim@ProfileEventId@Cm@physx@@2UPxProfileEventId@4@B 1014f400     CmEventProfiler.obj
 0003:00001404       ?SapPostUpdate@BroadPhase@ProfileEventId@Cm@physx@@2UPxProfileEventId@4@B 1014f404     CmEventProfiler.obj
 0003:00001408       ?resetDependencies@Sim@ProfileEventId@Cm@physx@@2UPxProfileEventId@4@B 1014f408     CmEventProfiler.obj
 0003:0000140c       ?addParticleSystem@API@ProfileEventId@Cm@physx@@2UPxProfileEventId@4@B 1014f40c     CmEventProfiler.obj
 0003:00001410       ?updateForces@Sim@ProfileEventId@Cm@physx@@2UPxProfileEventId@4@B 1014f410     CmEventProfiler.obj
 0003:00001414       ?MBPPostUpdateSPU@BroadPhase@ProfileEventId@Cm@physx@@2UPxProfileEventId@4@B 1014f414     CmEventProfiler.obj
 0003:00001418       ?projectConstraints@Sim@ProfileEventId@Cm@physx@@2UPxProfileEventId@4@B 1014f418     CmEventProfiler.obj
 0003:0000141c       ?sceneUpdate@PVD@ProfileEventId@Cm@physx@@2UPxProfileEventId@4@B 1014f41c     CmEventProfiler.obj
 0003:00001420       ?updateCCDMultiPass@Sim@ProfileEventId@Cm@physx@@2UPxProfileEventId@4@B 1014f420     CmEventProfiler.obj
 0003:00001424       ?processBPResults@BroadPhase@ProfileEventId@Cm@physx@@2UPxProfileEventId@4@B 1014f424     CmEventProfiler.obj
 0003:00001428       ?addAggregate@API@ProfileEventId@Cm@physx@@2UPxProfileEventId@4@B 1014f428     CmEventProfiler.obj
 0003:0000142c       ?growPatches@Dynamics@ProfileEventId@Cm@physx@@2UPxProfileEventId@4@B 1014f42c     CmEventProfiler.obj
 0003:00001430       ?islandGen@Basic@ProfileEventId@Cm@physx@@2UPxProfileEventId@4@B 1014f430     CmEventProfiler.obj
 0003:00001434       ?preIslandGen@Sim@ProfileEventId@Cm@physx@@2UPxProfileEventId@4@B 1014f434     CmEventProfiler.obj
 0003:00001438       ?deletedNodesEdges@IslandGen@ProfileEventId@Cm@physx@@2UPxProfileEventId@4@B 1014f438     CmEventProfiler.obj
 0003:0000143c       ?addActorToSim@API@ProfileEventId@Cm@physx@@2UPxProfileEventId@4@B 1014f43c     CmEventProfiler.obj
 0003:00001440       ?visualizeEndStep@Sim@ProfileEventId@Cm@physx@@2UPxProfileEventId@4@B 1014f440     CmEventProfiler.obj
 0003:00001444       ?rigidBodySolver@Basic@ProfileEventId@Cm@physx@@2UPxProfileEventId@4@B 1014f444     CmEventProfiler.obj
 0003:00001448       ?shiftOrigin@API@ProfileEventId@Cm@physx@@2UPxProfileEventId@4@B 1014f448     CmEventProfiler.obj
 0003:0000144c       ?startStep@ParticleSim@ProfileEventId@Cm@physx@@2UPxProfileEventId@4@B 1014f44c     CmEventProfiler.obj
 0003:00001450       ?processLostOverlaps@Sim@ProfileEventId@Cm@physx@@2UPxProfileEventId@4@B 1014f450     CmEventProfiler.obj
 0003:00001454       ?overlapMultiple@BatchedSceneQuery@ProfileEventId@Cm@physx@@2UPxProfileEventId@4@B 1014f454     CmEventProfiler.obj
 0003:00001458       ?updateJoints@PVD@ProfileEventId@Cm@physx@@2UPxProfileEventId@4@B 1014f458     CmEventProfiler.obj
 0003:0000145c       ?integrate@Articulations@ProfileEventId@Cm@physx@@2UPxProfileEventId@4@B 1014f45c     CmEventProfiler.obj
 0003:00001460       ?queueNarrowPhase@Sim@ProfileEventId@Cm@physx@@2UPxProfileEventId@4@B 1014f460     CmEventProfiler.obj
 0003:00001464       ?sweepMultiple@BatchedSceneQuery@ProfileEventId@Cm@physx@@2UPxProfileEventId@4@B 1014f464     CmEventProfiler.obj
 0003:00001468       ?fireCustomFilteringCallbacks@Sim@ProfileEventId@Cm@physx@@2UPxProfileEventId@4@B 1014f468     CmEventProfiler.obj
 0003:0000146c       ?solverMergeResults@Dynamics@ProfileEventId@Cm@physx@@2UPxProfileEventId@4@B 1014f46c     CmEventProfiler.obj
 0003:00001470       ?freeBuffers@IslandGen@ProfileEventId@Cm@physx@@2UPxProfileEventId@4@B 1014f470     CmEventProfiler.obj
 0003:00001474       ?findAndReplaceWithLast@API@ProfileEventId@Cm@physx@@2UPxProfileEventId@4@B 1014f474     CmEventProfiler.obj
 0003:00001478       ?stepSetupSimulate@Sim@ProfileEventId@Cm@physx@@2UPxProfileEventId@4@B 1014f478     CmEventProfiler.obj
 0003:0000147c       ?collideQueueTasks@Sim@ProfileEventId@Cm@physx@@2UPxProfileEventId@4@B 1014f47c     CmEventProfiler.obj
 0003:00001480       ?forceDynamicTreeRebuild@API@ProfileEventId@Cm@physx@@2UPxProfileEventId@4@B 1014f480     CmEventProfiler.obj
 0003:00001484       ?removeParticleFluid@API@ProfileEventId@Cm@physx@@2UPxProfileEventId@4@B 1014f484     CmEventProfiler.obj
 0003:00001488       ?removeActorFromSim@API@ProfileEventId@Cm@physx@@2UPxProfileEventId@4@B 1014f488     CmEventProfiler.obj
 0003:0000148c       ?checkResults@Basic@ProfileEventId@Cm@physx@@2UPxProfileEventId@4@B 1014f48c     CmEventProfiler.obj
 0003:00001490       ?brokenEdgeIslands@IslandGen@ProfileEventId@Cm@physx@@2UPxProfileEventId@4@B 1014f490     CmEventProfiler.obj
 0003:00001494       ?solveQueueTasks@Sim@ProfileEventId@Cm@physx@@2UPxProfileEventId@4@B 1014f494     CmEventProfiler.obj
 0003:00001498       ?updatePositions@Dynamics@ProfileEventId@Cm@physx@@2UPxProfileEventId@4@B 1014f498     CmEventProfiler.obj
 0003:0000149c       ?prepareDataBlock@Articulations@ProfileEventId@Cm@physx@@2UPxProfileEventId@4@B 1014f49c     CmEventProfiler.obj
 0003:000014a0       ?raycastMultiple@BatchedSceneQuery@ProfileEventId@Cm@physx@@2UPxProfileEventId@4@B 1014f4a0     CmEventProfiler.obj
 0003:000014a4       ?updateIslands@Sim@ProfileEventId@Cm@physx@@2UPxProfileEventId@4@B 1014f4a4     CmEventProfiler.obj
 0003:000014a8       ?createFinalize@Dynamics@ProfileEventId@Cm@physx@@2UPxProfileEventId@4@B 1014f4a8     CmEventProfiler.obj
 0003:000014ac       ?parallelSolve@Dynamics@ProfileEventId@Cm@physx@@2UPxProfileEventId@4@B 1014f4ac     CmEventProfiler.obj
 0003:000014b0       ?createBatchQuery@API@ProfileEventId@Cm@physx@@2UPxProfileEventId@4@B 1014f4b0     CmEventProfiler.obj
 0003:000014b4       ?addArticulation@API@ProfileEventId@Cm@physx@@2UPxProfileEventId@4@B 1014f4b4     CmEventProfiler.obj
 0003:000014b8       ?updateAggAABBs@BroadPhase@ProfileEventId@Cm@physx@@2UPxProfileEventId@4@B 1014f4b8     CmEventProfiler.obj
 0003:000014bc       ?updateDynamicBodies@PVD@ProfileEventId@Cm@physx@@2UPxProfileEventId@4@B 1014f4bc     CmEventProfiler.obj
 0003:000014c0       ?computeJointDrives@Articulations@ProfileEventId@Cm@physx@@2UPxProfileEventId@4@B 1014f4c0     CmEventProfiler.obj
 0003:000014c4       ?finishModifiablePairs@Sim@ProfileEventId@Cm@physx@@2UPxProfileEventId@4@B 1014f4c4     CmEventProfiler.obj
 0003:000014c8       ?solver@Dynamics@ProfileEventId@Cm@physx@@2UPxProfileEventId@4@B 1014f4c8     CmEventProfiler.obj
 0003:000014cc       ?pvdFrameStart@Basic@ProfileEventId@Cm@physx@@2UPxProfileEventId@4@B 1014f4cc     CmEventProfiler.obj
 0003:000014d0       ?resizeForKinematics@IslandGen@ProfileEventId@Cm@physx@@2UPxProfileEventId@4@B 1014f4d0     CmEventProfiler.obj
 0003:000014d4       ?removeArticulation@API@ProfileEventId@Cm@physx@@2UPxProfileEventId@4@B 1014f4d4     CmEventProfiler.obj
 0003:000014d8       ?applyJointDrives@Articulations@ProfileEventId@Cm@physx@@2UPxProfileEventId@4@B 1014f4d8     CmEventProfiler.obj
 0003:000014dc       ?removeActor@API@ProfileEventId@Cm@physx@@2UPxProfileEventId@4@B 1014f4dc     CmEventProfiler.obj
 0003:000014e0       ?syncBodiesAfterSolver@Sim@ProfileEventId@Cm@physx@@2UPxProfileEventId@4@B 1014f4e0     CmEventProfiler.obj
 0003:000014e4       ?sceneFinalization@Sim@ProfileEventId@Cm@physx@@2UPxProfileEventId@4@B 1014f4e4     CmEventProfiler.obj
 0003:000014e8       ?narrowPhaseMerge@Sim@ProfileEventId@Cm@physx@@2UPxProfileEventId@4@B 1014f4e8     CmEventProfiler.obj
 0003:000014ec       ?raycastAny@SceneQuery@ProfileEventId@Cm@physx@@2UPxProfileEventId@4@B 1014f4ec     CmEventProfiler.obj
 0003:000014f0       ?buildActiveTransforms@Sim@ProfileEventId@Cm@physx@@2UPxProfileEventId@4@B 1014f4f0     CmEventProfiler.obj
 0003:000014f4       ?broadPhase@Basic@ProfileEventId@Cm@physx@@2UPxProfileEventId@4@B 1014f4f4     CmEventProfiler.obj
 0003:000014f8       ?raycastMultiple@SceneQuery@ProfileEventId@Cm@physx@@2UPxProfileEventId@4@B 1014f4f8     CmEventProfiler.obj
 0003:000014fc       ?getSimEvents@Sim@ProfileEventId@Cm@physx@@2UPxProfileEventId@4@B 1014f4fc     CmEventProfiler.obj
 0003:00001500       ?updateCloths@PVD@ProfileEventId@Cm@physx@@2UPxProfileEventId@4@B 1014f500     CmEventProfiler.obj
 0003:00001504       ?removeShapesFromSim@API@ProfileEventId@Cm@physx@@2UPxProfileEventId@4@B 1014f504     CmEventProfiler.obj
 0003:00001508       ?cleanupEdgeEvents@IslandGen@ProfileEventId@Cm@physx@@2UPxProfileEventId@4@B 1014f508     CmEventProfiler.obj
 0003:0000150c       ?fetchResults@Basic@ProfileEventId@Cm@physx@@2UPxProfileEventId@4@B 1014f50c     CmEventProfiler.obj
 0003:00001510       ?processNewOverlaps@Sim@ProfileEventId@Cm@physx@@2UPxProfileEventId@4@B 1014f510     CmEventProfiler.obj
 0003:00001514       ?addActor@API@ProfileEventId@Cm@physx@@2UPxProfileEventId@4@B 1014f514     CmEventProfiler.obj
 0003:00001518       ?setupFinalize@Dynamics@ProfileEventId@Cm@physx@@2UPxProfileEventId@4@B 1014f518     CmEventProfiler.obj
 0003:0000151c       ?visualizeStartStep@Sim@ProfileEventId@Cm@physx@@2UPxProfileEventId@4@B 1014f51c     CmEventProfiler.obj
 0003:00001520       ?dynamics@Basic@ProfileEventId@Cm@physx@@2UPxProfileEventId@4@B 1014f520     CmEventProfiler.obj
 0003:00001524       ?checkConstraintBreakage@Sim@ProfileEventId@Cm@physx@@2UPxProfileEventId@4@B 1014f524     CmEventProfiler.obj
 0003:00001528       ?removeAggregate@API@ProfileEventId@Cm@physx@@2UPxProfileEventId@4@B 1014f528     CmEventProfiler.obj
 0003:0000152c       ?taskFrameworkSetup@Sim@ProfileEventId@Cm@physx@@2UPxProfileEventId@4@B 1014f52c     CmEventProfiler.obj
 0003:00001530       ?updateBroadphase@BroadPhase@ProfileEventId@Cm@physx@@2UPxProfileEventId@4@B 1014f530     CmEventProfiler.obj
 0003:00001534       ?endStep@ParticleSim@ProfileEventId@Cm@physx@@2UPxProfileEventId@4@B 1014f534     CmEventProfiler.obj
 0003:00001538       ?jointLoads@Articulations@ProfileEventId@Cm@physx@@2UPxProfileEventId@4@B 1014f538     CmEventProfiler.obj
 0003:0000153c       ?narrowPhase@Basic@ProfileEventId@Cm@physx@@2UPxProfileEventId@4@B 1014f53c     CmEventProfiler.obj
 0003:00001540       ?joinedEdges@IslandGen@ProfileEventId@Cm@physx@@2UPxProfileEventId@4@B 1014f540     CmEventProfiler.obj
 0003:00001544       ?preIslandGenSecondPass@Sim@ProfileEventId@Cm@physx@@2UPxProfileEventId@4@B 1014f544     CmEventProfiler.obj
 0003:00001548       ?addParticleFluid@API@ProfileEventId@Cm@physx@@2UPxProfileEventId@4@B 1014f548     CmEventProfiler.obj
 0003:0000154c       ?shapesUpdateProcessing@ParticleSim@ProfileEventId@Cm@physx@@2UPxProfileEventId@4@B 1014f54c     CmEventProfiler.obj
 0003:00001550       ?updateVelocities@Dynamics@ProfileEventId@Cm@physx@@2UPxProfileEventId@4@B 1014f550     CmEventProfiler.obj
 0003:00001554       ?ccdBroadPhase@Sim@ProfileEventId@Cm@physx@@2UPxProfileEventId@4@B 1014f554     CmEventProfiler.obj
 0003:00001558       ?ccdSweep@Sim@ProfileEventId@Cm@physx@@2UPxProfileEventId@4@B 1014f558     CmEventProfiler.obj
 0003:0000155c       ?syncState@Sim@ProfileEventId@Cm@physx@@2UPxProfileEventId@4@B 1014f55c     CmEventProfiler.obj
 0003:00001560       ?checkCollision@Basic@ProfileEventId@Cm@physx@@2UPxProfileEventId@4@B 1014f560     CmEventProfiler.obj
 0003:00001564       ?syncBodiesAfterIntegration@Sim@ProfileEventId@Cm@physx@@2UPxProfileEventId@4@B 1014f564     CmEventProfiler.obj
 0003:00001568       ?addActors@API@ProfileEventId@Cm@physx@@2UPxProfileEventId@4@B 1014f568     CmEventProfiler.obj
 0003:0000156c       ?removeActors@API@ProfileEventId@Cm@physx@@2UPxProfileEventId@4@B 1014f56c     CmEventProfiler.obj
 0003:00001570       ?updatePVDProperties@PVD@ProfileEventId@Cm@physx@@2UPxProfileEventId@4@B 1014f570     CmEventProfiler.obj
 0003:00001574       ?projectionTreeUpdates@Sim@ProfileEventId@Cm@physx@@2UPxProfileEventId@4@B 1014f574     CmEventProfiler.obj
 0003:00001578       ?sweepSingle@BatchedSceneQuery@ProfileEventId@Cm@physx@@2UPxProfileEventId@4@B 1014f578     CmEventProfiler.obj
 0003:0000157c       ?sweepMultiple@SceneQuery@ProfileEventId@Cm@physx@@2UPxProfileEventId@4@B 1014f57c     CmEventProfiler.obj
 0003:00001580       ?updateDirtyShaders@Sim@ProfileEventId@Cm@physx@@2UPxProfileEventId@4@B 1014f580     CmEventProfiler.obj
 0003:00001584       ?flushSimulation@API@ProfileEventId@Cm@physx@@2UPxProfileEventId@4@B 1014f584     CmEventProfiler.obj
 0003:00001588       ?originShift@PVD@ProfileEventId@Cm@physx@@2UPxProfileEventId@4@B 1014f588     CmEventProfiler.obj
 0003:0000158c       ?updateContacts@PVD@ProfileEventId@Cm@physx@@2UPxProfileEventId@4@B 1014f58c     CmEventProfiler.obj
 0003:00001590       ?overlapMultiple@SceneQuery@ProfileEventId@Cm@physx@@2UPxProfileEventId@4@B 1014f590     CmEventProfiler.obj
 0003:00001594       ?raycastSingle@BatchedSceneQuery@ProfileEventId@Cm@physx@@2UPxProfileEventId@4@B 1014f594     CmEventProfiler.obj
 0003:00001598       ?addCloth@API@ProfileEventId@Cm@physx@@2UPxProfileEventId@4@B 1014f598     CmEventProfiler.obj
 0003:0000159c       ?getFrictionPatch@Dynamics@ProfileEventId@Cm@physx@@2UPxProfileEventId@4@B 1014f59c     CmEventProfiler.obj
 0003:000015a0       ?SapUpdate@BroadPhase@ProfileEventId@Cm@physx@@2UPxProfileEventId@4@B 1014f5a0     CmEventProfiler.obj
 0003:000015a4       ?updateIslandsSecondPass@Sim@ProfileEventId@Cm@physx@@2UPxProfileEventId@4@B 1014f5a4     CmEventProfiler.obj
 0003:000015a8       ?flushUpdates@SceneQuery@ProfileEventId@Cm@physx@@2UPxProfileEventId@4@B 1014f5a8     CmEventProfiler.obj
 0003:000015ac       ?ccdPair@Sim@ProfileEventId@Cm@physx@@2UPxProfileEventId@4@B 1014f5ac     CmEventProfiler.obj
 0003:000015b0       ?setupProject@Articulations@ProfileEventId@Cm@physx@@2UPxProfileEventId@4@B 1014f5b0     CmEventProfiler.obj
 0003:000015b4       ?postIslandGenSecondPass@Sim@ProfileEventId@Cm@physx@@2UPxProfileEventId@4@B 1014f5b4     CmEventProfiler.obj
 0003:000015b8       ?ccdIsland@Sim@ProfileEventId@Cm@physx@@2UPxProfileEventId@4@B 1014f5b8     CmEventProfiler.obj
 0003:000015bc       ?removeCloth@API@ProfileEventId@Cm@physx@@2UPxProfileEventId@4@B 1014f5bc     CmEventProfiler.obj
 0003:000015c0       ?setupConstraints@Articulations@ProfileEventId@Cm@physx@@2UPxProfileEventId@4@B 1014f5c0     CmEventProfiler.obj
 0003:000015c4       ?releaseBatchQuery@API@ProfileEventId@Cm@physx@@2UPxProfileEventId@4@B 1014f5c4     CmEventProfiler.obj
 0003:000015c8       ?fetchResults@Sim@ProfileEventId@Cm@physx@@2UPxProfileEventId@4@B 1014f5c8     CmEventProfiler.obj
 0003:000015cc       ?updateShapeAABBs@BroadPhase@ProfileEventId@Cm@physx@@2UPxProfileEventId@4@B 1014f5cc     CmEventProfiler.obj
 0003:000015d0       ?addShapesToSim@API@ProfileEventId@Cm@physx@@2UPxProfileEventId@4@B 1014f5d0     CmEventProfiler.obj
 0003:000015d4       ?updateAggLocalSpaceBounds@BroadPhase@ProfileEventId@Cm@physx@@2UPxProfileEventId@4@B 1014f5d4     CmEventProfiler.obj
 0003:000015d8       ?updateCCDSinglePass@Sim@ProfileEventId@Cm@physx@@2UPxProfileEventId@4@B 1014f5d8     CmEventProfiler.obj
 0003:000015dc       ?updateCollision@ParticleSim@ProfileEventId@Cm@physx@@2UPxProfileEventId@4@B 1014f5dc     CmEventProfiler.obj
 0003:000015e0       ?addCollection@API@ProfileEventId@Cm@physx@@2UPxProfileEventId@4@B 1014f5e0     CmEventProfiler.obj
 0003:000015e4       ?setupDrives@Articulations@ProfileEventId@Cm@physx@@2UPxProfileEventId@4@B 1014f5e4     CmEventProfiler.obj
 0003:000015e8       ?updatePruningTrees@Sim@ProfileEventId@Cm@physx@@2UPxProfileEventId@4@B 1014f5e8     CmEventProfiler.obj
 0003:000015ec       ?MBPUpdateSPU@BroadPhase@ProfileEventId@Cm@physx@@2UPxProfileEventId@4@B 1014f5ec     CmEventProfiler.obj
 0003:000015f0       ?resizeArrays@IslandGen@ProfileEventId@Cm@physx@@2UPxProfileEventId@4@B 1014f5f0     CmEventProfiler.obj
 0003:000015f4       ?simulate@Basic@ProfileEventId@Cm@physx@@2UPxProfileEventId@4@B 1014f5f4     CmEventProfiler.obj
 0003:000018a0       ?boxVertexTable@physx@@3QBT__m128@@B 1014f8a0     GuConvexSupportTable.obj
 0003:000032a0       ?__type_info_root_node@@3U__type_info_node@@A 101512a0     MSVCRT:tncleanup.obj
 0003:000032a8       ___scrt_current_native_startup_state 101512a8     MSVCRT:utility.obj
 0003:000032ac       ___scrt_native_startup_lock 101512ac     MSVCRT:utility.obj
 0003:000032d0       ___isa_available           101512d0     MSVCRT:_cpu_disp_.obj
 0003:000032d4       ___favor                   101512d4     MSVCRT:_cpu_disp_.obj
 0003:000032d8       ___scrt_debugger_hook_flag 101512d8     MSVCRT:utility_desktop.obj
 0003:000032e0       ?_OptionsStorage@?1??__local_stdio_scanf_options@@9@4_KA 101512e0     MSVCRT:default_local_stdio_options.obj
 0003:00003604       ___dyn_tls_init_callback   10151604     <common>

 entry point at        0001:00132477

 Static symbols

 0000:ffea5000       .debug$S                   10000000     ucrt:api-ms-win-crt-heap-l1-1-0.dll
 0000:ffea5000       .debug$S                   10000000     ucrt:api-ms-win-crt-heap-l1-1-0.dll
 0000:ffea5000       .debug$S                   10000000     ucrt:api-ms-win-crt-heap-l1-1-0.dll
 0000:ffea5000       .debug$S                   10000000     PhysX3Common_x86.exp
 0000:ffea5000       .debug$S                   10000000     ucrt:api-ms-win-crt-math-l1-1-0.dll
 0000:ffea5000       .debug$S                   10000000     ucrt:api-ms-win-crt-math-l1-1-0.dll
 0000:ffea5000       .debug$S                   10000000     ucrt:api-ms-win-crt-math-l1-1-0.dll
 0000:ffea5000       .debug$S                   10000000     kernel32:KERNEL32.dll
 0000:ffea5000       .debug$S                   10000000     ucrt:api-ms-win-crt-math-l1-1-0.dll
 0000:ffea5000       .debug$S                   10000000     kernel32:KERNEL32.dll
 0000:ffea5000       .debug$S                   10000000     ucrt:api-ms-win-crt-math-l1-1-0.dll
 0000:ffea5000       .debug$S                   10000000     ucrt:api-ms-win-crt-math-l1-1-0.dll
 0000:ffea5000       .debug$S                   10000000     ucrt:api-ms-win-crt-runtime-l1-1-0.dll
 0000:ffea5000       .debug$S                   10000000     ucrt:api-ms-win-crt-runtime-l1-1-0.dll
 0000:ffea5000       .debug$S                   10000000     ucrt:api-ms-win-crt-runtime-l1-1-0.dll
 0000:ffea5000       .debug$S                   10000000     ucrt:api-ms-win-crt-runtime-l1-1-0.dll
 0000:ffea5000       .debug$S                   10000000     ucrt:api-ms-win-crt-runtime-l1-1-0.dll
 0000:ffea5000       .debug$S                   10000000     ucrt:api-ms-win-crt-runtime-l1-1-0.dll
 0000:ffea5000       .debug$S                   10000000     ucrt:api-ms-win-crt-runtime-l1-1-0.dll
 0000:ffea5000       .debug$S                   10000000     ucrt:api-ms-win-crt-runtime-l1-1-0.dll
 0000:ffea5000       .debug$S                   10000000     ucrt:api-ms-win-crt-runtime-l1-1-0.dll
 0000:ffea5000       .debug$S                   10000000     ucrt:api-ms-win-crt-runtime-l1-1-0.dll
 0000:ffea5000       .debug$S                   10000000     ucrt:api-ms-win-crt-runtime-l1-1-0.dll
 0000:ffea5000       .debug$S                   10000000     ucrt:api-ms-win-crt-runtime-l1-1-0.dll
 0000:ffea5000       .debug$S                   10000000     ucrt:api-ms-win-crt-runtime-l1-1-0.dll
 0000:ffea5000       .debug$S                   10000000     ucrt:api-ms-win-crt-runtime-l1-1-0.dll
 0000:ffea5000       .debug$S                   10000000     ucrt:api-ms-win-crt-runtime-l1-1-0.dll
 0000:ffea5000       .debug$S                   10000000     ucrt:api-ms-win-crt-runtime-l1-1-0.dll
 0000:ffea5000       .debug$S                   10000000     ucrt:api-ms-win-crt-stdio-l1-1-0.dll
 0000:ffea5000       .debug$S                   10000000     ucrt:api-ms-win-crt-stdio-l1-1-0.dll
 0000:ffea5000       .debug$S                   10000000     ucrt:api-ms-win-crt-stdio-l1-1-0.dll
 0000:ffea5000       .debug$S                   10000000     ucrt:api-ms-win-crt-stdio-l1-1-0.dll
 0000:ffea5000       .debug$S                   10000000     ucrt:api-ms-win-crt-stdio-l1-1-0.dll
 0000:ffea5000       .debug$S                   10000000     ucrt:api-ms-win-crt-string-l1-1-0.dll
 0000:ffea5000       .debug$S                   10000000     ucrt:api-ms-win-crt-string-l1-1-0.dll
 0000:ffea5000       .debug$S                   10000000     ucrt:api-ms-win-crt-string-l1-1-0.dll
 0000:ffea5000       .debug$S                   10000000     kernel32:KERNEL32.dll
 0000:ffea5000       .debug$S                   10000000     vcruntime:VCRUNTIME140.dll
 0000:ffea5000       .debug$S                   10000000     kernel32:KERNEL32.dll
 0000:ffea5000       .debug$S                   10000000     vcruntime:VCRUNTIME140.dll
 0000:ffea5000       .debug$S                   10000000     kernel32:KERNEL32.dll
 0000:ffea5000       .debug$S                   10000000     vcruntime:VCRUNTIME140.dll
 0000:ffea5000       .debug$S                   10000000     vcruntime:VCRUNTIME140.dll
 0000:ffea5000       .debug$S                   10000000     vcruntime:VCRUNTIME140.dll
 0000:ffea5000       .debug$S                   10000000     vcruntime:VCRUNTIME140.dll
 0000:ffea5000       .debug$S                   10000000     vcruntime:VCRUNTIME140.dll
 0000:ffea5000       .debug$S                   10000000     kernel32:KERNEL32.dll
 0000:ffea5000       .debug$S                   10000000     vcruntime:VCRUNTIME140.dll
 0000:ffea5000       .debug$S                   10000000     kernel32:KERNEL32.dll
 0000:ffea5000       .debug$S                   10000000     vcruntime:VCRUNTIME140.dll
 0000:ffea5000       .debug$S                   10000000     kernel32:KERNEL32.dll
 0000:ffea5000       .debug$S                   10000000     kernel32:KERNEL32.dll
 0000:ffea5000       .debug$S                   10000000     vcruntime:VCRUNTIME140.dll
 0000:ffea5000       .debug$S                   10000000     kernel32:KERNEL32.dll
 0000:ffea5000       .debug$S                   10000000     vcruntime:VCRUNTIME140.dll
 0000:ffea5000       .debug$S                   10000000     kernel32:KERNEL32.dll
 0000:ffea5000       .debug$S                   10000000     vcruntime:VCRUNTIME140.dll
 0000:ffea5000       .debug$S                   10000000     vcruntime:VCRUNTIME140.dll
 0000:ffea5000       .debug$S                   10000000     kernel32:KERNEL32.dll
 0000:ffea5000       .debug$S                   10000000     kernel32:KERNEL32.dll
 0000:ffea5000       .debug$S                   10000000     Ws2_32:WS2_32.dll
 0000:ffea5000       .debug$S                   10000000     Ws2_32:WS2_32.dll
 0000:ffea5000       .debug$S                   10000000     Ws2_32:WS2_32.dll
 0000:ffea5000       .debug$S                   10000000     Ws2_32:WS2_32.dll
 0000:ffea5000       .debug$S                   10000000     Ws2_32:WS2_32.dll
 0000:ffea5000       .debug$S                   10000000     Ws2_32:WS2_32.dll
 0000:ffea5000       .debug$S                   10000000     Ws2_32:WS2_32.dll
 0000:ffea5000       .debug$S                   10000000     Ws2_32:WS2_32.dll
 0000:ffea5000       .debug$S                   10000000     Ws2_32:WS2_32.dll
 0000:ffea5000       .debug$S                   10000000     Ws2_32:WS2_32.dll
 0000:ffea5000       .debug$S                   10000000     Ws2_32:WS2_32.dll
 0000:ffea5000       .debug$S                   10000000     kernel32:KERNEL32.dll
 0000:ffea5000       .debug$S                   10000000     Ws2_32:WS2_32.dll
 0000:ffea5000       .debug$S                   10000000     Ws2_32:WS2_32.dll
 0000:ffea5000       .debug$S                   10000000     Ws2_32:WS2_32.dll
 0000:ffea5000       .debug$S                   10000000     Ws2_32:WS2_32.dll
 0000:ffea5000       .debug$S                   10000000     Ws2_32:WS2_32.dll
 0000:ffea5000       .debug$S                   10000000     Ws2_32:WS2_32.dll
 0000:ffea5000       .debug$S                   10000000     Ws2_32:WS2_32.dll
 0000:ffea5000       .debug$S                   10000000     Ws2_32:WS2_32.dll
 0000:ffea5000       .debug$S                   10000000     Ws2_32:WS2_32.dll
 0000:ffea5000       .debug$S                   10000000     Ws2_32:WS2_32.dll
 0000:ffea5000       .debug$S                   10000000     Ws2_32:WS2_32.dll
 0000:ffea5000       .debug$S                   10000000     kernel32:KERNEL32.dll
 0000:ffea5000       .debug$S                   10000000     kernel32:KERNEL32.dll
 0000:ffea5000       .debug$S                   10000000     kernel32:KERNEL32.dll
 0000:ffea5000       .debug$S                   10000000     kernel32:KERNEL32.dll
 0000:ffea5000       .debug$S                   10000000     kernel32:KERNEL32.dll
 0000:ffea5000       .debug$S                   10000000     kernel32:KERNEL32.dll
 0000:ffea5000       .debug$S                   10000000     kernel32:KERNEL32.dll
 0000:ffea5000       .debug$S                   10000000     kernel32:KERNEL32.dll
 0000:ffea5000       .debug$S                   10000000     kernel32:KERNEL32.dll
 0000:ffea5000       .debug$S                   10000000     kernel32:KERNEL32.dll
 0000:ffea5000       .debug$S                   10000000     kernel32:KERNEL32.dll
 0000:ffea5000       .debug$S                   10000000     kernel32:KERNEL32.dll
 0000:ffea5000       .debug$S                   10000000     kernel32:KERNEL32.dll
 0000:ffea5000       .debug$S                   10000000     kernel32:KERNEL32.dll
 0000:ffea5000       .debug$S                   10000000     kernel32:KERNEL32.dll
 0000:ffea5000       .debug$S                   10000000     kernel32:KERNEL32.dll
 0000:ffea5000       .debug$S                   10000000     kernel32:KERNEL32.dll
 0000:ffea5000       .debug$S                   10000000     kernel32:KERNEL32.dll
 0000:ffea5000       .debug$S                   10000000     kernel32:KERNEL32.dll
 0000:ffea5000       .debug$S                   10000000     kernel32:KERNEL32.dll
 0000:ffea5000       .debug$S                   10000000     kernel32:KERNEL32.dll
 0000:ffea5000       .debug$S                   10000000     kernel32:KERNEL32.dll
 0000:ffea5000       .debug$S                   10000000     kernel32:KERNEL32.dll
 0000:ffea5000       .debug$S                   10000000     kernel32:KERNEL32.dll
 0000:ffea5000       .debug$S                   10000000     kernel32:KERNEL32.dll
 0000:ffea5000       .debug$S                   10000000     kernel32:KERNEL32.dll
 0000:ffea5000       .debug$S                   10000000     kernel32:KERNEL32.dll
 0000:ffea5000       .debug$S                   10000000     kernel32:KERNEL32.dll
 0000:ffea5000       .debug$S                   10000000     kernel32:KERNEL32.dll
 0000:ffea5000       .debug$S                   10000000     kernel32:KERNEL32.dll
 0000:ffea5000       .debug$S                   10000000     kernel32:KERNEL32.dll
 0000:ffea5000       .debug$S                   10000000     kernel32:KERNEL32.dll
 0000:ffea5000       .debug$S                   10000000     kernel32:KERNEL32.dll
 0000:ffea5000       .debug$S                   10000000     kernel32:KERNEL32.dll
 0000:ffea5000       .debug$S                   10000000     kernel32:KERNEL32.dll
 0000:ffea5000       .debug$S                   10000000     kernel32:KERNEL32.dll
 0000:ffea5000       .debug$S                   10000000     kernel32:KERNEL32.dll
 0000:ffea5000       .debug$S                   10000000     kernel32:KERNEL32.dll
 0000:ffea5000       .debug$S                   10000000     kernel32:KERNEL32.dll
 0001:00000000       ??__EgCounterFreq@shdfnd@physx@@YAXXZ 10001000 f   PsWindowsTime.obj
 0001:00000040       ??__EsTickDuration@?A0xd02160aa@@YAXXZ 10001040 f   PsWindowsTime.obj
 0001:00000080       ??__EsAssertHandler@?A0x06c62945@@YAXXZ 10001080 f   PsAssert.obj
 0001:00000090       ??__E?MBPPostUpdate@BroadPhase@ProfileEventId@Cm@physx@@2UPxProfileEventId@4@B@@YAXXZ 10001090 f   CmEventProfiler.obj
 0001:000000b0       ??__E?MBPPostUpdateSPU@BroadPhase@ProfileEventId@Cm@physx@@2UPxProfileEventId@4@B@@YAXXZ 100010b0 f   CmEventProfiler.obj
 0001:000000d0       ??__E?MBPUpdate@BroadPhase@ProfileEventId@Cm@physx@@2UPxProfileEventId@4@B@@YAXXZ 100010d0 f   CmEventProfiler.obj
 0001:000000f0       ??__E?MBPUpdateSPU@BroadPhase@ProfileEventId@Cm@physx@@2UPxProfileEventId@4@B@@YAXXZ 100010f0 f   CmEventProfiler.obj
 0001:00000110       ??__E?SapPostUpdate@BroadPhase@ProfileEventId@Cm@physx@@2UPxProfileEventId@4@B@@YAXXZ 10001110 f   CmEventProfiler.obj
 0001:00000130       ??__E?SapPostUpdateSPU@BroadPhase@ProfileEventId@Cm@physx@@2UPxProfileEventId@4@B@@YAXXZ 10001130 f   CmEventProfiler.obj
 0001:00000150       ??__E?SapUpdate@BroadPhase@ProfileEventId@Cm@physx@@2UPxProfileEventId@4@B@@YAXXZ 10001150 f   CmEventProfiler.obj
 0001:00000170       ??__E?SapUpdateSPU@BroadPhase@ProfileEventId@Cm@physx@@2UPxProfileEventId@4@B@@YAXXZ 10001170 f   CmEventProfiler.obj
 0001:00000190       ??__E?addActor@API@ProfileEventId@Cm@physx@@2UPxProfileEventId@4@B@@YAXXZ 10001190 f   CmEventProfiler.obj
 0001:000001b0       ??__E?addActorToSim@API@ProfileEventId@Cm@physx@@2UPxProfileEventId@4@B@@YAXXZ 100011b0 f   CmEventProfiler.obj
 0001:000001d0       ??__E?addActors@API@ProfileEventId@Cm@physx@@2UPxProfileEventId@4@B@@YAXXZ 100011d0 f   CmEventProfiler.obj
 0001:000001f0       ??__E?addAggregate@API@ProfileEventId@Cm@physx@@2UPxProfileEventId@4@B@@YAXXZ 100011f0 f   CmEventProfiler.obj
 0001:00000210       ??__E?addArticulation@API@ProfileEventId@Cm@physx@@2UPxProfileEventId@4@B@@YAXXZ 10001210 f   CmEventProfiler.obj
 0001:00000230       ??__E?addCloth@API@ProfileEventId@Cm@physx@@2UPxProfileEventId@4@B@@YAXXZ 10001230 f   CmEventProfiler.obj
 0001:00000250       ??__E?addCollection@API@ProfileEventId@Cm@physx@@2UPxProfileEventId@4@B@@YAXXZ 10001250 f   CmEventProfiler.obj
 0001:00000270       ??__E?addParticleFluid@API@ProfileEventId@Cm@physx@@2UPxProfileEventId@4@B@@YAXXZ 10001270 f   CmEventProfiler.obj
 0001:00000290       ??__E?addParticleSystem@API@ProfileEventId@Cm@physx@@2UPxProfileEventId@4@B@@YAXXZ 10001290 f   CmEventProfiler.obj
 0001:000002b0       ??__E?addShapesToSQ@API@ProfileEventId@Cm@physx@@2UPxProfileEventId@4@B@@YAXXZ 100012b0 f   CmEventProfiler.obj
 0001:000002d0       ??__E?addShapesToSim@API@ProfileEventId@Cm@physx@@2UPxProfileEventId@4@B@@YAXXZ 100012d0 f   CmEventProfiler.obj
 0001:000002f0       ??__E?applyExternalImpulses@Articulations@ProfileEventId@Cm@physx@@2UPxProfileEventId@4@B@@YAXXZ 100012f0 f   CmEventProfiler.obj
 0001:00000310       ??__E?applyJointDrives@Articulations@ProfileEventId@Cm@physx@@2UPxProfileEventId@4@B@@YAXXZ 10001310 f   CmEventProfiler.obj
 0001:00000330       ??__E?broadPhase@Basic@ProfileEventId@Cm@physx@@2UPxProfileEventId@4@B@@YAXXZ 10001330 f   CmEventProfiler.obj
 0001:00000350       ??__E?brokenEdgeIslands@IslandGen@ProfileEventId@Cm@physx@@2UPxProfileEventId@4@B@@YAXXZ 10001350 f   CmEventProfiler.obj
 0001:00000370       ??__E?buildActiveTransforms@Sim@ProfileEventId@Cm@physx@@2UPxProfileEventId@4@B@@YAXXZ 10001370 f   CmEventProfiler.obj
 0001:00000390       ??__E?ccdBroadPhase@Sim@ProfileEventId@Cm@physx@@2UPxProfileEventId@4@B@@YAXXZ 10001390 f   CmEventProfiler.obj
 0001:000003b0       ??__E?ccdBroadPhaseComplete@Sim@ProfileEventId@Cm@physx@@2UPxProfileEventId@4@B@@YAXXZ 100013b0 f   CmEventProfiler.obj
 0001:000003d0       ??__E?ccdIsland@Sim@ProfileEventId@Cm@physx@@2UPxProfileEventId@4@B@@YAXXZ 100013d0 f   CmEventProfiler.obj
 0001:000003f0       ??__E?ccdPair@Sim@ProfileEventId@Cm@physx@@2UPxProfileEventId@4@B@@YAXXZ 100013f0 f   CmEventProfiler.obj
 0001:00000410       ??__E?ccdSweep@Sim@ProfileEventId@Cm@physx@@2UPxProfileEventId@4@B@@YAXXZ 10001410 f   CmEventProfiler.obj
 0001:00000430       ??__E?ccdSweepMerge@Sim@ProfileEventId@Cm@physx@@2UPxProfileEventId@4@B@@YAXXZ 10001430 f   CmEventProfiler.obj
 0001:00000450       ??__E?checkCollision@Basic@ProfileEventId@Cm@physx@@2UPxProfileEventId@4@B@@YAXXZ 10001450 f   CmEventProfiler.obj
 0001:00000470       ??__E?checkConstraintBreakage@Sim@ProfileEventId@Cm@physx@@2UPxProfileEventId@4@B@@YAXXZ 10001470 f   CmEventProfiler.obj
 0001:00000490       ??__E?checkResults@Basic@ProfileEventId@Cm@physx@@2UPxProfileEventId@4@B@@YAXXZ 10001490 f   CmEventProfiler.obj
 0001:000004b0       ??__E?cleanupEdgeEvents@IslandGen@ProfileEventId@Cm@physx@@2UPxProfileEventId@4@B@@YAXXZ 100014b0 f   CmEventProfiler.obj
 0001:000004d0       ??__E?collideQueueTasks@Sim@ProfileEventId@Cm@physx@@2UPxProfileEventId@4@B@@YAXXZ 100014d0 f   CmEventProfiler.obj
 0001:000004f0       ??__E?collision@Basic@ProfileEventId@Cm@physx@@2UPxProfileEventId@4@B@@YAXXZ 100014f0 f   CmEventProfiler.obj
 0001:00000510       ??__E?computeAABBUpdateLists@BroadPhase@ProfileEventId@Cm@physx@@2UPxProfileEventId@4@B@@YAXXZ 10001510 f   CmEventProfiler.obj
 0001:00000530       ??__E?computeAggAggShapePairs@BroadPhase@ProfileEventId@Cm@physx@@2UPxProfileEventId@4@B@@YAXXZ 10001530 f   CmEventProfiler.obj
 0001:00000550       ??__E?computeJointDrives@Articulations@ProfileEventId@Cm@physx@@2UPxProfileEventId@4@B@@YAXXZ 10001550 f   CmEventProfiler.obj
 0001:00000570       ??__E?correlatePatches@Dynamics@ProfileEventId@Cm@physx@@2UPxProfileEventId@4@B@@YAXXZ 10001570 f   CmEventProfiler.obj
 0001:00000590       ??__E?createBatchQuery@API@ProfileEventId@Cm@physx@@2UPxProfileEventId@4@B@@YAXXZ 10001590 f   CmEventProfiler.obj
 0001:000005b0       ??__E?createContactPatches@Dynamics@ProfileEventId@Cm@physx@@2UPxProfileEventId@4@B@@YAXXZ 100015b0 f   CmEventProfiler.obj
 0001:000005d0       ??__E?createFinalize@Dynamics@ProfileEventId@Cm@physx@@2UPxProfileEventId@4@B@@YAXXZ 100015d0 f   CmEventProfiler.obj
 0001:000005f0       ??__E?createPVDInstance@PVD@ProfileEventId@Cm@physx@@2UPxProfileEventId@4@B@@YAXXZ 100015f0 f   CmEventProfiler.obj
 0001:00000610       ??__E?createdNodes@IslandGen@ProfileEventId@Cm@physx@@2UPxProfileEventId@4@B@@YAXXZ 10001610 f   CmEventProfiler.obj
 0001:00000630       ??__E?deletedNodesEdges@IslandGen@ProfileEventId@Cm@physx@@2UPxProfileEventId@4@B@@YAXXZ 10001630 f   CmEventProfiler.obj
 0001:00000650       ??__E?duplicateKinematicNodes@IslandGen@ProfileEventId@Cm@physx@@2UPxProfileEventId@4@B@@YAXXZ 10001650 f   CmEventProfiler.obj
 0001:00000670       ??__E?dynamics@Basic@ProfileEventId@Cm@physx@@2UPxProfileEventId@4@B@@YAXXZ 10001670 f   CmEventProfiler.obj
 0001:00000690       ??__E?emptyIslands@IslandGen@ProfileEventId@Cm@physx@@2UPxProfileEventId@4@B@@YAXXZ 10001690 f   CmEventProfiler.obj
 0001:000006b0       ??__E?endStep@ParticleSim@ProfileEventId@Cm@physx@@2UPxProfileEventId@4@B@@YAXXZ 100016b0 f   CmEventProfiler.obj
 0001:000006d0       ??__E?execute@BatchedSceneQuery@ProfileEventId@Cm@physx@@2UPxProfileEventId@4@B@@YAXXZ 100016d0 f   CmEventProfiler.obj
 0001:000006f0       ??__E?fetchResults@Basic@ProfileEventId@Cm@physx@@2UPxProfileEventId@4@B@@YAXXZ 100016f0 f   CmEventProfiler.obj
 0001:00000710       ??__E?fetchResults@Sim@ProfileEventId@Cm@physx@@2UPxProfileEventId@4@B@@YAXXZ 10001710 f   CmEventProfiler.obj
 0001:00000730       ??__E?findAndReplaceWithLast@API@ProfileEventId@Cm@physx@@2UPxProfileEventId@4@B@@YAXXZ 10001730 f   CmEventProfiler.obj
 0001:00000750       ??__E?finish@BroadPhase@ProfileEventId@Cm@physx@@2UPxProfileEventId@4@B@@YAXXZ 10001750 f   CmEventProfiler.obj
 0001:00000770       ??__E?finishModifiablePairs@Sim@ProfileEventId@Cm@physx@@2UPxProfileEventId@4@B@@YAXXZ 10001770 f   CmEventProfiler.obj
 0001:00000790       ??__E?fireCallBacksPostSync@Sim@ProfileEventId@Cm@physx@@2UPxProfileEventId@4@B@@YAXXZ 10001790 f   CmEventProfiler.obj
 0001:000007b0       ??__E?fireCallBacksPreSync@Sim@ProfileEventId@Cm@physx@@2UPxProfileEventId@4@B@@YAXXZ 100017b0 f   CmEventProfiler.obj
 0001:000007d0       ??__E?fireCustomFilteringCallbacks@Sim@ProfileEventId@Cm@physx@@2UPxProfileEventId@4@B@@YAXXZ 100017d0 f   CmEventProfiler.obj
 0001:000007f0       ??__E?flushQueryUpdates@API@ProfileEventId@Cm@physx@@2UPxProfileEventId@4@B@@YAXXZ 100017f0 f   CmEventProfiler.obj
 0001:00000810       ??__E?flushSimulation@API@ProfileEventId@Cm@physx@@2UPxProfileEventId@4@B@@YAXXZ 10001810 f   CmEventProfiler.obj
 0001:00000830       ??__E?flushUpdates@SceneQuery@ProfileEventId@Cm@physx@@2UPxProfileEventId@4@B@@YAXXZ 10001830 f   CmEventProfiler.obj
 0001:00000850       ??__E?forceDynamicTreeRebuild@API@ProfileEventId@Cm@physx@@2UPxProfileEventId@4@B@@YAXXZ 10001850 f   CmEventProfiler.obj
 0001:00000870       ??__E?freeBuffers@IslandGen@ProfileEventId@Cm@physx@@2UPxProfileEventId@4@B@@YAXXZ 10001870 f   CmEventProfiler.obj
 0001:00000890       ??__E?getFrictionPatch@Dynamics@ProfileEventId@Cm@physx@@2UPxProfileEventId@4@B@@YAXXZ 10001890 f   CmEventProfiler.obj
 0001:000008b0       ??__E?getSimEvents@Sim@ProfileEventId@Cm@physx@@2UPxProfileEventId@4@B@@YAXXZ 100018b0 f   CmEventProfiler.obj
 0001:000008d0       ??__E?growPatches@Dynamics@ProfileEventId@Cm@physx@@2UPxProfileEventId@4@B@@YAXXZ 100018d0 f   CmEventProfiler.obj
 0001:000008f0       ??__E?integrate@Articulations@ProfileEventId@Cm@physx@@2UPxProfileEventId@4@B@@YAXXZ 100018f0 f   CmEventProfiler.obj
 0001:00000910       ??__E?islandGen@Basic@ProfileEventId@Cm@physx@@2UPxProfileEventId@4@B@@YAXXZ 10001910 f   CmEventProfiler.obj
 0001:00000930       ??__E?joinedEdges@IslandGen@ProfileEventId@Cm@physx@@2UPxProfileEventId@4@B@@YAXXZ 10001930 f   CmEventProfiler.obj
 0001:00000950       ??__E?jointLoads@Articulations@ProfileEventId@Cm@physx@@2UPxProfileEventId@4@B@@YAXXZ 10001950 f   CmEventProfiler.obj
 0001:00000970       ??__E?narrowPhase@Basic@ProfileEventId@Cm@physx@@2UPxProfileEventId@4@B@@YAXXZ 10001970 f   CmEventProfiler.obj
 0001:00000990       ??__E?narrowPhase@Sim@ProfileEventId@Cm@physx@@2UPxProfileEventId@4@B@@YAXXZ 10001990 f   CmEventProfiler.obj
 0001:000009b0       ??__E?narrowPhaseMerge@Sim@ProfileEventId@Cm@physx@@2UPxProfileEventId@4@B@@YAXXZ 100019b0 f   CmEventProfiler.obj
 0001:000009d0       ??__E?originShift@PVD@ProfileEventId@Cm@physx@@2UPxProfileEventId@4@B@@YAXXZ 100019d0 f   CmEventProfiler.obj
 0001:000009f0       ??__E?overlapMultiple@BatchedSceneQuery@ProfileEventId@Cm@physx@@2UPxProfileEventId@4@B@@YAXXZ 100019f0 f   CmEventProfiler.obj
 0001:00000a10       ??__E?overlapMultiple@SceneQuery@ProfileEventId@Cm@physx@@2UPxProfileEventId@4@B@@YAXXZ 10001a10 f   CmEventProfiler.obj
 0001:00000a30       ??__E?parallelSolve@Dynamics@ProfileEventId@Cm@physx@@2UPxProfileEventId@4@B@@YAXXZ 10001a30 f   CmEventProfiler.obj
 0001:00000a50       ??__E?postIslandGenSecondPass@Sim@ProfileEventId@Cm@physx@@2UPxProfileEventId@4@B@@YAXXZ 10001a50 f   CmEventProfiler.obj
 0001:00000a70       ??__E?preIslandGen@Sim@ProfileEventId@Cm@physx@@2UPxProfileEventId@4@B@@YAXXZ 10001a70 f   CmEventProfiler.obj
 0001:00000a90       ??__E?preIslandGenSecondPass@Sim@ProfileEventId@Cm@physx@@2UPxProfileEventId@4@B@@YAXXZ 10001a90 f   CmEventProfiler.obj
 0001:00000ab0       ??__E?prepareDataBlock@Articulations@ProfileEventId@Cm@physx@@2UPxProfileEventId@4@B@@YAXXZ 10001ab0 f   CmEventProfiler.obj
 0001:00000ad0       ??__E?prepareFsData@Articulations@ProfileEventId@Cm@physx@@2UPxProfileEventId@4@B@@YAXXZ 10001ad0 f   CmEventProfiler.obj
 0001:00000af0       ??__E?processBPResults@BroadPhase@ProfileEventId@Cm@physx@@2UPxProfileEventId@4@B@@YAXXZ 10001af0 f   CmEventProfiler.obj
 0001:00000b10       ??__E?processLostOverlaps@Sim@ProfileEventId@Cm@physx@@2UPxProfileEventId@4@B@@YAXXZ 10001b10 f   CmEventProfiler.obj
 0001:00000b30       ??__E?processNewOverlaps@Sim@ProfileEventId@Cm@physx@@2UPxProfileEventId@4@B@@YAXXZ 10001b30 f   CmEventProfiler.obj
 0001:00000b50       ??__E?processSleepingIslands@IslandGen@ProfileEventId@Cm@physx@@2UPxProfileEventId@4@B@@YAXXZ 10001b50 f   CmEventProfiler.obj
 0001:00000b70       ??__E?processTriggers@Sim@ProfileEventId@Cm@physx@@2UPxProfileEventId@4@B@@YAXXZ 10001b70 f   CmEventProfiler.obj
 0001:00000b90       ??__E?projectConstraints@Sim@ProfileEventId@Cm@physx@@2UPxProfileEventId@4@B@@YAXXZ 10001b90 f   CmEventProfiler.obj
 0001:00000bb0       ??__E?projectContacts@Sim@ProfileEventId@Cm@physx@@2UPxProfileEventId@4@B@@YAXXZ 10001bb0 f   CmEventProfiler.obj
 0001:00000bd0       ??__E?projectionTreeUpdates@Sim@ProfileEventId@Cm@physx@@2UPxProfileEventId@4@B@@YAXXZ 10001bd0 f   CmEventProfiler.obj
 0001:00000bf0       ??__E?propagateDrivenInertia@Articulations@ProfileEventId@Cm@physx@@2UPxProfileEventId@4@B@@YAXXZ 10001bf0 f   CmEventProfiler.obj
 0001:00000c10       ??__E?pvdFrameStart@Basic@ProfileEventId@Cm@physx@@2UPxProfileEventId@4@B@@YAXXZ 10001c10 f   CmEventProfiler.obj
 0001:00000c30       ??__E?queueNarrowPhase@Sim@ProfileEventId@Cm@physx@@2UPxProfileEventId@4@B@@YAXXZ 10001c30 f   CmEventProfiler.obj
 0001:00000c50       ??__E?raycastAny@BatchedSceneQuery@ProfileEventId@Cm@physx@@2UPxProfileEventId@4@B@@YAXXZ 10001c50 f   CmEventProfiler.obj
 0001:00000c70       ??__E?raycastAny@SceneQuery@ProfileEventId@Cm@physx@@2UPxProfileEventId@4@B@@YAXXZ 10001c70 f   CmEventProfiler.obj
 0001:00000c90       ??__E?raycastMultiple@BatchedSceneQuery@ProfileEventId@Cm@physx@@2UPxProfileEventId@4@B@@YAXXZ 10001c90 f   CmEventProfiler.obj
 0001:00000cb0       ??__E?raycastMultiple@SceneQuery@ProfileEventId@Cm@physx@@2UPxProfileEventId@4@B@@YAXXZ 10001cb0 f   CmEventProfiler.obj
 0001:00000cd0       ??__E?raycastSingle@BatchedSceneQuery@ProfileEventId@Cm@physx@@2UPxProfileEventId@4@B@@YAXXZ 10001cd0 f   CmEventProfiler.obj
 0001:00000cf0       ??__E?raycastSingle@SceneQuery@ProfileEventId@Cm@physx@@2UPxProfileEventId@4@B@@YAXXZ 10001cf0 f   CmEventProfiler.obj
 0001:00000d10       ??__E?releaseBatchQuery@API@ProfileEventId@Cm@physx@@2UPxProfileEventId@4@B@@YAXXZ 10001d10 f   CmEventProfiler.obj
 0001:00000d30       ??__E?releasePVDInstance@PVD@ProfileEventId@Cm@physx@@2UPxProfileEventId@4@B@@YAXXZ 10001d30 f   CmEventProfiler.obj
 0001:00000d50       ??__E?removeActor@API@ProfileEventId@Cm@physx@@2UPxProfileEventId@4@B@@YAXXZ 10001d50 f   CmEventProfiler.obj
 0001:00000d70       ??__E?removeActorFromSim@API@ProfileEventId@Cm@physx@@2UPxProfileEventId@4@B@@YAXXZ 10001d70 f   CmEventProfiler.obj
 0001:00000d90       ??__E?removeActors@API@ProfileEventId@Cm@physx@@2UPxProfileEventId@4@B@@YAXXZ 10001d90 f   CmEventProfiler.obj
 0001:00000db0       ??__E?removeAggregate@API@ProfileEventId@Cm@physx@@2UPxProfileEventId@4@B@@YAXXZ 10001db0 f   CmEventProfiler.obj
 0001:00000dd0       ??__E?removeArticulation@API@ProfileEventId@Cm@physx@@2UPxProfileEventId@4@B@@YAXXZ 10001dd0 f   CmEventProfiler.obj
 0001:00000df0       ??__E?removeCloth@API@ProfileEventId@Cm@physx@@2UPxProfileEventId@4@B@@YAXXZ 10001df0 f   CmEventProfiler.obj
 0001:00000e10       ??__E?removeParticleFluid@API@ProfileEventId@Cm@physx@@2UPxProfileEventId@4@B@@YAXXZ 10001e10 f   CmEventProfiler.obj
 0001:00000e30       ??__E?removeParticleSystem@API@ProfileEventId@Cm@physx@@2UPxProfileEventId@4@B@@YAXXZ 10001e30 f   CmEventProfiler.obj
 0001:00000e50       ??__E?removeShapesFromSQ@API@ProfileEventId@Cm@physx@@2UPxProfileEventId@4@B@@YAXXZ 10001e50 f   CmEventProfiler.obj
 0001:00000e70       ??__E?removeShapesFromSim@API@ProfileEventId@Cm@physx@@2UPxProfileEventId@4@B@@YAXXZ 10001e70 f   CmEventProfiler.obj
 0001:00000e90       ??__E?resetDependencies@Sim@ProfileEventId@Cm@physx@@2UPxProfileEventId@4@B@@YAXXZ 10001e90 f   CmEventProfiler.obj
 0001:00000eb0       ??__E?resizeArrays@IslandGen@ProfileEventId@Cm@physx@@2UPxProfileEventId@4@B@@YAXXZ 10001eb0 f   CmEventProfiler.obj
 0001:00000ed0       ??__E?resizeForKinematics@IslandGen@ProfileEventId@Cm@physx@@2UPxProfileEventId@4@B@@YAXXZ 10001ed0 f   CmEventProfiler.obj
 0001:00000ef0       ??__E?rigidBodySolver@Basic@ProfileEventId@Cm@physx@@2UPxProfileEventId@4@B@@YAXXZ 10001ef0 f   CmEventProfiler.obj
 0001:00000f10       ??__E?sceneFinalization@Sim@ProfileEventId@Cm@physx@@2UPxProfileEventId@4@B@@YAXXZ 10001f10 f   CmEventProfiler.obj
 0001:00000f30       ??__E?sceneUpdate@PVD@ProfileEventId@Cm@physx@@2UPxProfileEventId@4@B@@YAXXZ 10001f30 f   CmEventProfiler.obj
 0001:00000f50       ??__E?sendPVDArrays@PVD@ProfileEventId@Cm@physx@@2UPxProfileEventId@4@B@@YAXXZ 10001f50 f   CmEventProfiler.obj
 0001:00000f70       ??__E?setupConstraints@Articulations@ProfileEventId@Cm@physx@@2UPxProfileEventId@4@B@@YAXXZ 10001f70 f   CmEventProfiler.obj
 0001:00000f90       ??__E?setupDrives@Articulations@ProfileEventId@Cm@physx@@2UPxProfileEventId@4@B@@YAXXZ 10001f90 f   CmEventProfiler.obj
 0001:00000fb0       ??__E?setupFinalize@Dynamics@ProfileEventId@Cm@physx@@2UPxProfileEventId@4@B@@YAXXZ 10001fb0 f   CmEventProfiler.obj
 0001:00000fd0       ??__E?setupProject@Articulations@ProfileEventId@Cm@physx@@2UPxProfileEventId@4@B@@YAXXZ 10001fd0 f   CmEventProfiler.obj
 0001:00000ff0       ??__E?shapesUpdateProcessing@ParticleSim@ProfileEventId@Cm@physx@@2UPxProfileEventId@4@B@@YAXXZ 10001ff0 f   CmEventProfiler.obj
 0001:00001010       ??__E?shiftOrigin@API@ProfileEventId@Cm@physx@@2UPxProfileEventId@4@B@@YAXXZ 10002010 f   CmEventProfiler.obj
 0001:00001030       ??__E?simAddShapeToBroadPhase@API@ProfileEventId@Cm@physx@@2UPxProfileEventId@4@B@@YAXXZ 10002030 f   CmEventProfiler.obj
 0001:00001050       ??__E?simulate@Basic@ProfileEventId@Cm@physx@@2UPxProfileEventId@4@B@@YAXXZ 10002050 f   CmEventProfiler.obj
 0001:00001070       ??__E?solveGroup@Dynamics@ProfileEventId@Cm@physx@@2UPxProfileEventId@4@B@@YAXXZ 10002070 f   CmEventProfiler.obj
 0001:00001090       ??__E?solveQueueTasks@Sim@ProfileEventId@Cm@physx@@2UPxProfileEventId@4@B@@YAXXZ 10002090 f   CmEventProfiler.obj
 0001:000010b0       ??__E?solver@Dynamics@ProfileEventId@Cm@physx@@2UPxProfileEventId@4@B@@YAXXZ 100020b0 f   CmEventProfiler.obj
 0001:000010d0       ??__E?solverMergeResults@Dynamics@ProfileEventId@Cm@physx@@2UPxProfileEventId@4@B@@YAXXZ 100020d0 f   CmEventProfiler.obj
 0001:000010f0       ??__E?solverQueueTasks@Dynamics@ProfileEventId@Cm@physx@@2UPxProfileEventId@4@B@@YAXXZ 100020f0 f   CmEventProfiler.obj
 0001:00001110       ??__E?startStep@ParticleSim@ProfileEventId@Cm@physx@@2UPxProfileEventId@4@B@@YAXXZ 10002110 f   CmEventProfiler.obj
 0001:00001130       ??__E?stepSetupCollide@Sim@ProfileEventId@Cm@physx@@2UPxProfileEventId@4@B@@YAXXZ 10002130 f   CmEventProfiler.obj
 0001:00001150       ??__E?stepSetupSimulate@Sim@ProfileEventId@Cm@physx@@2UPxProfileEventId@4@B@@YAXXZ 10002150 f   CmEventProfiler.obj
 0001:00001170       ??__E?stepSetupSolve@Sim@ProfileEventId@Cm@physx@@2UPxProfileEventId@4@B@@YAXXZ 10002170 f   CmEventProfiler.obj
 0001:00001190       ??__E?sweepAny@SceneQuery@ProfileEventId@Cm@physx@@2UPxProfileEventId@4@B@@YAXXZ 10002190 f   CmEventProfiler.obj
 0001:000011b0       ??__E?sweepAnyList@SceneQuery@ProfileEventId@Cm@physx@@2UPxProfileEventId@4@B@@YAXXZ 100021b0 f   CmEventProfiler.obj
 0001:000011d0       ??__E?sweepMultiple@BatchedSceneQuery@ProfileEventId@Cm@physx@@2UPxProfileEventId@4@B@@YAXXZ 100021d0 f   CmEventProfiler.obj
 0001:000011f0       ??__E?sweepMultiple@SceneQuery@ProfileEventId@Cm@physx@@2UPxProfileEventId@4@B@@YAXXZ 100021f0 f   CmEventProfiler.obj
 0001:00001210       ??__E?sweepMultipleList@SceneQuery@ProfileEventId@Cm@physx@@2UPxProfileEventId@4@B@@YAXXZ 10002210 f   CmEventProfiler.obj
 0001:00001230       ??__E?sweepSingle@BatchedSceneQuery@ProfileEventId@Cm@physx@@2UPxProfileEventId@4@B@@YAXXZ 10002230 f   CmEventProfiler.obj
 0001:00001250       ??__E?sweepSingle@SceneQuery@ProfileEventId@Cm@physx@@2UPxProfileEventId@4@B@@YAXXZ 10002250 f   CmEventProfiler.obj
 0001:00001270       ??__E?sweepSingleList@SceneQuery@ProfileEventId@Cm@physx@@2UPxProfileEventId@4@B@@YAXXZ 10002270 f   CmEventProfiler.obj
 0001:00001290       ??__E?syncBodiesAfterIntegration@Sim@ProfileEventId@Cm@physx@@2UPxProfileEventId@4@B@@YAXXZ 10002290 f   CmEventProfiler.obj
 0001:000012b0       ??__E?syncBodiesAfterSolver@Sim@ProfileEventId@Cm@physx@@2UPxProfileEventId@4@B@@YAXXZ 100022b0 f   CmEventProfiler.obj
 0001:000012d0       ??__E?syncState@Sim@ProfileEventId@Cm@physx@@2UPxProfileEventId@4@B@@YAXXZ 100022d0 f   CmEventProfiler.obj
 0001:000012f0       ??__E?taskFrameworkSetup@Sim@ProfileEventId@Cm@physx@@2UPxProfileEventId@4@B@@YAXXZ 100022f0 f   CmEventProfiler.obj
 0001:00001310       ??__E?updateAggAABBs@BroadPhase@ProfileEventId@Cm@physx@@2UPxProfileEventId@4@B@@YAXXZ 10002310 f   CmEventProfiler.obj
 0001:00001330       ??__E?updateAggLocalSpaceBounds@BroadPhase@ProfileEventId@Cm@physx@@2UPxProfileEventId@4@B@@YAXXZ 10002330 f   CmEventProfiler.obj
 0001:00001350       ??__E?updateBroadphase@BroadPhase@ProfileEventId@Cm@physx@@2UPxProfileEventId@4@B@@YAXXZ 10002350 f   CmEventProfiler.obj
 0001:00001370       ??__E?updateCCDMultiPass@Sim@ProfileEventId@Cm@physx@@2UPxProfileEventId@4@B@@YAXXZ 10002370 f   CmEventProfiler.obj
 0001:00001390       ??__E?updateCCDSinglePass@Sim@ProfileEventId@Cm@physx@@2UPxProfileEventId@4@B@@YAXXZ 10002390 f   CmEventProfiler.obj
 0001:000013b0       ??__E?updateCloths@PVD@ProfileEventId@Cm@physx@@2UPxProfileEventId@4@B@@YAXXZ 100023b0 f   CmEventProfiler.obj
 0001:000013d0       ??__E?updateCollision@ParticleSim@ProfileEventId@Cm@physx@@2UPxProfileEventId@4@B@@YAXXZ 100023d0 f   CmEventProfiler.obj
 0001:000013f0       ??__E?updateContacts@PVD@ProfileEventId@Cm@physx@@2UPxProfileEventId@4@B@@YAXXZ 100023f0 f   CmEventProfiler.obj
 0001:00001410       ??__E?updateDirtyShaders@Sim@ProfileEventId@Cm@physx@@2UPxProfileEventId@4@B@@YAXXZ 10002410 f   CmEventProfiler.obj
 0001:00001430       ??__E?updateDynamicBodies@PVD@ProfileEventId@Cm@physx@@2UPxProfileEventId@4@B@@YAXXZ 10002430 f   CmEventProfiler.obj
 0001:00001450       ??__E?updateForces@Sim@ProfileEventId@Cm@physx@@2UPxProfileEventId@4@B@@YAXXZ 10002450 f   CmEventProfiler.obj
 0001:00001470       ??__E?updateIslands@Sim@ProfileEventId@Cm@physx@@2UPxProfileEventId@4@B@@YAXXZ 10002470 f   CmEventProfiler.obj
 0001:00001490       ??__E?updateIslandsSecondPass@Sim@ProfileEventId@Cm@physx@@2UPxProfileEventId@4@B@@YAXXZ 10002490 f   CmEventProfiler.obj
 0001:000014b0       ??__E?updateJoints@PVD@ProfileEventId@Cm@physx@@2UPxProfileEventId@4@B@@YAXXZ 100024b0 f   CmEventProfiler.obj
 0001:000014d0       ??__E?updateKinematics@Dynamics@ProfileEventId@Cm@physx@@2UPxProfileEventId@4@B@@YAXXZ 100024d0 f   CmEventProfiler.obj
 0001:000014f0       ??__E?updateLazyAggShapeAABBs@BroadPhase@ProfileEventId@Cm@physx@@2UPxProfileEventId@4@B@@YAXXZ 100024f0 f   CmEventProfiler.obj
 0001:00001510       ??__E?updatePVDProperties@PVD@ProfileEventId@Cm@physx@@2UPxProfileEventId@4@B@@YAXXZ 10002510 f   CmEventProfiler.obj
 0001:00001530       ??__E?updatePariclesAndFluids@PVD@ProfileEventId@Cm@physx@@2UPxProfileEventId@4@B@@YAXXZ 10002530 f   CmEventProfiler.obj
 0001:00001550       ??__E?updatePositions@Dynamics@ProfileEventId@Cm@physx@@2UPxProfileEventId@4@B@@YAXXZ 10002550 f   CmEventProfiler.obj
 0001:00001570       ??__E?updatePruningTrees@Sim@ProfileEventId@Cm@physx@@2UPxProfileEventId@4@B@@YAXXZ 10002570 f   CmEventProfiler.obj
 0001:00001590       ??__E?updateShapeAABBs@BroadPhase@ProfileEventId@Cm@physx@@2UPxProfileEventId@4@B@@YAXXZ 10002590 f   CmEventProfiler.obj
 0001:000015b0       ??__E?updateSleeping@PVD@ProfileEventId@Cm@physx@@2UPxProfileEventId@4@B@@YAXXZ 100025b0 f   CmEventProfiler.obj
 0001:000015d0       ??__E?updateVelocities@Dynamics@ProfileEventId@Cm@physx@@2UPxProfileEventId@4@B@@YAXXZ 100025d0 f   CmEventProfiler.obj
 0001:000015f0       ??__E?visualizeEndStep@Sim@ProfileEventId@Cm@physx@@2UPxProfileEventId@4@B@@YAXXZ 100025f0 f   CmEventProfiler.obj
 0001:00001610       ??__E?visualizeStartStep@Sim@ProfileEventId@Cm@physx@@2UPxProfileEventId@4@B@@YAXXZ 10002610 f   CmEventProfiler.obj
 0001:00001630       ??__EgEventNames@@YAXXZ    10002630 f   CmEventProfiler.obj
 0001:00002470       ??__EmaxFError@_VecMathTests@aos@shdfnd@physx@@YAXXZ 10003470 f   GuContactCapsuleMesh.obj
 0001:00002490       ??__EmaxV3Error@_VecMathTests@aos@shdfnd@physx@@YAXXZ 10003490 f   GuContactCapsuleMesh.obj
 0001:000024a0       ??__EmaxV4Error@_VecMathTests@aos@shdfnd@physx@@YAXXZ 100034a0 f   GuContactCapsuleMesh.obj
 0001:000024c0       ??__EminFError@_VecMathTests@aos@shdfnd@physx@@YAXXZ 100034c0 f   GuContactCapsuleMesh.obj
 0001:000024e0       ??__EminV3Error@_VecMathTests@aos@shdfnd@physx@@YAXXZ 100034e0 f   GuContactCapsuleMesh.obj
 0001:000024f0       ??__EminV4Error@_VecMathTests@aos@shdfnd@physx@@YAXXZ 100034f0 f   GuContactCapsuleMesh.obj
 0001:00002510       ??__EmaxFError@_VecMathTests@aos@shdfnd@physx@@YAXXZ 10003510 f   GuContactConvexMesh.obj
 0001:00002530       ??__EmaxV3Error@_VecMathTests@aos@shdfnd@physx@@YAXXZ 10003530 f   GuContactConvexMesh.obj
 0001:00002540       ??__EmaxV4Error@_VecMathTests@aos@shdfnd@physx@@YAXXZ 10003540 f   GuContactConvexMesh.obj
 0001:00002560       ??__EminFError@_VecMathTests@aos@shdfnd@physx@@YAXXZ 10003560 f   GuContactConvexMesh.obj
 0001:00002580       ??__EminV3Error@_VecMathTests@aos@shdfnd@physx@@YAXXZ 10003580 f   GuContactConvexMesh.obj
 0001:00002590       ??__EminV4Error@_VecMathTests@aos@shdfnd@physx@@YAXXZ 10003590 f   GuContactConvexMesh.obj
 0001:000025b0       ??__EmaxFError@_VecMathTests@aos@shdfnd@physx@@YAXXZ 100035b0 f   GuContactPolygonPolygon.obj
 0001:000025d0       ??__EmaxV3Error@_VecMathTests@aos@shdfnd@physx@@YAXXZ 100035d0 f   GuContactPolygonPolygon.obj
 0001:000025e0       ??__EmaxV4Error@_VecMathTests@aos@shdfnd@physx@@YAXXZ 100035e0 f   GuContactPolygonPolygon.obj
 0001:00002600       ??__EminFError@_VecMathTests@aos@shdfnd@physx@@YAXXZ 10003600 f   GuContactPolygonPolygon.obj
 0001:00002620       ??__EminV3Error@_VecMathTests@aos@shdfnd@physx@@YAXXZ 10003620 f   GuContactPolygonPolygon.obj
 0001:00002630       ??__EminV4Error@_VecMathTests@aos@shdfnd@physx@@YAXXZ 10003630 f   GuContactPolygonPolygon.obj
 0001:00002650       ??__EmaxFError@_VecMathTests@aos@shdfnd@physx@@YAXXZ 10003650 f   GuContactSphereMesh.obj
 0001:00002670       ??__EmaxV3Error@_VecMathTests@aos@shdfnd@physx@@YAXXZ 10003670 f   GuContactSphereMesh.obj
 0001:00002680       ??__EmaxV4Error@_VecMathTests@aos@shdfnd@physx@@YAXXZ 10003680 f   GuContactSphereMesh.obj
 0001:000026a0       ??__EminFError@_VecMathTests@aos@shdfnd@physx@@YAXXZ 100036a0 f   GuContactSphereMesh.obj
 0001:000026c0       ??__EminV3Error@_VecMathTests@aos@shdfnd@physx@@YAXXZ 100036c0 f   GuContactSphereMesh.obj
 0001:000026d0       ??__EminV4Error@_VecMathTests@aos@shdfnd@physx@@YAXXZ 100036d0 f   GuContactSphereMesh.obj
 0001:000026f0       ??__EmaxFError@_VecMathTests@aos@shdfnd@physx@@YAXXZ 100036f0 f   GuBarycentricCoordinates.obj
 0001:00002710       ??__EmaxV3Error@_VecMathTests@aos@shdfnd@physx@@YAXXZ 10003710 f   GuBarycentricCoordinates.obj
 0001:00002720       ??__EmaxV4Error@_VecMathTests@aos@shdfnd@physx@@YAXXZ 10003720 f   GuBarycentricCoordinates.obj
 0001:00002740       ??__EminFError@_VecMathTests@aos@shdfnd@physx@@YAXXZ 10003740 f   GuBarycentricCoordinates.obj
 0001:00002760       ??__EminV3Error@_VecMathTests@aos@shdfnd@physx@@YAXXZ 10003760 f   GuBarycentricCoordinates.obj
 0001:00002770       ??__EminV4Error@_VecMathTests@aos@shdfnd@physx@@YAXXZ 10003770 f   GuBarycentricCoordinates.obj
 0001:00002790       ??__EmaxFError@_VecMathTests@aos@shdfnd@physx@@YAXXZ 10003790 f   GuConvexHelper.obj
 0001:000027b0       ??__EmaxV3Error@_VecMathTests@aos@shdfnd@physx@@YAXXZ 100037b0 f   GuConvexHelper.obj
 0001:000027c0       ??__EmaxV4Error@_VecMathTests@aos@shdfnd@physx@@YAXXZ 100037c0 f   GuConvexHelper.obj
 0001:000027e0       ??__EminFError@_VecMathTests@aos@shdfnd@physx@@YAXXZ 100037e0 f   GuConvexHelper.obj
 0001:00002800       ??__EminV3Error@_VecMathTests@aos@shdfnd@physx@@YAXXZ 10003800 f   GuConvexHelper.obj
 0001:00002810       ??__EminV4Error@_VecMathTests@aos@shdfnd@physx@@YAXXZ 10003810 f   GuConvexHelper.obj
 0001:00002830       ??__EboxVertexTable@physx@@YAXXZ 10003830 f   GuConvexSupportTable.obj
 0001:000028a0       ??__EmaxFError@_VecMathTests@aos@shdfnd@physx@@YAXXZ 100038a0 f   GuConvexSupportTable.obj
 0001:000028c0       ??__EmaxV3Error@_VecMathTests@aos@shdfnd@physx@@YAXXZ 100038c0 f   GuConvexSupportTable.obj
 0001:000028d0       ??__EmaxV4Error@_VecMathTests@aos@shdfnd@physx@@YAXXZ 100038d0 f   GuConvexSupportTable.obj
 0001:000028f0       ??__EminFError@_VecMathTests@aos@shdfnd@physx@@YAXXZ 100038f0 f   GuConvexSupportTable.obj
 0001:00002910       ??__EminV3Error@_VecMathTests@aos@shdfnd@physx@@YAXXZ 10003910 f   GuConvexSupportTable.obj
 0001:00002920       ??__EminV4Error@_VecMathTests@aos@shdfnd@physx@@YAXXZ 10003920 f   GuConvexSupportTable.obj
 0001:00002940       ??__EmaxFError@_VecMathTests@aos@shdfnd@physx@@YAXXZ 10003940 f   GuShapeConvex.obj
 0001:00002960       ??__EmaxV3Error@_VecMathTests@aos@shdfnd@physx@@YAXXZ 10003960 f   GuShapeConvex.obj
 0001:00002970       ??__EmaxV4Error@_VecMathTests@aos@shdfnd@physx@@YAXXZ 10003970 f   GuShapeConvex.obj
 0001:00002990       ??__EminFError@_VecMathTests@aos@shdfnd@physx@@YAXXZ 10003990 f   GuShapeConvex.obj
 0001:000029b0       ??__EminV3Error@_VecMathTests@aos@shdfnd@physx@@YAXXZ 100039b0 f   GuShapeConvex.obj
 0001:000029c0       ??__EminV4Error@_VecMathTests@aos@shdfnd@physx@@YAXXZ 100039c0 f   GuShapeConvex.obj
 0001:000029e0       ??__EmaxFError@_VecMathTests@aos@shdfnd@physx@@YAXXZ 100039e0 f   GuDistancePointSegment.obj
 0001:00002a00       ??__EmaxV3Error@_VecMathTests@aos@shdfnd@physx@@YAXXZ 10003a00 f   GuDistancePointSegment.obj
 0001:00002a10       ??__EmaxV4Error@_VecMathTests@aos@shdfnd@physx@@YAXXZ 10003a10 f   GuDistancePointSegment.obj
 0001:00002a30       ??__EminFError@_VecMathTests@aos@shdfnd@physx@@YAXXZ 10003a30 f   GuDistancePointSegment.obj
 0001:00002a50       ??__EminV3Error@_VecMathTests@aos@shdfnd@physx@@YAXXZ 10003a50 f   GuDistancePointSegment.obj
 0001:00002a60       ??__EminV4Error@_VecMathTests@aos@shdfnd@physx@@YAXXZ 10003a60 f   GuDistancePointSegment.obj
 0001:00002a80       ??__EmaxFError@_VecMathTests@aos@shdfnd@physx@@YAXXZ 10003a80 f   GuDistancePointTriangle.obj
 0001:00002aa0       ??__EmaxV3Error@_VecMathTests@aos@shdfnd@physx@@YAXXZ 10003aa0 f   GuDistancePointTriangle.obj
 0001:00002ab0       ??__EmaxV4Error@_VecMathTests@aos@shdfnd@physx@@YAXXZ 10003ab0 f   GuDistancePointTriangle.obj
 0001:00002ad0       ??__EminFError@_VecMathTests@aos@shdfnd@physx@@YAXXZ 10003ad0 f   GuDistancePointTriangle.obj
 0001:00002af0       ??__EminV3Error@_VecMathTests@aos@shdfnd@physx@@YAXXZ 10003af0 f   GuDistancePointTriangle.obj
 0001:00002b00       ??__EminV4Error@_VecMathTests@aos@shdfnd@physx@@YAXXZ 10003b00 f   GuDistancePointTriangle.obj
 0001:00002b20       ??__EmaxFError@_VecMathTests@aos@shdfnd@physx@@YAXXZ 10003b20 f   GuDistanceSegmentBox.obj
 0001:00002b40       ??__EmaxV3Error@_VecMathTests@aos@shdfnd@physx@@YAXXZ 10003b40 f   GuDistanceSegmentBox.obj
 0001:00002b50       ??__EmaxV4Error@_VecMathTests@aos@shdfnd@physx@@YAXXZ 10003b50 f   GuDistanceSegmentBox.obj
 0001:00002b70       ??__EminFError@_VecMathTests@aos@shdfnd@physx@@YAXXZ 10003b70 f   GuDistanceSegmentBox.obj
 0001:00002b90       ??__EminV3Error@_VecMathTests@aos@shdfnd@physx@@YAXXZ 10003b90 f   GuDistanceSegmentBox.obj
 0001:00002ba0       ??__EminV4Error@_VecMathTests@aos@shdfnd@physx@@YAXXZ 10003ba0 f   GuDistanceSegmentBox.obj
 0001:00002bc0       ??__EmaxFError@_VecMathTests@aos@shdfnd@physx@@YAXXZ 10003bc0 f   GuDistanceSegmentSegment.obj
 0001:00002be0       ??__EmaxV3Error@_VecMathTests@aos@shdfnd@physx@@YAXXZ 10003be0 f   GuDistanceSegmentSegment.obj
 0001:00002bf0       ??__EmaxV4Error@_VecMathTests@aos@shdfnd@physx@@YAXXZ 10003bf0 f   GuDistanceSegmentSegment.obj
 0001:00002c10       ??__EminFError@_VecMathTests@aos@shdfnd@physx@@YAXXZ 10003c10 f   GuDistanceSegmentSegment.obj
 0001:00002c30       ??__EminV3Error@_VecMathTests@aos@shdfnd@physx@@YAXXZ 10003c30 f   GuDistanceSegmentSegment.obj
 0001:00002c40       ??__EminV4Error@_VecMathTests@aos@shdfnd@physx@@YAXXZ 10003c40 f   GuDistanceSegmentSegment.obj
 0001:00002c60       ??__EmaxFError@_VecMathTests@aos@shdfnd@physx@@YAXXZ 10003c60 f   GuDistanceSegmentTriangle.obj
 0001:00002c80       ??__EmaxV3Error@_VecMathTests@aos@shdfnd@physx@@YAXXZ 10003c80 f   GuDistanceSegmentTriangle.obj
 0001:00002c90       ??__EmaxV4Error@_VecMathTests@aos@shdfnd@physx@@YAXXZ 10003c90 f   GuDistanceSegmentTriangle.obj
 0001:00002cb0       ??__EminFError@_VecMathTests@aos@shdfnd@physx@@YAXXZ 10003cb0 f   GuDistanceSegmentTriangle.obj
 0001:00002cd0       ??__EminV3Error@_VecMathTests@aos@shdfnd@physx@@YAXXZ 10003cd0 f   GuDistanceSegmentTriangle.obj
 0001:00002ce0       ??__EminV4Error@_VecMathTests@aos@shdfnd@physx@@YAXXZ 10003ce0 f   GuDistanceSegmentTriangle.obj
 0001:00002d00       ??__EmaxFError@_VecMathTests@aos@shdfnd@physx@@YAXXZ 10003d00 f   GuSweepBoxBox.obj
 0001:00002d20       ??__EmaxV3Error@_VecMathTests@aos@shdfnd@physx@@YAXXZ 10003d20 f   GuSweepBoxBox.obj
 0001:00002d30       ??__EmaxV4Error@_VecMathTests@aos@shdfnd@physx@@YAXXZ 10003d30 f   GuSweepBoxBox.obj
 0001:00002d50       ??__EminFError@_VecMathTests@aos@shdfnd@physx@@YAXXZ 10003d50 f   GuSweepBoxBox.obj
 0001:00002d70       ??__EminV3Error@_VecMathTests@aos@shdfnd@physx@@YAXXZ 10003d70 f   GuSweepBoxBox.obj
 0001:00002d80       ??__EminV4Error@_VecMathTests@aos@shdfnd@physx@@YAXXZ 10003d80 f   GuSweepBoxBox.obj
 0001:00002da0       ??__EmaxFError@_VecMathTests@aos@shdfnd@physx@@YAXXZ 10003da0 f   GuSweepBoxSphere.obj
 0001:00002dc0       ??__EmaxV3Error@_VecMathTests@aos@shdfnd@physx@@YAXXZ 10003dc0 f   GuSweepBoxSphere.obj
 0001:00002dd0       ??__EmaxV4Error@_VecMathTests@aos@shdfnd@physx@@YAXXZ 10003dd0 f   GuSweepBoxSphere.obj
 0001:00002df0       ??__EminFError@_VecMathTests@aos@shdfnd@physx@@YAXXZ 10003df0 f   GuSweepBoxSphere.obj
 0001:00002e10       ??__EminV3Error@_VecMathTests@aos@shdfnd@physx@@YAXXZ 10003e10 f   GuSweepBoxSphere.obj
 0001:00002e20       ??__EminV4Error@_VecMathTests@aos@shdfnd@physx@@YAXXZ 10003e20 f   GuSweepBoxSphere.obj
 0001:00002e40       ??__EmaxFError@_VecMathTests@aos@shdfnd@physx@@YAXXZ 10003e40 f   GuSweepBoxTriangle_FeatureBased.obj
 0001:00002e60       ??__EmaxV3Error@_VecMathTests@aos@shdfnd@physx@@YAXXZ 10003e60 f   GuSweepBoxTriangle_FeatureBased.obj
 0001:00002e70       ??__EmaxV4Error@_VecMathTests@aos@shdfnd@physx@@YAXXZ 10003e70 f   GuSweepBoxTriangle_FeatureBased.obj
 0001:00002e90       ??__EminFError@_VecMathTests@aos@shdfnd@physx@@YAXXZ 10003e90 f   GuSweepBoxTriangle_FeatureBased.obj
 0001:00002eb0       ??__EminV3Error@_VecMathTests@aos@shdfnd@physx@@YAXXZ 10003eb0 f   GuSweepBoxTriangle_FeatureBased.obj
 0001:00002ec0       ??__EminV4Error@_VecMathTests@aos@shdfnd@physx@@YAXXZ 10003ec0 f   GuSweepBoxTriangle_FeatureBased.obj
 0001:00002ee0       ??__EmaxFError@_VecMathTests@aos@shdfnd@physx@@YAXXZ 10003ee0 f   GuSweepBoxTriangle_SAT.obj
 0001:00002f00       ??__EmaxV3Error@_VecMathTests@aos@shdfnd@physx@@YAXXZ 10003f00 f   GuSweepBoxTriangle_SAT.obj
 0001:00002f10       ??__EmaxV4Error@_VecMathTests@aos@shdfnd@physx@@YAXXZ 10003f10 f   GuSweepBoxTriangle_SAT.obj
 0001:00002f30       ??__EminFError@_VecMathTests@aos@shdfnd@physx@@YAXXZ 10003f30 f   GuSweepBoxTriangle_SAT.obj
 0001:00002f50       ??__EminV3Error@_VecMathTests@aos@shdfnd@physx@@YAXXZ 10003f50 f   GuSweepBoxTriangle_SAT.obj
 0001:00002f60       ??__EminV4Error@_VecMathTests@aos@shdfnd@physx@@YAXXZ 10003f60 f   GuSweepBoxTriangle_SAT.obj
 0001:00002f80       ??__EmaxFError@_VecMathTests@aos@shdfnd@physx@@YAXXZ 10003f80 f   GuSweepCapsuleBox.obj
 0001:00002fa0       ??__EmaxV3Error@_VecMathTests@aos@shdfnd@physx@@YAXXZ 10003fa0 f   GuSweepCapsuleBox.obj
 0001:00002fb0       ??__EmaxV4Error@_VecMathTests@aos@shdfnd@physx@@YAXXZ 10003fb0 f   GuSweepCapsuleBox.obj
 0001:00002fd0       ??__EminFError@_VecMathTests@aos@shdfnd@physx@@YAXXZ 10003fd0 f   GuSweepCapsuleBox.obj
 0001:00002ff0       ??__EminV3Error@_VecMathTests@aos@shdfnd@physx@@YAXXZ 10003ff0 f   GuSweepCapsuleBox.obj
 0001:00003000       ??__EminV4Error@_VecMathTests@aos@shdfnd@physx@@YAXXZ 10004000 f   GuSweepCapsuleBox.obj
 0001:00003020       ??__EmaxFError@_VecMathTests@aos@shdfnd@physx@@YAXXZ 10004020 f   GuSweepCapsuleCapsule.obj
 0001:00003040       ??__EmaxV3Error@_VecMathTests@aos@shdfnd@physx@@YAXXZ 10004040 f   GuSweepCapsuleCapsule.obj
 0001:00003050       ??__EmaxV4Error@_VecMathTests@aos@shdfnd@physx@@YAXXZ 10004050 f   GuSweepCapsuleCapsule.obj
 0001:00003070       ??__EminFError@_VecMathTests@aos@shdfnd@physx@@YAXXZ 10004070 f   GuSweepCapsuleCapsule.obj
 0001:00003090       ??__EminV3Error@_VecMathTests@aos@shdfnd@physx@@YAXXZ 10004090 f   GuSweepCapsuleCapsule.obj
 0001:000030a0       ??__EminV4Error@_VecMathTests@aos@shdfnd@physx@@YAXXZ 100040a0 f   GuSweepCapsuleCapsule.obj
 0001:000030c0       ??__EmaxFError@_VecMathTests@aos@shdfnd@physx@@YAXXZ 100040c0 f   GuSweepCapsuleTriangle.obj
 0001:000030e0       ??__EmaxV3Error@_VecMathTests@aos@shdfnd@physx@@YAXXZ 100040e0 f   GuSweepCapsuleTriangle.obj
 0001:000030f0       ??__EmaxV4Error@_VecMathTests@aos@shdfnd@physx@@YAXXZ 100040f0 f   GuSweepCapsuleTriangle.obj
 0001:00003110       ??__EminFError@_VecMathTests@aos@shdfnd@physx@@YAXXZ 10004110 f   GuSweepCapsuleTriangle.obj
 0001:00003130       ??__EminV3Error@_VecMathTests@aos@shdfnd@physx@@YAXXZ 10004130 f   GuSweepCapsuleTriangle.obj
 0001:00003140       ??__EminV4Error@_VecMathTests@aos@shdfnd@physx@@YAXXZ 10004140 f   GuSweepCapsuleTriangle.obj
 0001:00003160       ??__EmaxFError@_VecMathTests@aos@shdfnd@physx@@YAXXZ 10004160 f   GuSweepSphereCapsule.obj
 0001:00003180       ??__EmaxV3Error@_VecMathTests@aos@shdfnd@physx@@YAXXZ 10004180 f   GuSweepSphereCapsule.obj
 0001:00003190       ??__EmaxV4Error@_VecMathTests@aos@shdfnd@physx@@YAXXZ 10004190 f   GuSweepSphereCapsule.obj
 0001:000031b0       ??__EminFError@_VecMathTests@aos@shdfnd@physx@@YAXXZ 100041b0 f   GuSweepSphereCapsule.obj
 0001:000031d0       ??__EminV3Error@_VecMathTests@aos@shdfnd@physx@@YAXXZ 100041d0 f   GuSweepSphereCapsule.obj
 0001:000031e0       ??__EminV4Error@_VecMathTests@aos@shdfnd@physx@@YAXXZ 100041e0 f   GuSweepSphereCapsule.obj
 0001:00003200       ??__EmaxFError@_VecMathTests@aos@shdfnd@physx@@YAXXZ 10004200 f   GuSweepSphereTriangle.obj
 0001:00003220       ??__EmaxV3Error@_VecMathTests@aos@shdfnd@physx@@YAXXZ 10004220 f   GuSweepSphereTriangle.obj
 0001:00003230       ??__EmaxV4Error@_VecMathTests@aos@shdfnd@physx@@YAXXZ 10004230 f   GuSweepSphereTriangle.obj
 0001:00003250       ??__EminFError@_VecMathTests@aos@shdfnd@physx@@YAXXZ 10004250 f   GuSweepSphereTriangle.obj
 0001:00003270       ??__EminV3Error@_VecMathTests@aos@shdfnd@physx@@YAXXZ 10004270 f   GuSweepSphereTriangle.obj
 0001:00003280       ??__EminV4Error@_VecMathTests@aos@shdfnd@physx@@YAXXZ 10004280 f   GuSweepSphereTriangle.obj
 0001:000032a0       ??__EmaxFError@_VecMathTests@aos@shdfnd@physx@@YAXXZ 100042a0 f   GuSweepTriangleUtils.obj
 0001:000032c0       ??__EmaxV3Error@_VecMathTests@aos@shdfnd@physx@@YAXXZ 100042c0 f   GuSweepTriangleUtils.obj
 0001:000032d0       ??__EmaxV4Error@_VecMathTests@aos@shdfnd@physx@@YAXXZ 100042d0 f   GuSweepTriangleUtils.obj
 0001:000032f0       ??__EminFError@_VecMathTests@aos@shdfnd@physx@@YAXXZ 100042f0 f   GuSweepTriangleUtils.obj
 0001:00003310       ??__EminV3Error@_VecMathTests@aos@shdfnd@physx@@YAXXZ 10004310 f   GuSweepTriangleUtils.obj
 0001:00003320       ??__EminV4Error@_VecMathTests@aos@shdfnd@physx@@YAXXZ 10004320 f   GuSweepTriangleUtils.obj
 0001:00003340       ??__EmaxFError@_VecMathTests@aos@shdfnd@physx@@YAXXZ 10004340 f   GuEPA.obj
 0001:00003360       ??__EmaxV3Error@_VecMathTests@aos@shdfnd@physx@@YAXXZ 10004360 f   GuEPA.obj
 0001:00003370       ??__EmaxV4Error@_VecMathTests@aos@shdfnd@physx@@YAXXZ 10004370 f   GuEPA.obj
 0001:00003390       ??__EminFError@_VecMathTests@aos@shdfnd@physx@@YAXXZ 10004390 f   GuEPA.obj
 0001:000033b0       ??__EminV3Error@_VecMathTests@aos@shdfnd@physx@@YAXXZ 100043b0 f   GuEPA.obj
 0001:000033c0       ??__EminV4Error@_VecMathTests@aos@shdfnd@physx@@YAXXZ 100043c0 f   GuEPA.obj
 0001:000033e0       ??__EmaxFError@_VecMathTests@aos@shdfnd@physx@@YAXXZ 100043e0 f   GuEPAPenetrationWrapper.obj
 0001:00003400       ??__EmaxV3Error@_VecMathTests@aos@shdfnd@physx@@YAXXZ 10004400 f   GuEPAPenetrationWrapper.obj
 0001:00003410       ??__EmaxV4Error@_VecMathTests@aos@shdfnd@physx@@YAXXZ 10004410 f   GuEPAPenetrationWrapper.obj
 0001:00003430       ??__EminFError@_VecMathTests@aos@shdfnd@physx@@YAXXZ 10004430 f   GuEPAPenetrationWrapper.obj
 0001:00003450       ??__EminV3Error@_VecMathTests@aos@shdfnd@physx@@YAXXZ 10004450 f   GuEPAPenetrationWrapper.obj
 0001:00003460       ??__EminV4Error@_VecMathTests@aos@shdfnd@physx@@YAXXZ 10004460 f   GuEPAPenetrationWrapper.obj
 0001:00003480       ??__EmaxFError@_VecMathTests@aos@shdfnd@physx@@YAXXZ 10004480 f   GuGJKFallBack.obj
 0001:000034a0       ??__EmaxV3Error@_VecMathTests@aos@shdfnd@physx@@YAXXZ 100044a0 f   GuGJKFallBack.obj
 0001:000034b0       ??__EmaxV4Error@_VecMathTests@aos@shdfnd@physx@@YAXXZ 100044b0 f   GuGJKFallBack.obj
 0001:000034d0       ??__EminFError@_VecMathTests@aos@shdfnd@physx@@YAXXZ 100044d0 f   GuGJKFallBack.obj
 0001:000034f0       ??__EminV3Error@_VecMathTests@aos@shdfnd@physx@@YAXXZ 100044f0 f   GuGJKFallBack.obj
 0001:00003500       ??__EminV4Error@_VecMathTests@aos@shdfnd@physx@@YAXXZ 10004500 f   GuGJKFallBack.obj
 0001:00003520       ??__EmaxFError@_VecMathTests@aos@shdfnd@physx@@YAXXZ 10004520 f   GuGJKPenetrationWrapper.obj
 0001:00003540       ??__EmaxV3Error@_VecMathTests@aos@shdfnd@physx@@YAXXZ 10004540 f   GuGJKPenetrationWrapper.obj
 0001:00003550       ??__EmaxV4Error@_VecMathTests@aos@shdfnd@physx@@YAXXZ 10004550 f   GuGJKPenetrationWrapper.obj
 0001:00003570       ??__EminFError@_VecMathTests@aos@shdfnd@physx@@YAXXZ 10004570 f   GuGJKPenetrationWrapper.obj
 0001:00003590       ??__EminV3Error@_VecMathTests@aos@shdfnd@physx@@YAXXZ 10004590 f   GuGJKPenetrationWrapper.obj
 0001:000035a0       ??__EminV4Error@_VecMathTests@aos@shdfnd@physx@@YAXXZ 100045a0 f   GuGJKPenetrationWrapper.obj
 0001:000035c0       ??__EmaxFError@_VecMathTests@aos@shdfnd@physx@@YAXXZ 100045c0 f   GuGJKSimplex.obj
 0001:000035e0       ??__EmaxV3Error@_VecMathTests@aos@shdfnd@physx@@YAXXZ 100045e0 f   GuGJKSimplex.obj
 0001:000035f0       ??__EmaxV4Error@_VecMathTests@aos@shdfnd@physx@@YAXXZ 100045f0 f   GuGJKSimplex.obj
 0001:00003610       ??__EminFError@_VecMathTests@aos@shdfnd@physx@@YAXXZ 10004610 f   GuGJKSimplex.obj
 0001:00003630       ??__EminV3Error@_VecMathTests@aos@shdfnd@physx@@YAXXZ 10004630 f   GuGJKSimplex.obj
 0001:00003640       ??__EminV4Error@_VecMathTests@aos@shdfnd@physx@@YAXXZ 10004640 f   GuGJKSimplex.obj
 0001:00003660       ??__EmaxFError@_VecMathTests@aos@shdfnd@physx@@YAXXZ 10004660 f   GuGJKSimplexTesselation.obj
 0001:00003680       ??__EmaxV3Error@_VecMathTests@aos@shdfnd@physx@@YAXXZ 10004680 f   GuGJKSimplexTesselation.obj
 0001:00003690       ??__EmaxV4Error@_VecMathTests@aos@shdfnd@physx@@YAXXZ 10004690 f   GuGJKSimplexTesselation.obj
 0001:000036b0       ??__EminFError@_VecMathTests@aos@shdfnd@physx@@YAXXZ 100046b0 f   GuGJKSimplexTesselation.obj
 0001:000036d0       ??__EminV3Error@_VecMathTests@aos@shdfnd@physx@@YAXXZ 100046d0 f   GuGJKSimplexTesselation.obj
 0001:000036e0       ??__EminV4Error@_VecMathTests@aos@shdfnd@physx@@YAXXZ 100046e0 f   GuGJKSimplexTesselation.obj
 0001:00003700       ??__EmaxFError@_VecMathTests@aos@shdfnd@physx@@YAXXZ 10004700 f   GuGJKWrapper.obj
 0001:00003720       ??__EmaxV3Error@_VecMathTests@aos@shdfnd@physx@@YAXXZ 10004720 f   GuGJKWrapper.obj
 0001:00003730       ??__EmaxV4Error@_VecMathTests@aos@shdfnd@physx@@YAXXZ 10004730 f   GuGJKWrapper.obj
 0001:00003750       ??__EminFError@_VecMathTests@aos@shdfnd@physx@@YAXXZ 10004750 f   GuGJKWrapper.obj
 0001:00003770       ??__EminV3Error@_VecMathTests@aos@shdfnd@physx@@YAXXZ 10004770 f   GuGJKWrapper.obj
 0001:00003780       ??__EminV4Error@_VecMathTests@aos@shdfnd@physx@@YAXXZ 10004780 f   GuGJKWrapper.obj
 0001:000037a0       ??__EmaxFError@_VecMathTests@aos@shdfnd@physx@@YAXXZ 100047a0 f   GuVecBox.obj
 0001:000037c0       ??__EmaxV3Error@_VecMathTests@aos@shdfnd@physx@@YAXXZ 100047c0 f   GuVecBox.obj
 0001:000037d0       ??__EmaxV4Error@_VecMathTests@aos@shdfnd@physx@@YAXXZ 100047d0 f   GuVecBox.obj
 0001:000037f0       ??__EminFError@_VecMathTests@aos@shdfnd@physx@@YAXXZ 100047f0 f   GuVecBox.obj
 0001:00003810       ??__EminV3Error@_VecMathTests@aos@shdfnd@physx@@YAXXZ 10004810 f   GuVecBox.obj
 0001:00003820       ??__EminV4Error@_VecMathTests@aos@shdfnd@physx@@YAXXZ 10004820 f   GuVecBox.obj
 0001:00003840       ??__EmaxFError@_VecMathTests@aos@shdfnd@physx@@YAXXZ 10004840 f   GuIntersectionRayBox.obj
 0001:00003860       ??__EmaxV3Error@_VecMathTests@aos@shdfnd@physx@@YAXXZ 10004860 f   GuIntersectionRayBox.obj
 0001:00003870       ??__EmaxV4Error@_VecMathTests@aos@shdfnd@physx@@YAXXZ 10004870 f   GuIntersectionRayBox.obj
 0001:00003890       ??__EminFError@_VecMathTests@aos@shdfnd@physx@@YAXXZ 10004890 f   GuIntersectionRayBox.obj
 0001:000038b0       ??__EminV3Error@_VecMathTests@aos@shdfnd@physx@@YAXXZ 100048b0 f   GuIntersectionRayBox.obj
 0001:000038c0       ??__EminV4Error@_VecMathTests@aos@shdfnd@physx@@YAXXZ 100048c0 f   GuIntersectionRayBox.obj
 0001:000038e0       ??__EmaxFError@_VecMathTests@aos@shdfnd@physx@@YAXXZ 100048e0 f   GuIntersectionRayCapsule.obj
 0001:00003900       ??__EmaxV3Error@_VecMathTests@aos@shdfnd@physx@@YAXXZ 10004900 f   GuIntersectionRayCapsule.obj
 0001:00003910       ??__EmaxV4Error@_VecMathTests@aos@shdfnd@physx@@YAXXZ 10004910 f   GuIntersectionRayCapsule.obj
 0001:00003930       ??__EminFError@_VecMathTests@aos@shdfnd@physx@@YAXXZ 10004930 f   GuIntersectionRayCapsule.obj
 0001:00003950       ??__EminV3Error@_VecMathTests@aos@shdfnd@physx@@YAXXZ 10004950 f   GuIntersectionRayCapsule.obj
 0001:00003960       ??__EminV4Error@_VecMathTests@aos@shdfnd@physx@@YAXXZ 10004960 f   GuIntersectionRayCapsule.obj
 0001:00003980       ??__EmaxFError@_VecMathTests@aos@shdfnd@physx@@YAXXZ 10004980 f   GuIntersectionTriangleBox.obj
 0001:000039a0       ??__EmaxV3Error@_VecMathTests@aos@shdfnd@physx@@YAXXZ 100049a0 f   GuIntersectionTriangleBox.obj
 0001:000039b0       ??__EmaxV4Error@_VecMathTests@aos@shdfnd@physx@@YAXXZ 100049b0 f   GuIntersectionTriangleBox.obj
 0001:000039d0       ??__EminFError@_VecMathTests@aos@shdfnd@physx@@YAXXZ 100049d0 f   GuIntersectionTriangleBox.obj
 0001:000039f0       ??__EminV3Error@_VecMathTests@aos@shdfnd@physx@@YAXXZ 100049f0 f   GuIntersectionTriangleBox.obj
 0001:00003a00       ??__EminV4Error@_VecMathTests@aos@shdfnd@physx@@YAXXZ 10004a00 f   GuIntersectionTriangleBox.obj
 0001:00003a20       ??__EmaxFError@_VecMathTests@aos@shdfnd@physx@@YAXXZ 10004a20 f   GuMeshQuery.obj
 0001:00003a40       ??__EmaxV3Error@_VecMathTests@aos@shdfnd@physx@@YAXXZ 10004a40 f   GuMeshQuery.obj
 0001:00003a50       ??__EmaxV4Error@_VecMathTests@aos@shdfnd@physx@@YAXXZ 10004a50 f   GuMeshQuery.obj
 0001:00003a70       ??__EminFError@_VecMathTests@aos@shdfnd@physx@@YAXXZ 10004a70 f   GuMeshQuery.obj
 0001:00003a90       ??__EminV3Error@_VecMathTests@aos@shdfnd@physx@@YAXXZ 10004a90 f   GuMeshQuery.obj
 0001:00003aa0       ??__EminV4Error@_VecMathTests@aos@shdfnd@physx@@YAXXZ 10004aa0 f   GuMeshQuery.obj
 0001:00003ac0       ??__EmaxFError@_VecMathTests@aos@shdfnd@physx@@YAXXZ 10004ac0 f   GuMidphase.obj
 0001:00003ae0       ??__EmaxV3Error@_VecMathTests@aos@shdfnd@physx@@YAXXZ 10004ae0 f   GuMidphase.obj
 0001:00003af0       ??__EmaxV4Error@_VecMathTests@aos@shdfnd@physx@@YAXXZ 10004af0 f   GuMidphase.obj
 0001:00003b10       ??__EminFError@_VecMathTests@aos@shdfnd@physx@@YAXXZ 10004b10 f   GuMidphase.obj
 0001:00003b30       ??__EminV3Error@_VecMathTests@aos@shdfnd@physx@@YAXXZ 10004b30 f   GuMidphase.obj
 0001:00003b40       ??__EminV4Error@_VecMathTests@aos@shdfnd@physx@@YAXXZ 10004b40 f   GuMidphase.obj
 0001:00003b60       ??__EmaxFError@_VecMathTests@aos@shdfnd@physx@@YAXXZ 10004b60 f   GuOverlapTestsMesh.obj
 0001:00003b80       ??__EmaxV3Error@_VecMathTests@aos@shdfnd@physx@@YAXXZ 10004b80 f   GuOverlapTestsMesh.obj
 0001:00003b90       ??__EmaxV4Error@_VecMathTests@aos@shdfnd@physx@@YAXXZ 10004b90 f   GuOverlapTestsMesh.obj
 0001:00003bb0       ??__EminFError@_VecMathTests@aos@shdfnd@physx@@YAXXZ 10004bb0 f   GuOverlapTestsMesh.obj
 0001:00003bd0       ??__EminV3Error@_VecMathTests@aos@shdfnd@physx@@YAXXZ 10004bd0 f   GuOverlapTestsMesh.obj
 0001:00003be0       ??__EminV4Error@_VecMathTests@aos@shdfnd@physx@@YAXXZ 10004be0 f   GuOverlapTestsMesh.obj
 0001:00003c00       ??__EepsFloat4@?A0xec1be922@Gu@physx@@YAXXZ 10004c00 f   GuRTreeQueries.obj
 0001:00003c20       ??__EepsInflateFloat4@?A0xec1be922@Gu@physx@@YAXXZ 10004c20 f   GuRTreeQueries.obj
 0001:00003c30       ??__EmaxFError@_VecMathTests@aos@shdfnd@physx@@YAXXZ 10004c30 f   GuRTreeQueries.obj
 0001:00003c50       ??__EmaxV3Error@_VecMathTests@aos@shdfnd@physx@@YAXXZ 10004c50 f   GuRTreeQueries.obj
 0001:00003c60       ??__EmaxV4Error@_VecMathTests@aos@shdfnd@physx@@YAXXZ 10004c60 f   GuRTreeQueries.obj
 0001:00003c80       ??__EminFError@_VecMathTests@aos@shdfnd@physx@@YAXXZ 10004c80 f   GuRTreeQueries.obj
 0001:00003ca0       ??__EminV3Error@_VecMathTests@aos@shdfnd@physx@@YAXXZ 10004ca0 f   GuRTreeQueries.obj
 0001:00003cb0       ??__EminV4Error@_VecMathTests@aos@shdfnd@physx@@YAXXZ 10004cb0 f   GuRTreeQueries.obj
 0001:00003cd0       ??__EsignMask@?A0xec1be922@Gu@physx@@YAXXZ 10004cd0 f   GuRTreeQueries.obj
 0001:00003d20       ??__Etwos@?A0xec1be922@Gu@physx@@YAXXZ 10004d20 f   GuRTreeQueries.obj
 0001:00003d40       ??__Ezeroes@?A0xec1be922@Gu@physx@@YAXXZ 10004d40 f   GuRTreeQueries.obj
 0001:00003d50       ??__EmaxFError@_VecMathTests@aos@shdfnd@physx@@YAXXZ 10004d50 f   GuSweepsMesh.obj
 0001:00003d70       ??__EmaxV3Error@_VecMathTests@aos@shdfnd@physx@@YAXXZ 10004d70 f   GuSweepsMesh.obj
 0001:00003d80       ??__EmaxV4Error@_VecMathTests@aos@shdfnd@physx@@YAXXZ 10004d80 f   GuSweepsMesh.obj
 0001:00003da0       ??__EminFError@_VecMathTests@aos@shdfnd@physx@@YAXXZ 10004da0 f   GuSweepsMesh.obj
 0001:00003dc0       ??__EminV3Error@_VecMathTests@aos@shdfnd@physx@@YAXXZ 10004dc0 f   GuSweepsMesh.obj
 0001:00003dd0       ??__EminV4Error@_VecMathTests@aos@shdfnd@physx@@YAXXZ 10004dd0 f   GuSweepsMesh.obj
 0001:00003df0       ??__EmaxFError@_VecMathTests@aos@shdfnd@physx@@YAXXZ 10004df0 f   GuHeightFieldUtil.obj
 0001:00003e10       ??__EmaxV3Error@_VecMathTests@aos@shdfnd@physx@@YAXXZ 10004e10 f   GuHeightFieldUtil.obj
 0001:00003e20       ??__EmaxV4Error@_VecMathTests@aos@shdfnd@physx@@YAXXZ 10004e20 f   GuHeightFieldUtil.obj
 0001:00003e40       ??__EminFError@_VecMathTests@aos@shdfnd@physx@@YAXXZ 10004e40 f   GuHeightFieldUtil.obj
 0001:00003e60       ??__EminV3Error@_VecMathTests@aos@shdfnd@physx@@YAXXZ 10004e60 f   GuHeightFieldUtil.obj
 0001:00003e70       ??__EminV4Error@_VecMathTests@aos@shdfnd@physx@@YAXXZ 10004e70 f   GuHeightFieldUtil.obj
 0001:00003e90       ??__EmaxFError@_VecMathTests@aos@shdfnd@physx@@YAXXZ 10004e90 f   GuOverlapTestsHF.obj
 0001:00003eb0       ??__EmaxV3Error@_VecMathTests@aos@shdfnd@physx@@YAXXZ 10004eb0 f   GuOverlapTestsHF.obj
 0001:00003ec0       ??__EmaxV4Error@_VecMathTests@aos@shdfnd@physx@@YAXXZ 10004ec0 f   GuOverlapTestsHF.obj
 0001:00003ee0       ??__EminFError@_VecMathTests@aos@shdfnd@physx@@YAXXZ 10004ee0 f   GuOverlapTestsHF.obj
 0001:00003f00       ??__EminV3Error@_VecMathTests@aos@shdfnd@physx@@YAXXZ 10004f00 f   GuOverlapTestsHF.obj
 0001:00003f10       ??__EminV4Error@_VecMathTests@aos@shdfnd@physx@@YAXXZ 10004f10 f   GuOverlapTestsHF.obj
 0001:00003f30       ??__EmaxFError@_VecMathTests@aos@shdfnd@physx@@YAXXZ 10004f30 f   GuSweepsHF.obj
 0001:00003f50       ??__EmaxV3Error@_VecMathTests@aos@shdfnd@physx@@YAXXZ 10004f50 f   GuSweepsHF.obj
 0001:00003f60       ??__EmaxV4Error@_VecMathTests@aos@shdfnd@physx@@YAXXZ 10004f60 f   GuSweepsHF.obj
 0001:00003f80       ??__EminFError@_VecMathTests@aos@shdfnd@physx@@YAXXZ 10004f80 f   GuSweepsHF.obj
 0001:00003fa0       ??__EminV3Error@_VecMathTests@aos@shdfnd@physx@@YAXXZ 10004fa0 f   GuSweepsHF.obj
 0001:00003fb0       ??__EminV4Error@_VecMathTests@aos@shdfnd@physx@@YAXXZ 10004fb0 f   GuSweepsHF.obj
 0001:00003fd0       ??__EmaxFError@_VecMathTests@aos@shdfnd@physx@@YAXXZ 10004fd0 f   GuPCMContactBoxBox.obj
 0001:00003ff0       ??__EmaxV3Error@_VecMathTests@aos@shdfnd@physx@@YAXXZ 10004ff0 f   GuPCMContactBoxBox.obj
 0001:00004000       ??__EmaxV4Error@_VecMathTests@aos@shdfnd@physx@@YAXXZ 10005000 f   GuPCMContactBoxBox.obj
 0001:00004020       ??__EminFError@_VecMathTests@aos@shdfnd@physx@@YAXXZ 10005020 f   GuPCMContactBoxBox.obj
 0001:00004040       ??__EminV3Error@_VecMathTests@aos@shdfnd@physx@@YAXXZ 10005040 f   GuPCMContactBoxBox.obj
 0001:00004050       ??__EminV4Error@_VecMathTests@aos@shdfnd@physx@@YAXXZ 10005050 f   GuPCMContactBoxBox.obj
 0001:00004070       ??__EmaxFError@_VecMathTests@aos@shdfnd@physx@@YAXXZ 10005070 f   GuPCMContactBoxConvex.obj
 0001:00004090       ??__EmaxV3Error@_VecMathTests@aos@shdfnd@physx@@YAXXZ 10005090 f   GuPCMContactBoxConvex.obj
 0001:000040a0       ??__EmaxV4Error@_VecMathTests@aos@shdfnd@physx@@YAXXZ 100050a0 f   GuPCMContactBoxConvex.obj
 0001:000040c0       ??__EminFError@_VecMathTests@aos@shdfnd@physx@@YAXXZ 100050c0 f   GuPCMContactBoxConvex.obj
 0001:000040e0       ??__EminV3Error@_VecMathTests@aos@shdfnd@physx@@YAXXZ 100050e0 f   GuPCMContactBoxConvex.obj
 0001:000040f0       ??__EminV4Error@_VecMathTests@aos@shdfnd@physx@@YAXXZ 100050f0 f   GuPCMContactBoxConvex.obj
 0001:00004110       ??__EmaxFError@_VecMathTests@aos@shdfnd@physx@@YAXXZ 10005110 f   GuPCMContactCapsuleBox.obj
 0001:00004130       ??__EmaxV3Error@_VecMathTests@aos@shdfnd@physx@@YAXXZ 10005130 f   GuPCMContactCapsuleBox.obj
 0001:00004140       ??__EmaxV4Error@_VecMathTests@aos@shdfnd@physx@@YAXXZ 10005140 f   GuPCMContactCapsuleBox.obj
 0001:00004160       ??__EminFError@_VecMathTests@aos@shdfnd@physx@@YAXXZ 10005160 f   GuPCMContactCapsuleBox.obj
 0001:00004180       ??__EminV3Error@_VecMathTests@aos@shdfnd@physx@@YAXXZ 10005180 f   GuPCMContactCapsuleBox.obj
 0001:00004190       ??__EminV4Error@_VecMathTests@aos@shdfnd@physx@@YAXXZ 10005190 f   GuPCMContactCapsuleBox.obj
 0001:000041b0       ??__EmaxFError@_VecMathTests@aos@shdfnd@physx@@YAXXZ 100051b0 f   GuPCMContactCapsuleConvex.obj
 0001:000041d0       ??__EmaxV3Error@_VecMathTests@aos@shdfnd@physx@@YAXXZ 100051d0 f   GuPCMContactCapsuleConvex.obj
 0001:000041e0       ??__EmaxV4Error@_VecMathTests@aos@shdfnd@physx@@YAXXZ 100051e0 f   GuPCMContactCapsuleConvex.obj
 0001:00004200       ??__EminFError@_VecMathTests@aos@shdfnd@physx@@YAXXZ 10005200 f   GuPCMContactCapsuleConvex.obj
 0001:00004220       ??__EminV3Error@_VecMathTests@aos@shdfnd@physx@@YAXXZ 10005220 f   GuPCMContactCapsuleConvex.obj
 0001:00004230       ??__EminV4Error@_VecMathTests@aos@shdfnd@physx@@YAXXZ 10005230 f   GuPCMContactCapsuleConvex.obj
 0001:00004250       ??__EmaxFError@_VecMathTests@aos@shdfnd@physx@@YAXXZ 10005250 f   GuPCMContactCapsuleHeightField.obj
 0001:00004270       ??__EmaxV3Error@_VecMathTests@aos@shdfnd@physx@@YAXXZ 10005270 f   GuPCMContactCapsuleHeightField.obj
 0001:00004280       ??__EmaxV4Error@_VecMathTests@aos@shdfnd@physx@@YAXXZ 10005280 f   GuPCMContactCapsuleHeightField.obj
 0001:000042a0       ??__EminFError@_VecMathTests@aos@shdfnd@physx@@YAXXZ 100052a0 f   GuPCMContactCapsuleHeightField.obj
 0001:000042c0       ??__EminV3Error@_VecMathTests@aos@shdfnd@physx@@YAXXZ 100052c0 f   GuPCMContactCapsuleHeightField.obj
 0001:000042d0       ??__EminV4Error@_VecMathTests@aos@shdfnd@physx@@YAXXZ 100052d0 f   GuPCMContactCapsuleHeightField.obj
 0001:000042f0       ??__EmaxFError@_VecMathTests@aos@shdfnd@physx@@YAXXZ 100052f0 f   GuPCMContactCapsuleMesh.obj
 0001:00004310       ??__EmaxV3Error@_VecMathTests@aos@shdfnd@physx@@YAXXZ 10005310 f   GuPCMContactCapsuleMesh.obj
 0001:00004320       ??__EmaxV4Error@_VecMathTests@aos@shdfnd@physx@@YAXXZ 10005320 f   GuPCMContactCapsuleMesh.obj
 0001:00004340       ??__EminFError@_VecMathTests@aos@shdfnd@physx@@YAXXZ 10005340 f   GuPCMContactCapsuleMesh.obj
 0001:00004360       ??__EminV3Error@_VecMathTests@aos@shdfnd@physx@@YAXXZ 10005360 f   GuPCMContactCapsuleMesh.obj
 0001:00004370       ??__EminV4Error@_VecMathTests@aos@shdfnd@physx@@YAXXZ 10005370 f   GuPCMContactCapsuleMesh.obj
 0001:00004390       ??__EmaxFError@_VecMathTests@aos@shdfnd@physx@@YAXXZ 10005390 f   GuPCMContactConvexCommon.obj
 0001:000043b0       ??__EmaxV3Error@_VecMathTests@aos@shdfnd@physx@@YAXXZ 100053b0 f   GuPCMContactConvexCommon.obj
 0001:000043c0       ??__EmaxV4Error@_VecMathTests@aos@shdfnd@physx@@YAXXZ 100053c0 f   GuPCMContactConvexCommon.obj
 0001:000043e0       ??__EminFError@_VecMathTests@aos@shdfnd@physx@@YAXXZ 100053e0 f   GuPCMContactConvexCommon.obj
 0001:00004400       ??__EminV3Error@_VecMathTests@aos@shdfnd@physx@@YAXXZ 10005400 f   GuPCMContactConvexCommon.obj
 0001:00004410       ??__EminV4Error@_VecMathTests@aos@shdfnd@physx@@YAXXZ 10005410 f   GuPCMContactConvexCommon.obj
 0001:00004430       ??__EmaxFError@_VecMathTests@aos@shdfnd@physx@@YAXXZ 10005430 f   GuPCMContactConvexConvex.obj
 0001:00004450       ??__EmaxV3Error@_VecMathTests@aos@shdfnd@physx@@YAXXZ 10005450 f   GuPCMContactConvexConvex.obj
 0001:00004460       ??__EmaxV4Error@_VecMathTests@aos@shdfnd@physx@@YAXXZ 10005460 f   GuPCMContactConvexConvex.obj
 0001:00004480       ??__EminFError@_VecMathTests@aos@shdfnd@physx@@YAXXZ 10005480 f   GuPCMContactConvexConvex.obj
 0001:000044a0       ??__EminV3Error@_VecMathTests@aos@shdfnd@physx@@YAXXZ 100054a0 f   GuPCMContactConvexConvex.obj
 0001:000044b0       ??__EminV4Error@_VecMathTests@aos@shdfnd@physx@@YAXXZ 100054b0 f   GuPCMContactConvexConvex.obj
 0001:000044d0       ??__EmaxFError@_VecMathTests@aos@shdfnd@physx@@YAXXZ 100054d0 f   GuPCMContactConvexHeightField.obj
 0001:000044f0       ??__EmaxV3Error@_VecMathTests@aos@shdfnd@physx@@YAXXZ 100054f0 f   GuPCMContactConvexHeightField.obj
 0001:00004500       ??__EmaxV4Error@_VecMathTests@aos@shdfnd@physx@@YAXXZ 10005500 f   GuPCMContactConvexHeightField.obj
 0001:00004520       ??__EminFError@_VecMathTests@aos@shdfnd@physx@@YAXXZ 10005520 f   GuPCMContactConvexHeightField.obj
 0001:00004540       ??__EminV3Error@_VecMathTests@aos@shdfnd@physx@@YAXXZ 10005540 f   GuPCMContactConvexHeightField.obj
 0001:00004550       ??__EminV4Error@_VecMathTests@aos@shdfnd@physx@@YAXXZ 10005550 f   GuPCMContactConvexHeightField.obj
 0001:00004570       ??__EmaxFError@_VecMathTests@aos@shdfnd@physx@@YAXXZ 10005570 f   GuPCMContactConvexMesh.obj
 0001:00004590       ??__EmaxV3Error@_VecMathTests@aos@shdfnd@physx@@YAXXZ 10005590 f   GuPCMContactConvexMesh.obj
 0001:000045a0       ??__EmaxV4Error@_VecMathTests@aos@shdfnd@physx@@YAXXZ 100055a0 f   GuPCMContactConvexMesh.obj
 0001:000045c0       ??__EminFError@_VecMathTests@aos@shdfnd@physx@@YAXXZ 100055c0 f   GuPCMContactConvexMesh.obj
 0001:000045e0       ??__EminV3Error@_VecMathTests@aos@shdfnd@physx@@YAXXZ 100055e0 f   GuPCMContactConvexMesh.obj
 0001:000045f0       ??__EminV4Error@_VecMathTests@aos@shdfnd@physx@@YAXXZ 100055f0 f   GuPCMContactConvexMesh.obj
 0001:00004610       ??__EmaxFError@_VecMathTests@aos@shdfnd@physx@@YAXXZ 10005610 f   GuPCMContactGenBoxConvex.obj
 0001:00004630       ??__EmaxV3Error@_VecMathTests@aos@shdfnd@physx@@YAXXZ 10005630 f   GuPCMContactGenBoxConvex.obj
 0001:00004640       ??__EmaxV4Error@_VecMathTests@aos@shdfnd@physx@@YAXXZ 10005640 f   GuPCMContactGenBoxConvex.obj
 0001:00004660       ??__EminFError@_VecMathTests@aos@shdfnd@physx@@YAXXZ 10005660 f   GuPCMContactGenBoxConvex.obj
 0001:00004680       ??__EminV3Error@_VecMathTests@aos@shdfnd@physx@@YAXXZ 10005680 f   GuPCMContactGenBoxConvex.obj
 0001:00004690       ??__EminV4Error@_VecMathTests@aos@shdfnd@physx@@YAXXZ 10005690 f   GuPCMContactGenBoxConvex.obj
 0001:000046b0       ??__EmaxFError@_VecMathTests@aos@shdfnd@physx@@YAXXZ 100056b0 f   GuPCMContactGenSphereCapsule.obj
 0001:000046d0       ??__EmaxV3Error@_VecMathTests@aos@shdfnd@physx@@YAXXZ 100056d0 f   GuPCMContactGenSphereCapsule.obj
 0001:000046e0       ??__EmaxV4Error@_VecMathTests@aos@shdfnd@physx@@YAXXZ 100056e0 f   GuPCMContactGenSphereCapsule.obj
 0001:00004700       ??__EminFError@_VecMathTests@aos@shdfnd@physx@@YAXXZ 10005700 f   GuPCMContactGenSphereCapsule.obj
 0001:00004720       ??__EminV3Error@_VecMathTests@aos@shdfnd@physx@@YAXXZ 10005720 f   GuPCMContactGenSphereCapsule.obj
 0001:00004730       ??__EminV4Error@_VecMathTests@aos@shdfnd@physx@@YAXXZ 10005730 f   GuPCMContactGenSphereCapsule.obj
 0001:00004750       ??__EmaxFError@_VecMathTests@aos@shdfnd@physx@@YAXXZ 10005750 f   GuPCMContactPlaneBox.obj
 0001:00004770       ??__EmaxV3Error@_VecMathTests@aos@shdfnd@physx@@YAXXZ 10005770 f   GuPCMContactPlaneBox.obj
 0001:00004780       ??__EmaxV4Error@_VecMathTests@aos@shdfnd@physx@@YAXXZ 10005780 f   GuPCMContactPlaneBox.obj
 0001:000047a0       ??__EminFError@_VecMathTests@aos@shdfnd@physx@@YAXXZ 100057a0 f   GuPCMContactPlaneBox.obj
 0001:000047c0       ??__EminV3Error@_VecMathTests@aos@shdfnd@physx@@YAXXZ 100057c0 f   GuPCMContactPlaneBox.obj
 0001:000047d0       ??__EminV4Error@_VecMathTests@aos@shdfnd@physx@@YAXXZ 100057d0 f   GuPCMContactPlaneBox.obj
 0001:000047f0       ??__EmaxFError@_VecMathTests@aos@shdfnd@physx@@YAXXZ 100057f0 f   GuPCMContactPlaneCapsule.obj
 0001:00004810       ??__EmaxV3Error@_VecMathTests@aos@shdfnd@physx@@YAXXZ 10005810 f   GuPCMContactPlaneCapsule.obj
 0001:00004820       ??__EmaxV4Error@_VecMathTests@aos@shdfnd@physx@@YAXXZ 10005820 f   GuPCMContactPlaneCapsule.obj
 0001:00004840       ??__EminFError@_VecMathTests@aos@shdfnd@physx@@YAXXZ 10005840 f   GuPCMContactPlaneCapsule.obj
 0001:00004860       ??__EminV3Error@_VecMathTests@aos@shdfnd@physx@@YAXXZ 10005860 f   GuPCMContactPlaneCapsule.obj
 0001:00004870       ??__EminV4Error@_VecMathTests@aos@shdfnd@physx@@YAXXZ 10005870 f   GuPCMContactPlaneCapsule.obj
 0001:00004890       ??__EmaxFError@_VecMathTests@aos@shdfnd@physx@@YAXXZ 10005890 f   GuPCMContactPlaneConvex.obj
 0001:000048b0       ??__EmaxV3Error@_VecMathTests@aos@shdfnd@physx@@YAXXZ 100058b0 f   GuPCMContactPlaneConvex.obj
 0001:000048c0       ??__EmaxV4Error@_VecMathTests@aos@shdfnd@physx@@YAXXZ 100058c0 f   GuPCMContactPlaneConvex.obj
 0001:000048e0       ??__EminFError@_VecMathTests@aos@shdfnd@physx@@YAXXZ 100058e0 f   GuPCMContactPlaneConvex.obj
 0001:00004900       ??__EminV3Error@_VecMathTests@aos@shdfnd@physx@@YAXXZ 10005900 f   GuPCMContactPlaneConvex.obj
 0001:00004910       ??__EminV4Error@_VecMathTests@aos@shdfnd@physx@@YAXXZ 10005910 f   GuPCMContactPlaneConvex.obj
 0001:00004930       ??__EmaxFError@_VecMathTests@aos@shdfnd@physx@@YAXXZ 10005930 f   GuPCMContactSphereConvex.obj
 0001:00004950       ??__EmaxV3Error@_VecMathTests@aos@shdfnd@physx@@YAXXZ 10005950 f   GuPCMContactSphereConvex.obj
 0001:00004960       ??__EmaxV4Error@_VecMathTests@aos@shdfnd@physx@@YAXXZ 10005960 f   GuPCMContactSphereConvex.obj
 0001:00004980       ??__EminFError@_VecMathTests@aos@shdfnd@physx@@YAXXZ 10005980 f   GuPCMContactSphereConvex.obj
 0001:000049a0       ??__EminV3Error@_VecMathTests@aos@shdfnd@physx@@YAXXZ 100059a0 f   GuPCMContactSphereConvex.obj
 0001:000049b0       ??__EminV4Error@_VecMathTests@aos@shdfnd@physx@@YAXXZ 100059b0 f   GuPCMContactSphereConvex.obj
 0001:000049d0       ??__EmaxFError@_VecMathTests@aos@shdfnd@physx@@YAXXZ 100059d0 f   GuPCMContactSphereHeightField.obj
 0001:000049f0       ??__EmaxV3Error@_VecMathTests@aos@shdfnd@physx@@YAXXZ 100059f0 f   GuPCMContactSphereHeightField.obj
 0001:00004a00       ??__EmaxV4Error@_VecMathTests@aos@shdfnd@physx@@YAXXZ 10005a00 f   GuPCMContactSphereHeightField.obj
 0001:00004a20       ??__EminFError@_VecMathTests@aos@shdfnd@physx@@YAXXZ 10005a20 f   GuPCMContactSphereHeightField.obj
 0001:00004a40       ??__EminV3Error@_VecMathTests@aos@shdfnd@physx@@YAXXZ 10005a40 f   GuPCMContactSphereHeightField.obj
 0001:00004a50       ??__EminV4Error@_VecMathTests@aos@shdfnd@physx@@YAXXZ 10005a50 f   GuPCMContactSphereHeightField.obj
 0001:00004a70       ??__EmaxFError@_VecMathTests@aos@shdfnd@physx@@YAXXZ 10005a70 f   GuPCMContactSphereMesh.obj
 0001:00004a90       ??__EmaxV3Error@_VecMathTests@aos@shdfnd@physx@@YAXXZ 10005a90 f   GuPCMContactSphereMesh.obj
 0001:00004aa0       ??__EmaxV4Error@_VecMathTests@aos@shdfnd@physx@@YAXXZ 10005aa0 f   GuPCMContactSphereMesh.obj
 0001:00004ac0       ??__EminFError@_VecMathTests@aos@shdfnd@physx@@YAXXZ 10005ac0 f   GuPCMContactSphereMesh.obj
 0001:00004ae0       ??__EminV3Error@_VecMathTests@aos@shdfnd@physx@@YAXXZ 10005ae0 f   GuPCMContactSphereMesh.obj
 0001:00004af0       ??__EminV4Error@_VecMathTests@aos@shdfnd@physx@@YAXXZ 10005af0 f   GuPCMContactSphereMesh.obj
 0001:00004b10       ??__EmaxFError@_VecMathTests@aos@shdfnd@physx@@YAXXZ 10005b10 f   GuPCMShapeConvex.obj
 0001:00004b30       ??__EmaxV3Error@_VecMathTests@aos@shdfnd@physx@@YAXXZ 10005b30 f   GuPCMShapeConvex.obj
 0001:00004b40       ??__EmaxV4Error@_VecMathTests@aos@shdfnd@physx@@YAXXZ 10005b40 f   GuPCMShapeConvex.obj
 0001:00004b60       ??__EminFError@_VecMathTests@aos@shdfnd@physx@@YAXXZ 10005b60 f   GuPCMShapeConvex.obj
 0001:00004b80       ??__EminV3Error@_VecMathTests@aos@shdfnd@physx@@YAXXZ 10005b80 f   GuPCMShapeConvex.obj
 0001:00004b90       ??__EminV4Error@_VecMathTests@aos@shdfnd@physx@@YAXXZ 10005b90 f   GuPCMShapeConvex.obj
 0001:00004bb0       ??__EmaxFError@_VecMathTests@aos@shdfnd@physx@@YAXXZ 10005bb0 f   GuPCMTriangleContactGen.obj
 0001:00004bd0       ??__EmaxV3Error@_VecMathTests@aos@shdfnd@physx@@YAXXZ 10005bd0 f   GuPCMTriangleContactGen.obj
 0001:00004be0       ??__EmaxV4Error@_VecMathTests@aos@shdfnd@physx@@YAXXZ 10005be0 f   GuPCMTriangleContactGen.obj
 0001:00004c00       ??__EminFError@_VecMathTests@aos@shdfnd@physx@@YAXXZ 10005c00 f   GuPCMTriangleContactGen.obj
 0001:00004c20       ??__EminV3Error@_VecMathTests@aos@shdfnd@physx@@YAXXZ 10005c20 f   GuPCMTriangleContactGen.obj
 0001:00004c30       ??__EminV4Error@_VecMathTests@aos@shdfnd@physx@@YAXXZ 10005c30 f   GuPCMTriangleContactGen.obj
 0001:00004c50       ??__EmaxFError@_VecMathTests@aos@shdfnd@physx@@YAXXZ 10005c50 f   GuPersistentContactManifold.obj
 0001:00004c70       ??__EmaxV3Error@_VecMathTests@aos@shdfnd@physx@@YAXXZ 10005c70 f   GuPersistentContactManifold.obj
 0001:00004c80       ??__EmaxV4Error@_VecMathTests@aos@shdfnd@physx@@YAXXZ 10005c80 f   GuPersistentContactManifold.obj
 0001:00004ca0       ??__EminFError@_VecMathTests@aos@shdfnd@physx@@YAXXZ 10005ca0 f   GuPersistentContactManifold.obj
 0001:00004cc0       ??__EminV3Error@_VecMathTests@aos@shdfnd@physx@@YAXXZ 10005cc0 f   GuPersistentContactManifold.obj
 0001:00004cd0       ??__EminV4Error@_VecMathTests@aos@shdfnd@physx@@YAXXZ 10005cd0 f   GuPersistentContactManifold.obj
 0001:00004cf0       ??__EmaxFError@_VecMathTests@aos@shdfnd@physx@@YAXXZ 10005cf0 f   GuBox.obj
 0001:00004d10       ??__EmaxV3Error@_VecMathTests@aos@shdfnd@physx@@YAXXZ 10005d10 f   GuBox.obj
 0001:00004d20       ??__EmaxV4Error@_VecMathTests@aos@shdfnd@physx@@YAXXZ 10005d20 f   GuBox.obj
 0001:00004d40       ??__EminFError@_VecMathTests@aos@shdfnd@physx@@YAXXZ 10005d40 f   GuBox.obj
 0001:00004d60       ??__EminV3Error@_VecMathTests@aos@shdfnd@physx@@YAXXZ 10005d60 f   GuBox.obj
 0001:00004d70       ??__EminV4Error@_VecMathTests@aos@shdfnd@physx@@YAXXZ 10005d70 f   GuBox.obj
 0001:00004d90       ??__EmaxFError@_VecMathTests@aos@shdfnd@physx@@YAXXZ 10005d90 f   GuCapsule.obj
 0001:00004db0       ??__EmaxV3Error@_VecMathTests@aos@shdfnd@physx@@YAXXZ 10005db0 f   GuCapsule.obj
 0001:00004dc0       ??__EmaxV4Error@_VecMathTests@aos@shdfnd@physx@@YAXXZ 10005dc0 f   GuCapsule.obj
 0001:00004de0       ??__EminFError@_VecMathTests@aos@shdfnd@physx@@YAXXZ 10005de0 f   GuCapsule.obj
 0001:00004e00       ??__EminV3Error@_VecMathTests@aos@shdfnd@physx@@YAXXZ 10005e00 f   GuCapsule.obj
 0001:00004e10       ??__EminV4Error@_VecMathTests@aos@shdfnd@physx@@YAXXZ 10005e10 f   GuCapsule.obj
 0001:00004e30       ??__EmaxFError@_VecMathTests@aos@shdfnd@physx@@YAXXZ 10005e30 f   GuCCTSweepTests.obj
 0001:00004e50       ??__EmaxV3Error@_VecMathTests@aos@shdfnd@physx@@YAXXZ 10005e50 f   GuCCTSweepTests.obj
 0001:00004e60       ??__EmaxV4Error@_VecMathTests@aos@shdfnd@physx@@YAXXZ 10005e60 f   GuCCTSweepTests.obj
 0001:00004e80       ??__EminFError@_VecMathTests@aos@shdfnd@physx@@YAXXZ 10005e80 f   GuCCTSweepTests.obj
 0001:00004ea0       ??__EminV3Error@_VecMathTests@aos@shdfnd@physx@@YAXXZ 10005ea0 f   GuCCTSweepTests.obj
 0001:00004eb0       ??__EminV4Error@_VecMathTests@aos@shdfnd@physx@@YAXXZ 10005eb0 f   GuCCTSweepTests.obj
 0001:00004ed0       ??__EmaxFError@_VecMathTests@aos@shdfnd@physx@@YAXXZ 10005ed0 f   GuGeometryQuery.obj
 0001:00004ef0       ??__EmaxV3Error@_VecMathTests@aos@shdfnd@physx@@YAXXZ 10005ef0 f   GuGeometryQuery.obj
 0001:00004f00       ??__EmaxV4Error@_VecMathTests@aos@shdfnd@physx@@YAXXZ 10005f00 f   GuGeometryQuery.obj
 0001:00004f20       ??__EminFError@_VecMathTests@aos@shdfnd@physx@@YAXXZ 10005f20 f   GuGeometryQuery.obj
 0001:00004f40       ??__EminV3Error@_VecMathTests@aos@shdfnd@physx@@YAXXZ 10005f40 f   GuGeometryQuery.obj
 0001:00004f50       ??__EminV4Error@_VecMathTests@aos@shdfnd@physx@@YAXXZ 10005f50 f   GuGeometryQuery.obj
 0001:00004f70       ??__EmaxFError@_VecMathTests@aos@shdfnd@physx@@YAXXZ 10005f70 f   GuGeomUtilsInternal.obj
 0001:00004f90       ??__EmaxV3Error@_VecMathTests@aos@shdfnd@physx@@YAXXZ 10005f90 f   GuGeomUtilsInternal.obj
 0001:00004fa0       ??__EmaxV4Error@_VecMathTests@aos@shdfnd@physx@@YAXXZ 10005fa0 f   GuGeomUtilsInternal.obj
 0001:00004fc0       ??__EminFError@_VecMathTests@aos@shdfnd@physx@@YAXXZ 10005fc0 f   GuGeomUtilsInternal.obj
 0001:00004fe0       ??__EminV3Error@_VecMathTests@aos@shdfnd@physx@@YAXXZ 10005fe0 f   GuGeomUtilsInternal.obj
 0001:00005000       ??__EminV4Error@_VecMathTests@aos@shdfnd@physx@@YAXXZ 10006000 f   GuGeomUtilsInternal.obj
 0001:00005020       ??__EmaxFError@_VecMathTests@aos@shdfnd@physx@@YAXXZ 10006020 f   GuMTD.obj
 0001:00005040       ??__EmaxV3Error@_VecMathTests@aos@shdfnd@physx@@YAXXZ 10006040 f   GuMTD.obj
 0001:00005050       ??__EmaxV4Error@_VecMathTests@aos@shdfnd@physx@@YAXXZ 10006050 f   GuMTD.obj
 0001:00005070       ??__EminFError@_VecMathTests@aos@shdfnd@physx@@YAXXZ 10006070 f   GuMTD.obj
 0001:00005090       ??__EminV3Error@_VecMathTests@aos@shdfnd@physx@@YAXXZ 10006090 f   GuMTD.obj
 0001:000050a0       ??__EminV4Error@_VecMathTests@aos@shdfnd@physx@@YAXXZ 100060a0 f   GuMTD.obj
 0001:000050c0       ??__EmaxFError@_VecMathTests@aos@shdfnd@physx@@YAXXZ 100060c0 f   GuOverlapTests.obj
 0001:000050e0       ??__EmaxV3Error@_VecMathTests@aos@shdfnd@physx@@YAXXZ 100060e0 f   GuOverlapTests.obj
 0001:000050f0       ??__EmaxV4Error@_VecMathTests@aos@shdfnd@physx@@YAXXZ 100060f0 f   GuOverlapTests.obj
 0001:00005110       ??__EminFError@_VecMathTests@aos@shdfnd@physx@@YAXXZ 10006110 f   GuOverlapTests.obj
 0001:00005130       ??__EminV3Error@_VecMathTests@aos@shdfnd@physx@@YAXXZ 10006130 f   GuOverlapTests.obj
 0001:00005140       ??__EminV4Error@_VecMathTests@aos@shdfnd@physx@@YAXXZ 10006140 f   GuOverlapTests.obj
 0001:00005160       ??__EmaxFError@_VecMathTests@aos@shdfnd@physx@@YAXXZ 10006160 f   GuRaycastTests.obj
 0001:00005180       ??__EmaxV3Error@_VecMathTests@aos@shdfnd@physx@@YAXXZ 10006180 f   GuRaycastTests.obj
 0001:00005190       ??__EmaxV4Error@_VecMathTests@aos@shdfnd@physx@@YAXXZ 10006190 f   GuRaycastTests.obj
 0001:000051b0       ??__EminFError@_VecMathTests@aos@shdfnd@physx@@YAXXZ 100061b0 f   GuRaycastTests.obj
 0001:000051d0       ??__EminV3Error@_VecMathTests@aos@shdfnd@physx@@YAXXZ 100061d0 f   GuRaycastTests.obj
 0001:000051e0       ??__EminV4Error@_VecMathTests@aos@shdfnd@physx@@YAXXZ 100061e0 f   GuRaycastTests.obj
 0001:00005200       ??__EmaxFError@_VecMathTests@aos@shdfnd@physx@@YAXXZ 10006200 f   GuSweepMTD.obj
 0001:00005220       ??__EmaxV3Error@_VecMathTests@aos@shdfnd@physx@@YAXXZ 10006220 f   GuSweepMTD.obj
 0001:00005230       ??__EmaxV4Error@_VecMathTests@aos@shdfnd@physx@@YAXXZ 10006230 f   GuSweepMTD.obj
 0001:00005250       ??__EminFError@_VecMathTests@aos@shdfnd@physx@@YAXXZ 10006250 f   GuSweepMTD.obj
 0001:00005270       ??__EminV3Error@_VecMathTests@aos@shdfnd@physx@@YAXXZ 10006270 f   GuSweepMTD.obj
 0001:00005280       ??__EminV4Error@_VecMathTests@aos@shdfnd@physx@@YAXXZ 10006280 f   GuSweepMTD.obj
 0001:000052a0       ??__EmaxFError@_VecMathTests@aos@shdfnd@physx@@YAXXZ 100062a0 f   GuSweepSharedTests.obj
 0001:000052c0       ??__EmaxV3Error@_VecMathTests@aos@shdfnd@physx@@YAXXZ 100062c0 f   GuSweepSharedTests.obj
 0001:000052d0       ??__EmaxV4Error@_VecMathTests@aos@shdfnd@physx@@YAXXZ 100062d0 f   GuSweepSharedTests.obj
 0001:000052f0       ??__EminFError@_VecMathTests@aos@shdfnd@physx@@YAXXZ 100062f0 f   GuSweepSharedTests.obj
 0001:00005310       ??__EminV3Error@_VecMathTests@aos@shdfnd@physx@@YAXXZ 10006310 f   GuSweepSharedTests.obj
 0001:00005320       ??__EminV4Error@_VecMathTests@aos@shdfnd@physx@@YAXXZ 10006320 f   GuSweepSharedTests.obj
 0001:00005340       ??__EmaxFError@_VecMathTests@aos@shdfnd@physx@@YAXXZ 10006340 f   GuSweepTests.obj
 0001:00005360       ??__EmaxV3Error@_VecMathTests@aos@shdfnd@physx@@YAXXZ 10006360 f   GuSweepTests.obj
 0001:00005370       ??__EmaxV4Error@_VecMathTests@aos@shdfnd@physx@@YAXXZ 10006370 f   GuSweepTests.obj
 0001:00005390       ??__EminFError@_VecMathTests@aos@shdfnd@physx@@YAXXZ 10006390 f   GuSweepTests.obj
 0001:000053b0       ??__EminV3Error@_VecMathTests@aos@shdfnd@physx@@YAXXZ 100063b0 f   GuSweepTests.obj
 0001:000053c0       ??__EminV4Error@_VecMathTests@aos@shdfnd@physx@@YAXXZ 100063c0 f   GuSweepTests.obj
 0001:00007488       $LN23                      10008488     PsWindowsThread.obj
 0001:00007680       ?PxThreadStart@?A0x94e6aed1@shdfnd@physx@@YGKPAX@Z 10008680 f   PsWindowsThread.obj
 0001:000078e0       ??RDefaultAssertHandler@?A0x06c62945@@EAEXPBD0HAA_N@Z 100088e0 f   PsAssert.obj
 0001:00008024       $LN64                      10009024     PsFastIPC.obj
 0001:00008a90       ??0MyFastXml@?A0xd3efc24c@@QAE@PAVCallback@FastXml@shdfnd@physx@@@Z 10009a90 f   PsFastXml.obj
 0001:00008ba0       ??1MyFastXml@?A0xd3efc24c@@EAE@XZ 10009ba0 f   PsFastXml.obj
 0001:00008c30       ?getError@MyFastXml@?A0xd3efc24c@@UAEPBDAAH@Z 10009c30 f   PsFastXml.obj
 0001:00008c60       ?popElement@MyFastXml@?A0xd3efc24c@@AAEPBDXZ 10009c60 f   PsFastXml.obj
 0001:00008cd0       ?processClose@MyFastXml@?A0xd3efc24c@@QAEPADDPBDPADHPAPBDPAVCallback@FastXml@shdfnd@physx@@AA_N@Z 10009cd0 f   PsFastXml.obj
 0001:00009120       ?processClose@MyFastXml@?A0xd3efc24c@@QAEPADPADPAVCallback@FastXml@shdfnd@physx@@AA_N@Z 1000a120 f   PsFastXml.obj
 0001:000091e0       ?processXml@MyFastXml@?A0xd3efc24c@@QAE_NPAVCallback@FastXml@shdfnd@physx@@@Z 1000a1e0 f   PsFastXml.obj
 0001:00009630       ?processXml@MyFastXml@?A0xd3efc24c@@UAE_NAAVPxInputData@physx@@_N@Z 1000a630 f   PsFastXml.obj
 0001:00009660       ?pushElement@MyFastXml@?A0xd3efc24c@@AAEXPBD@Z 1000a660 f   PsFastXml.obj
 0001:000096c0       ?readData@MyFastXml@?A0xd3efc24c@@QAEPADPAD@Z 1000a6c0 f   PsFastXml.obj
 0001:000098e0       ?release@MyFastXml@?A0xd3efc24c@@UAEXXZ 1000a8e0 f   PsFastXml.obj
 0001:00009900       ?releaseMemory@MyFastXml@?A0xd3efc24c@@AAEXXZ 1000a900 f   PsFastXml.obj
 0001:000099b0       ?skipNextData@MyFastXml@?A0xd3efc24c@@AAEPADPAD@Z 1000a9b0 f   PsFastXml.obj
 0001:0000ec40       $LN134                     1000fc40     CmRenderOutput.obj
 0001:00012860       ??0CapsuleMeshContactGeneration@?A0xc20cb5b8@@QAE@AAVContactBuffer@Gu@physx@@ABVPxTransform@4@ABVSegment@34@MMM@Z 10013860 f   GuContactCapsuleMesh.obj
 0001:00013740       ?PxcCapsuleTriOverlap3@@YA_NEABVSegment@Gu@physx@@MPIBVPxVec3@3@PIAMPIAV43@@Z 10014740 f   GuContactCapsuleMesh.obj
 0001:00013d90       ?PxcGenerateEEContacts2@@YAXABVMatrix34@Cm@physx@@AAVContactBuffer@Gu@3@ABVSegment@53@MPIBVPxVec3@3@ABV73@IM@Z 10014d90 f   GuContactCapsuleMesh.obj
 0001:000140a0       ?PxcGenerateEEContacts@@YAXABVMatrix34@Cm@physx@@AAVContactBuffer@Gu@3@ABVSegment@53@MPIBVPxVec3@3@ABV73@I@Z 100150a0 f   GuContactCapsuleMesh.obj
 0001:000143e0       ?PxcGenerateVFContacts@@YAXABVMatrix34@Cm@physx@@AAVContactBuffer@Gu@3@ABVSegment@53@MPIBVPxVec3@3@ABV73@IM@Z 100153e0 f   GuContactCapsuleMesh.obj
 0001:00014bc0       ?computeLocalCapsule@@YA?AVSegment@Gu@physx@@ABVPxTransform@3@0ABVPxCapsuleGeometry@3@@Z 10015bc0 f   GuContactCapsuleMesh.obj
 0001:00016af0       ?onEvent@CapsuleHeightfieldContactGenerationCallback@?A0xc20cb5b8@@UAE_NIPAI@Z 10017af0 f   GuContactCapsuleMesh.obj
 0001:00016e10       ?processHit@CapsuleMeshContactGenerationCallback@?A0xc20cb5b8@@UAE_NABUPxRaycastHit@physx@@ABVPxVec3@4@11AAMPBI@Z 10017e10 f   GuContactCapsuleMesh.obj
 0001:00017080       ?processTriangle@CapsuleMeshContactGeneration@?A0xc20cb5b8@@QAEXIPBVPxVec3@physx@@E@Z 10018080 f   GuContactCapsuleMesh.obj
 0001:00017fb0       ??0ConvexMeshContactGeneration@?A0xb3aad102@@QAE@AAVContainer@Gu@physx@@ABVPxTransform@4@1ABUPolygonalData@34@ABVMatrix34@Cm@4@3ABVFastVertex2ShapeScaling@84@M_NM11AAVContactBuffer@34@@Z 10018fb0 f   GuContactConvexMesh.obj
 0001:00019070       ?computeFeatureCode@@YA?AW4FeatureCode@@ABVPxVec3@physx@@PBV23@@Z 1001a070 f   GuContactConvexMesh.obj
 0001:00019390       ?contactHullHeightfield2@@YA_NABUPolygonalData@Gu@physx@@ABVPxBounds3@3@ABVPxHeightFieldGeometry@3@ABVPxTransform@3@3MAAVContactBuffer@23@ABVFastVertex2ShapeScaling@Cm@3@_N@Z 1001a390 f   GuContactConvexMesh.obj
 0001:00019b70       ?contactHullMesh2@@YA_NABUPolygonalData@Gu@physx@@ABVPxBounds3@3@ABUPxTriangleMeshGeometryLL@3@ABVPxTransform@3@3MAAVContactBuffer@23@ABVFastVertex2ShapeScaling@Cm@3@5_N6@Z 1001ab70 f   GuContactConvexMesh.obj
 0001:0001a420       ?generateContacts@ConvexMeshContactGeneration@?A0xb3aad102@@QBE_NABVPxPlane@physx@@PIBVPxVec3@4@ABV54@AAV54@MI@Z 1001b420 f   GuContactConvexMesh.obj
 0001:0001b270       ?generateLastContacts@ConvexMeshContactGeneration@?A0xb3aad102@@QAEXXZ 1001c270 f   GuContactConvexMesh.obj
 0001:0001b538       $LN110                     1001c538     GuContactConvexMesh.obj
 0001:0001b580       ?onEvent@ConvexVsHeightfieldContactGenerationCallback@?A0xb3aad102@@UAE_NIPAI@Z 1001c580 f   GuContactConvexMesh.obj
 0001:0001b890       ?performEETests@@YA_NABUPolygonalData@Gu@physx@@EABVMatrix34@Cm@3@1PIBVPxVec3@3@IPIBIABVPxPlane@3@ABVFastVertex2ShapeScaling@53@AAV63@AAMMII@Z 1001c890 f   GuContactConvexMesh.obj
 0001:0001c7f0       ?processTriangle@ConvexMeshContactGeneration@?A0xb3aad102@@QAEXPBVPxVec3@physx@@IEPBI@Z 1001d7f0 f   GuContactConvexMesh.obj
 0001:0001cc80       ?testFacesSepAxesBackface@@YA_NABUPolygonalData@Gu@physx@@ABVMatrix34@Cm@3@11ABVPxVec3@3@PIBV63@ABVFastVertex2ShapeScaling@53@AAIPAIAAMAAV63@5M_N@Z 1001dc80 f   GuContactConvexMesh.obj
 0001:0001d860       ?triangleConvexTest@@YA_NABUPolygonalData@Gu@physx@@EIPIBVPxVec3@3@ABVPxPlane@3@ABV43@ABVMatrix34@Cm@3@444ABVFastVertex2ShapeScaling@73@MAAV43@AAMAA_N_N@Z 1001e860 f   GuContactConvexMesh.obj
 0001:0001f160       ?ContactReductionAllIn@@YAXAAVContactBuffer@Gu@physx@@IIABVPxMat33@3@PIBVPxVec3@3@PIBE@Z 10020160 f   GuContactPolygonPolygon.obj
 0001:0001fb10       ?PointInConvexPolygon2D_OutCodes@@YA_NPIBMIMMMMAAE@Z 10020b10 f   GuContactPolygonPolygon.obj
 0001:0001fd00       ?transformVertices@@YAXAAM000PIAMIPIBVPxVec3@physx@@PIBEABVPxMat33@2@@Z 10020d00 f   GuContactPolygonPolygon.obj
 0001:00020c00       ??1SphereMeshContactGenerationCallback_NoScale@?A0x4910fd16@@UAE@XZ 10021c00 f   GuContactSphereMesh.obj
 0001:00020c20       ??1SphereMeshContactGenerationCallback_Scale@?A0x4910fd16@@UAE@XZ 10021c20 f   GuContactSphereMesh.obj
 0001:00020cf0       ?closestPtPointTriangle@@YA?AVPxVec3@physx@@ABV12@000AAM1AAW4FeatureCode@Gu@2@@Z 10021cf0 f   GuContactSphereMesh.obj
 0001:000211c0       ?generateLastContacts@SphereMeshContactGeneration@?A0x4910fd16@@QAEXXZ 100221c0 f   GuContactSphereMesh.obj
 0001:00021768       $LN121                     10022768     GuContactSphereMesh.obj
 0001:00021780       ?onEvent@SphereHeightfieldContactGenerationCallback@?A0x4910fd16@@UAE_NIPAI@Z 10022780 f   GuContactSphereMesh.obj
 0001:00021e10       ?processHit@SphereMeshContactGenerationCallback_NoScale@?A0x4910fd16@@UAE_NABUPxRaycastHit@physx@@ABVPxVec3@4@11AAMPBI@Z 10022e10 f   GuContactSphereMesh.obj
 0001:00021e40       ?processHit@SphereMeshContactGenerationCallback_Scale@?A0x4910fd16@@UAE_NABUPxRaycastHit@physx@@ABVPxVec3@4@11AAMPBI@Z 10022e40 f   GuContactSphereMesh.obj
 0001:00022030       ?processTriangle@SphereMeshContactGeneration@?A0x4910fd16@@QAEXIABVPxVec3@physx@@00PBI@Z 10023030 f   GuContactSphereMesh.obj
 0001:00022670       ?validateEdge@@YA_NIIPBUCachedTriangleIndices@@I@Z 10023670 f   GuContactSphereMesh.obj
 0001:000226d0       ?validateVertex@@YA_NIPBUCachedTriangleIndices@@I@Z 100236d0 f   GuContactSphereMesh.obj
 0001:00022798       $LN20                      10023798     GuFeatureCode.obj
 0001:000227c0       ?computeFeatureCode@@YA?AW4FeatureCode@Gu@physx@@MM@Z 100237c0 f   GuFeatureCode.obj
 0001:000246d0       ?convexHullLoad@@YA_NAAUConvexHullData@Gu@physx@@AAVPxInputStream@3@AAV?$PxBitAndDataT@I$0IAAAAAAA@@3@@Z 100256d0 f   GuConvexMesh.obj
 0001:000272d0       ?SelectClosestEdgeCB_Convex@@YAIABUPolygonalData@Gu@physx@@ABVFastVertex2ShapeScaling@Cm@3@ABVPxVec3@3@@Z 100282d0 f   GuShapeConvex.obj
 0001:00027520       ?gHullPrefetchCB@@YAXIPIBVPxVec3@physx@@@Z 10028520 f   GuShapeConvex.obj
 0001:00027530       ?HullProjectionCB_SmallConvex@@YAXABUPolygonalData@Gu@physx@@ABVPxVec3@3@ABVMatrix34@Cm@3@ABVFastVertex2ShapeScaling@63@AAM4@Z 10028530 f   GuShapeConvex.obj
 0001:000276e0       ?HullProjectionCB_BigConvex@@YAXABUPolygonalData@Gu@physx@@ABVPxVec3@3@ABVMatrix34@Cm@3@ABVFastVertex2ShapeScaling@63@AAM4@Z 100286e0 f   GuShapeConvex.obj
 0001:00027950       ?SelectClosestEdgeCB_Box@@YAIABUPolygonalData@Gu@physx@@ABVFastVertex2ShapeScaling@Cm@3@ABVPxVec3@3@@Z 10028950 f   GuShapeConvex.obj
 0001:00027b40       ?HullProjectionCB_Box@@YAXABUPolygonalData@Gu@physx@@ABVPxVec3@3@ABVMatrix34@Cm@3@ABVFastVertex2ShapeScaling@63@AAM4@Z 10028b40 f   GuShapeConvex.obj
 0001:00027c60       ?computeNearestOffset@@YAIIABVPxVec3@physx@@@Z 10028c60 f   GuShapeConvex.obj
 0001:00028960       ?case0@@YAXIIIAAVPxVec3@physx@@ABV12@1PAMAAM@Z 10029960 f   GuDistanceSegmentBox.obj
 0001:00028ba0       ?distanceLineBoxSquared@@YAMABVPxVec3@physx@@000ABVPxMat33@2@PAMPAV12@@Z 10029ba0 f   GuDistanceSegmentBox.obj
 0001:000291e0       ?face@@YAXIIIAAVPxVec3@physx@@ABV12@11PAMAAM@Z 1002a1e0 f   GuDistanceSegmentBox.obj
 0001:0002a580       ?distanceSegmentSegmentSquaredNEW@@YAMABVPxVec3@physx@@0M00MPAM1@Z 1002b580 f   GuDistanceSegmentSegment.obj
 0001:00030920       ?extrudeBox@@YAIABVPxBounds3@physx@@PBVPxTransform@2@ABVPxVec3@2@PAVPxTriangle@2@2@Z 10031920 f   GuSweepCapsuleBox.obj
 0001:00030dd0       ?extrudeMesh@@YAIIPBVPxTriangle@physx@@ABVPxVec3@2@PAV12@PAI1PBVBox@Gu@2@@Z 10031dd0 f   GuSweepCapsuleBox.obj
 0001:00032720       ?edgeEdgeDist@@YAXAAVPxVec3@physx@@0ABV12@111@Z 10033720 f   GuSweepCapsuleCapsule.obj
 0001:00034ac0       ?sphereSphereSweep@@YA_NMABVPxVec3@physx@@0M00AAM1@Z 10035ac0 f   GuSweepSphereSphere.obj
 0001:000362c0       ?runBackupProcedure@@YA_NAAVPxVec3@physx@@0ABV12@1ABVPxTriangle@2@@Z 100372c0 f   GuSweepTriangleUtils.obj
 0001:0003748c       $LN888                     1003848c     GuEPA.obj
 0001:0003749c       $LN889                     1003849c     GuEPA.obj
 0001:00037dac       $LN377                     10038dac     GuEPA.obj
 0001:00038430       ?calculateContactInformation@Gu@physx@@YAXPIBT__m128@@0PBVFacet@12@ABVConvexV@12@2AAT3@333_N@Z 10039430 f   GuEPA.obj
 0001:00038640       ?calculatePlaneDist@Gu@physx@@YA?AT__m128@@IIIPIBT3@0@Z 10039640 f   GuEPA.obj
 0001:0003c444       $LN117                     1003d444     GuGJKFallBack.obj
 0001:0003decc       $LN1218                    1003eecc     GuGJKPenetrationWrapper.obj
 0001:0003dedc       $LN1219                    1003eedc     GuGJKPenetrationWrapper.obj
 0001:0003f688       $LN1230                    10040688     GuGJKPenetrationWrapper.obj
 0001:0003f698       $LN1231                    10040698     GuGJKPenetrationWrapper.obj
 0001:00041218       $LN1343                    10042218     GuGJKPenetrationWrapper.obj
 0001:00041228       $LN1344                    10042228     GuGJKPenetrationWrapper.obj
 0001:00042c78       $LN1288                    10043c78     GuGJKPenetrationWrapper.obj
 0001:00042c88       $LN1289                    10043c88     GuGJKPenetrationWrapper.obj
 0001:00044eb0       $LN1571                    10045eb0     GuGJKPenetrationWrapper.obj
 0001:00044ec0       $LN1572                    10045ec0     GuGJKPenetrationWrapper.obj
 0001:00046e6c       $LN1432                    10047e6c     GuGJKPenetrationWrapper.obj
 0001:00046e7c       $LN1433                    10047e7c     GuGJKPenetrationWrapper.obj
 0001:0004869c       $LN1233                    1004969c     GuGJKPenetrationWrapper.obj
 0001:000486ac       $LN1234                    100496ac     GuGJKPenetrationWrapper.obj
 0001:0004a2bc       $LN1359                    1004b2bc     GuGJKPenetrationWrapper.obj
 0001:0004a2cc       $LN1360                    1004b2cc     GuGJKPenetrationWrapper.obj
 0001:0004bda8       $LN1309                    1004cda8     GuGJKPenetrationWrapper.obj
 0001:0004bdb8       $LN1310                    1004cdb8     GuGJKPenetrationWrapper.obj
 0001:0004d668       $LN1257                    1004e668     GuGJKPenetrationWrapper.obj
 0001:0004d678       $LN1258                    1004e678     GuGJKPenetrationWrapper.obj
 0001:0004ed88       $LN1205                    1004fd88     GuGJKPenetrationWrapper.obj
 0001:0004ed98       $LN1206                    1004fd98     GuGJKPenetrationWrapper.obj
 0001:00050848       $LN1329                    10051848     GuGJKPenetrationWrapper.obj
 0001:00050858       $LN1330                    10051858     GuGJKPenetrationWrapper.obj
 0001:00051fb8       $LN1233                    10052fb8     GuGJKPenetrationWrapper.obj
 0001:00051fc8       $LN1234                    10052fc8     GuGJKPenetrationWrapper.obj
 0001:00054130       $LN1574                    10055130     GuGJKPenetrationWrapper.obj
 0001:00054140       $LN1575                    10055140     GuGJKPenetrationWrapper.obj
 0001:00055fdc       $LN1436                    10056fdc     GuGJKPenetrationWrapper.obj
 0001:00055fec       $LN1437                    10056fec     GuGJKPenetrationWrapper.obj
 0001:00057d3c       $LN1444                    10058d3c     GuGJKPenetrationWrapper.obj
 0001:00057d4c       $LN1445                    10058d4c     GuGJKPenetrationWrapper.obj
 0001:0005a740       $LN1901                    1005b740     GuGJKPenetrationWrapper.obj
 0001:0005a750       $LN1902                    1005b750     GuGJKPenetrationWrapper.obj
 0001:0005ccc0       $LN1626                    1005dcc0     GuGJKPenetrationWrapper.obj
 0001:0005ccd0       $LN1627                    1005dcd0     GuGJKPenetrationWrapper.obj
 0001:0005f470       $LN1764                    10060470     GuGJKPenetrationWrapper.obj
 0001:0005f480       $LN1765                    10060480     GuGJKPenetrationWrapper.obj
 0001:00061c10       $LN1762                    10062c10     GuGJKPenetrationWrapper.obj
 0001:00061c20       $LN1763                    10062c20     GuGJKPenetrationWrapper.obj
 0001:00062a10       $LN1225                    10063a10     GuGJKPenetrationWrapper.obj
 0001:0006382c       $LN1231                    1006482c     GuGJKPenetrationWrapper.obj
 0001:0006498c       $LN1343                    1006598c     GuGJKPenetrationWrapper.obj
 0001:00065768       $LN1217                    10066768     GuGJKPenetrationWrapper.obj
 0001:00066518       $LN1211                    10067518     GuGJKPenetrationWrapper.obj
 0001:000675f8       $LN1329                    100685f8     GuGJKPenetrationWrapper.obj
 0001:0006832c       $LN1204                    1006932c     GuGJKPenetrationWrapper.obj
 0001:0006945c       $LN1323                    1006a45c     GuGJKPenetrationWrapper.obj
 0001:0006a7cc       $LN1439                    1006b7cc     GuGJKPenetrationWrapper.obj
 0001:0006c178       $LN1894                    1006d178     GuGJKPenetrationWrapper.obj
 0001:0006d4d0       ?getClosestPtPointTriangle@Gu@physx@@YA?AT__m128@@PIAT3@ABT3@PAIAAI@Z 1006e4d0 f   GuGJKSimplex.obj
 0001:00071138       $LN689                     10072138     GuGJKWrapper.obj
 0001:00072918       $LN1006                    10073918     GuGJKWrapper.obj
 0001:000736cc       $LN712                     100746cc     GuGJKWrapper.obj
 0001:000744ec       $LN714                     100754ec     GuGJKWrapper.obj
 0001:00075d84       $LN1025                    10076d84     GuGJKWrapper.obj
 0001:00076ba0       $LN761                     10077ba0     GuGJKWrapper.obj
 0001:000783e4       $LN1078                    100793e4     GuGJKWrapper.obj
 0001:000792c8       $LN765                     1007a2c8     GuGJKWrapper.obj
 0001:0007a0dc       $LN763                     1007b0dc     GuGJKWrapper.obj
 0001:0007b9bc       $LN1075                    1007c9bc     GuGJKWrapper.obj
 0001:0007d7a0       $LN1286                    1007e7a0     GuGJKWrapper.obj
 0001:0007e648       $LN786                     1007f648     GuGJKWrapper.obj
 0001:0007f5a4       $LN788                     100805a4     GuGJKWrapper.obj
 0001:00080e50       $LN1097                    10081e50     GuGJKWrapper.obj
 0001:00082048       $LN722                     10083048     GuGJKWrapper.obj
 0001:00082e68       $LN627                     10083e68     GuGJKWrapper.obj
 0001:000840bc       $LN729                     100850bc     GuGJKWrapper.obj
 0001:00084fb8       $LN1271                    10085fb8     GuGJKWrapper.obj
 0001:00086458       $LN1606                    10087458     GuGJKWrapper.obj
 0001:000873b8       $LN1288                    100883b8     GuGJKWrapper.obj
 0001:00088338       $LN1282                    10089338     GuGJKWrapper.obj
 0001:00089898       $LN1621                    1008a898     GuGJKWrapper.obj
 0001:0008a6e4       $LN651                     1008b6e4     GuGJKWrapper.obj
 0001:0008b930       $LN756                     1008c930     GuGJKWrapper.obj
 0001:0008c7c4       $LN649                     1008d7c4     GuGJKWrapper.obj
 0001:0008da40       $LN756                     1008ea40     GuGJKWrapper.obj
 0001:0008ef68       $LN859                     1008ff68     GuGJKWrapper.obj
 0001:0008fe00       $LN660                     10090e00     GuGJKWrapper.obj
 0001:0009109c       $LN766                     1009209c     GuGJKWrapper.obj
 0001:00091ea4       $LN1277                    10092ea4     GuGJKWrapper.obj
 0001:000932ec       $LN1611                    100942ec     GuGJKWrapper.obj
 0001:0009416c       $LN1262                    1009516c     GuGJKWrapper.obj
 0001:00094fdc       $LN1268                    10095fdc     GuGJKWrapper.obj
 0001:000964cc       $LN1606                    100974cc     GuGJKWrapper.obj
 0001:00097efc       $LN1938                    10098efc     GuGJKWrapper.obj
 0001:00098dcc       $LN1282                    10099dcc     GuGJKWrapper.obj
 0001:00099cbc       $LN1276                    1009acbc     GuGJKWrapper.obj
 0001:0009b1dc       $LN1618                    1009c1dc     GuGJKWrapper.obj
 0001:000a41c0       ?onEvent@HfTrianglesEntityReport2@?A0x52559a5e@@UAE_NIPAI@Z 100a51c0 f   GuMeshQuery.obj
 0001:000a84d0       ??$intersectAnyVsMeshT@$00$00@@YA_NPBVSphere@Gu@physx@@PBVCapsule@12@PBVBox@12@ABVRTreeMidphase@12@ABVPxTransform@2@ABVPxMeshScale@2@PAULimitedResults@@@Z 100a94d0 f   GuOverlapTestsMesh.obj
 0001:000a8810       ??$intersectAnyVsMeshT@$00$0A@@@YA_NPBVSphere@Gu@physx@@PBVCapsule@12@PBVBox@12@ABVRTreeMidphase@12@ABVPxTransform@2@ABVPxMeshScale@2@PAULimitedResults@@@Z 100a9810 f   GuOverlapTestsMesh.obj
 0001:000a8ea0       ??$intersectAnyVsMeshT@$01$00@@YA_NPBVSphere@Gu@physx@@PBVCapsule@12@PBVBox@12@ABVRTreeMidphase@12@ABVPxTransform@2@ABVPxMeshScale@2@PAULimitedResults@@@Z 100a9ea0 f   GuOverlapTestsMesh.obj
 0001:000a9280       ??$intersectAnyVsMeshT@$01$0A@@@YA_NPBVSphere@Gu@physx@@PBVCapsule@12@PBVBox@12@ABVRTreeMidphase@12@ABVPxTransform@2@ABVPxMeshScale@2@PAULimitedResults@@@Z 100aa280 f   GuOverlapTestsMesh.obj
 0001:000a9ca0       ??$intersectAnyVsMeshT@$0A@$00@@YA_NPBVSphere@Gu@physx@@PBVCapsule@12@PBVBox@12@ABVRTreeMidphase@12@ABVPxTransform@2@ABVPxMeshScale@2@PAULimitedResults@@@Z 100aaca0 f   GuOverlapTestsMesh.obj
 0001:000a9ed0       ??$intersectAnyVsMeshT@$0A@$0A@@@YA_NPBVSphere@Gu@physx@@PBVCapsule@12@PBVBox@12@ABVRTreeMidphase@12@ABVPxTransform@2@ABVPxMeshScale@2@PAULimitedResults@@@Z 100aaed0 f   GuOverlapTestsMesh.obj
 0001:000b3760       ?sweepSphereTriangle@@YA_NABVPxTriangle@physx@@ABVPxVec3@2@M1MAAV?$PxFlags@W4Enum@PxHitFlag@physx@@G@2@AAMAAV32@4AAI4V42@_N@Z 100b4760 f   GuSweepsMesh.obj
 0001:000b56b0       ?getTriangle@physx@@YAXABVTriangleMesh@Gu@1@IPAVPxVec3@1@PBV41@PBXABVMatrix34@Cm@1@_N@Z 100b66b0 f   GuTriangleMesh.obj
 0001:000b58f0       ?getTriangle@physx@@YAXABVTriangleMesh@Gu@1@IPAVPxVec3@1@PBV41@PBX_N@Z 100b68f0 f   GuTriangleMesh.obj
 0001:000bf810       ?multiplyInverseRTLeft@@YA?AVMatrix34@Cm@physx@@ABV123@0@Z 100c0810 f   GuOverlapTestsHF.obj
 0001:000c7010       ?calculateContacts@Gu@physx@@YAXABT__m128@@0PAT3@00PAVPersistentContact@12@AAI0@Z 100c8010 f   GuPCMContactBoxBox.obj
 0001:000c7b30       ?doBoxBoxGenerateContacts@Gu@physx@@YAIABT__m128@@0ABVPsMatTransformV@aos@shdfnd@2@10PAVPersistentContact@12@AAI@Z 100c8b30 f   GuPCMContactBoxBox.obj
 0001:000c9844       $LN1740                    100ca844     GuPCMContactBoxBox.obj
 0001:000c9860       ?getIncidentPolygon@Gu@physx@@YAXPAT__m128@@AAT3@ABT3@ABVPsMatTransformV@aos@shdfnd@2@2@Z 100ca860 f   GuPCMContactBoxBox.obj
 0001:000c9a90       ?intersectSegmentAABB@Gu@physx@@YA_NABT__m128@@000AAT3@1@Z 100caa90 f   GuPCMContactBoxBox.obj
 0001:000cf0d4       $LN4046                    100d00d4     GuPCMContactBoxConvex.obj
 0001:000cf0e4       $LN4047                    100d00e4     GuPCMContactBoxConvex.obj
 0001:000cf0f4       $LN4048                    100d00f4     GuPCMContactBoxConvex.obj
 0001:000cf104       $LN4049                    100d0104     GuPCMContactBoxConvex.obj
 0001:000d0690       ?fullContactsGenerationBoxConvex@Gu@physx@@YA_NABVPxVec3@2@ABVBoxV@12@AAVConvexHullV@12@ABVPsTransformV@aos@shdfnd@2@3PAVPersistentContact@12@AAIAAVContactBuffer@12@AAVPersistentContactManifold@12@AAT__m128@@ABT__m128@@_N_N@Z 100d1690 f   GuPCMContactBoxConvex.obj
 0001:000d17e0       ?fullContactsGenerationCapsuleBox@Gu@physx@@YA_NABVCapsuleV@12@ABVBoxV@12@VPxVec3@2@ABVPsMatTransformV@aos@shdfnd@2@ABVPsTransformV@782@4PAVPersistentContact@12@AAIAAVContactBuffer@12@AAVPersistentContactManifold@12@AAT__m128@@ABT__m128@@_N@Z 100d27e0 f   GuPCMContactCapsuleBox.obj
 0001:000d61e4       $LN3623                    100d71e4     GuPCMContactCapsuleConvex.obj
 0001:000d61f4       $LN3624                    100d71f4     GuPCMContactCapsuleConvex.obj
 0001:000d6204       $LN3625                    100d7204     GuPCMContactCapsuleConvex.obj
 0001:000d6214       $LN3626                    100d7214     GuPCMContactCapsuleConvex.obj
 0001:000d6230       ?fullContactsGenerationCapsuleConvex@Gu@physx@@YA_NABVCapsuleV@12@ABVConvexHullV@12@ABVPsMatTransformV@aos@shdfnd@2@ABVPsTransformV@672@3PAVPersistentContact@12@AAIAAVContactBuffer@12@_NAAVPersistentContactManifold@12@AAT__m128@@ABT__m128@@7@Z 100d7230 f   GuPCMContactCapsuleConvex.obj
 0001:000dc6a0       ?pcmDistancePointTriangleSquared@Gu@physx@@YA?AT__m128@@ABT3@000EAAT3@AA_N@Z 100dd6a0 f   GuPCMContactConvexCommon.obj
 0001:000dcc90       ?selectNormal@Gu@physx@@YA_NABT__m128@@AAT3@E@Z 100ddc90 f   GuPCMContactConvexCommon.obj
 0001:000de680       ?convexHullHasScale0@Gu@physx@@YAIAAVShrunkConvexHullV@12@0_NABVPsMatTransformV@aos@shdfnd@2@ABT__m128@@AAT7@444AAVPersistentContactManifold@12@@Z 100df680 f   GuPCMContactConvexConvex.obj
 0001:000e36f0       $LN3658                    100e46f0     GuPCMContactConvexConvex.obj
 0001:000e3700       $LN3659                    100e4700     GuPCMContactConvexConvex.obj
 0001:000e3710       $LN3660                    100e4710     GuPCMContactConvexConvex.obj
 0001:000e3720       $LN3661                    100e4720     GuPCMContactConvexConvex.obj
 0001:000e3730       ?convexHullNoScale0@Gu@physx@@YAIAAVShrunkConvexHullV@12@0_NABVPsMatTransformV@aos@shdfnd@2@ABT__m128@@AAT7@444AAVPersistentContactManifold@12@@Z 100e4730 f   GuPCMContactConvexConvex.obj
 0001:000e8360       $LN3377                    100e9360     GuPCMContactConvexConvex.obj
 0001:000e8370       $LN3378                    100e9370     GuPCMContactConvexConvex.obj
 0001:000e8380       $LN3379                    100e9380     GuPCMContactConvexConvex.obj
 0001:000e8390       $LN3380                    100e9390     GuPCMContactConvexConvex.obj
 0001:000e83a0       ?fullContactsGenerationConvexConvex@Gu@physx@@YA_NABVConvexHullV@12@AAV312@ABVPsTransformV@aos@shdfnd@2@2_N3PAVPersistentContact@12@AAIAAVContactBuffer@12@AAVPersistentContactManifold@12@AAT__m128@@ABT__m128@@3@Z 100e93a0 f   GuPCMContactConvexConvex.obj
 0001:000efc50       ?testEdgeNormal@Gu@physx@@YA_NABUPolygonalData@12@0PAVSupportLocal@12@1ABVPsMatTransformV@aos@shdfnd@2@2ABT__m128@@AAT8@4W4FeatureStatus@12@AAW4912@@Z 100f0c50 f   GuPCMContactGenBoxConvex.obj
 0001:000f01e0       ?testFaceNormal@Gu@physx@@YA_NABUPolygonalData@12@0PAVSupportLocal@12@1ABVPsMatTransformV@aos@shdfnd@2@2ABT__m128@@AAT8@AAI4W4FeatureStatus@12@AAW4912@@Z 100f11e0 f   GuPCMContactGenBoxConvex.obj
 0001:000f1b50       ?generatedFaceContacts@Gu@physx@@YAXABVCapsuleV@12@AAUPolygonalData@12@PAVSupportLocal@12@ABVPsMatTransformV@aos@shdfnd@2@PAVPersistentContact@12@AAIABT__m128@@6@Z 100f2b50 f   GuPCMContactGenSphereCapsule.obj
 0001:000f1fe0       ?testSATCapsulePoly@Gu@physx@@YA_NABVCapsuleV@12@ABUPolygonalData@12@PAVSupportLocal@12@ABT__m128@@AAT6@4@Z 100f2fe0 f   GuPCMContactGenSphereCapsule.obj
 0001:000f8c3c       $LN3564                    100f9c3c     GuPCMContactSphereConvex.obj
 0001:000f8c4c       $LN3565                    100f9c4c     GuPCMContactSphereConvex.obj
 0001:000f8c5c       $LN3566                    100f9c5c     GuPCMContactSphereConvex.obj
 0001:000f8c6c       $LN3567                    100f9c6c     GuPCMContactSphereConvex.obj
 0001:000f8cd0       ?addToContactBuffer@Gu@physx@@YAXAAVContactBuffer@12@ABT__m128@@11@Z 100f9cd0 f   GuPCMContactSphereConvex.obj
 0001:000f9140       ?fullContactsGenerationSphereConvex@Gu@physx@@YA_NABVCapsuleV@12@ABVConvexHullV@12@ABVPsTransformV@aos@shdfnd@2@2PAVPersistentContact@12@AAIAAVContactBuffer@12@_NAAVPersistentContactManifold@12@AAT__m128@@ABT__m128@@_N@Z 100fa140 f   GuPCMContactSphereConvex.obj
 0001:000fb9f0       ?gPCMHullPrefetchCB@Gu@physx@@YAXIPIBVPxVec3@2@@Z 100fc9f0 f   GuPCMShapeConvex.obj
 0001:000fba00       ?getPCMPolygonalData_Convex@Gu@physx@@YAXPIAUPolygonalData@12@PIBUConvexHullData@12@ABUMat33V@aos@shdfnd@2@@Z 100fca00 f   GuPCMShapeConvex.obj
 0001:000fc8d0       ?barycentricCoordinates@physx@@YAXABT__m128@@000AAT2@1@Z 100fd8d0 f   GuPCMTriangleContactGen.obj
 0001:000fca00       ?generatedPolyContacts@physx@@YAXABUPolygonalData@Gu@1@ABUHullPolygonData@31@ABVTriangleV@31@IEPAVSupportLocal@31@PAVMeshPersistentContact@31@AAIABT__m128@@6@Z 100fda00 f   GuPCMTriangleContactGen.obj
 0001:000fd620       ?generatedTriangleContacts@physx@@YAXABVTriangleV@Gu@1@IEABUPolygonalData@31@ABUHullPolygonData@31@PAVSupportLocal@31@PAVMeshPersistentContact@31@AAIABT__m128@@6@Z 100fe620 f   GuPCMTriangleContactGen.obj
